

Microchip MPLAB XC8 Assembler V2.10 build 88905656 
                                                                                               Sun Mar 15 16:17:04 2020

Microchip MPLAB XC8 C Compiler v2.10 (Free license) build 20190730164152 Og1 
     1                           	processor	16F877A
     2                           	opt	pw 120
     3                           	opt	flic
     4                           	psect	strings,global,class=STRING,delta=2
     5                           	psect	cinit,global,class=CODE,merge=1,delta=2
     6                           	psect	bitbssCOMMON,global,bit,class=COMMON,space=1,delta=1
     7                           	psect	bssCOMMON,global,class=COMMON,space=1,delta=1
     8                           	psect	bssBANK3,global,class=BANK3,space=1,delta=1
     9                           	psect	clrtext,global,class=CODE,delta=2
    10                           	psect	cstackBANK3,global,class=BANK3,space=1,delta=1
    11                           	psect	cstackBANK1,global,class=BANK1,space=1,delta=1
    12                           	psect	cstackCOMMON,global,class=COMMON,space=1,delta=1
    13                           	psect	cstackBANK0,global,class=BANK0,space=1,delta=1
    14                           	psect	maintext,global,class=CODE,split=1,delta=2
    15                           	psect	text1,local,class=CODE,merge=1,delta=2
    16                           	psect	text2,local,class=CODE,merge=1,delta=2
    17                           	psect	text3,local,class=CODE,merge=1,delta=2
    18                           	psect	text4,local,class=CODE,merge=1,delta=2
    19                           	psect	text5,local,class=CODE,merge=1,delta=2
    20                           	psect	text6,local,class=CODE,merge=1,delta=2
    21                           	psect	text7,local,class=CODE,merge=1,delta=2,group=2
    22                           	psect	text8,local,class=CODE,merge=1,delta=2,group=2
    23                           	psect	text9,local,class=CODE,merge=1,delta=2,group=2
    24                           	psect	text10,local,class=CODE,merge=1,delta=2,group=2
    25                           	psect	text11,local,class=CODE,merge=1,delta=2,group=2
    26                           	psect	text12,local,class=CODE,merge=1,delta=2,group=2
    27                           	psect	text13,local,class=CODE,merge=1,delta=2,group=1
    28                           	psect	text14,local,class=CODE,merge=1,delta=2,group=1
    29                           	psect	text15,local,class=CODE,merge=1,delta=2,group=1
    30                           	psect	text16,local,class=CODE,merge=1,delta=2,group=1
    31                           	psect	text17,local,class=CODE,merge=1,delta=2,group=2
    32                           	psect	text18,local,class=CODE,merge=1,delta=2,group=1
    33                           	psect	text19,local,class=CODE,merge=1,delta=2,group=1
    34                           	psect	text20,local,class=CODE,merge=1,delta=2,group=1
    35                           	psect	text21,local,class=CODE,merge=1,delta=2,group=1
    36                           	psect	text22,local,class=CODE,merge=1,delta=2,group=1
    37                           	psect	text23,local,class=CODE,merge=1,delta=2,group=1
    38                           	psect	text24,local,class=CODE,merge=1,delta=2
    39                           	psect	text25,local,class=CODE,merge=1,delta=2
    40                           	psect	text26,local,class=CODE,merge=1,delta=2,group=1
    41                           	psect	text27,local,class=CODE,merge=1,delta=2,group=1
    42                           	psect	text28,local,class=CODE,merge=1,delta=2
    43                           	psect	text29,local,class=CODE,merge=1,delta=2
    44                           	psect	text30,local,class=CODE,merge=1,delta=2
    45                           	psect	intentry,global,class=CODE,delta=2
    46                           	psect	text31,local,class=CODE,merge=1,delta=2
    47                           	dabs	1,0x7E,2
    48  0000                     
    49                           ; Version 2.10
    50                           ; Generated 31/07/2019 GMT
    51                           ; 
    52                           ; Copyright © 2019, Microchip Technology Inc. and its subsidiaries ("Microchip")
    53                           ; All rights reserved.
    54                           ; 
    55                           ; This software is developed by Microchip Technology Inc. and its subsidiaries ("Microch
      +                          ip").
    56                           ; 
    57                           ; Redistribution and use in source and binary forms, with or without modification, are
    58                           ; permitted provided that the following conditions are met:
    59                           ; 
    60                           ;     1. Redistributions of source code must retain the above copyright notice, this lis
      +                          t of
    61                           ;        conditions and the following disclaimer.
    62                           ; 
    63                           ;     2. Redistributions in binary form must reproduce the above copyright notice, this 
      +                          list
    64                           ;        of conditions and the following disclaimer in the documentation and/or other
    65                           ;        materials provided with the distribution.
    66                           ; 
    67                           ;     3. Microchip's name may not be used to endorse or promote products derived from th
      +                          is
    68                           ;        software without specific prior written permission.
    69                           ; 
    70                           ; THIS SOFTWARE IS PROVIDED BY MICROCHIP "AS IS" AND ANY EXPRESS OR IMPLIED WARRANTIES,
    71                           ; INCLUDING, BUT NOT LIMITED TO, THE IMPLIED WARRANTIES OF MERCHANTABILITY AND FITNESS F
      +                          OR
    72                           ; PURPOSE ARE DISCLAIMED.  IN NO EVENT SHALL MICROCHIP BE LIABLE FOR ANY DIRECT, INDIREC
      +                          T,
    73                           ; INCIDENTAL, SPECIAL, EXEMPLARY, OR CONSEQUENTIAL DAMAGES (INCLUDING BUT NOT LIMITED TO
    74                           ; PROCUREMENT OF SUBSTITUTE GOODS OR SERVICES; LOSS OF USE, DATA OR PROFITS; OR BUSINESS
    75                           ; INTERRUPTION) HOWSOEVER CAUSED AND ON ANY THEORY OF LIABILITY, WHETHER IN CONTRACT, ST
      +                          RICT
    76                           ; LIABILITY, OR TORT (INCLUDING NEGLIGENCE OR OTHERWISE) ARISING IN ANY WAY OUT OF THE U
      +                          SE OF
    77                           ; THIS SOFTWARE, EVEN IF ADVISED OF THE POSSIBILITY OF SUCH DAMAGE.
    78                           ; 
    79                           ; 
    80                           ; Code-generator required, PIC16F877A Definitions
    81                           ; 
    82                           ; SFR Addresses
    83  0000                     	;# 
    84  0001                     	;# 
    85  0002                     	;# 
    86  0003                     	;# 
    87  0004                     	;# 
    88  0005                     	;# 
    89  0006                     	;# 
    90  0007                     	;# 
    91  0008                     	;# 
    92  0009                     	;# 
    93  000A                     	;# 
    94  000B                     	;# 
    95  000C                     	;# 
    96  000D                     	;# 
    97  000E                     	;# 
    98  000E                     	;# 
    99  000F                     	;# 
   100  0010                     	;# 
   101  0011                     	;# 
   102  0012                     	;# 
   103  0013                     	;# 
   104  0014                     	;# 
   105  0015                     	;# 
   106  0015                     	;# 
   107  0016                     	;# 
   108  0017                     	;# 
   109  0018                     	;# 
   110  0019                     	;# 
   111  001A                     	;# 
   112  001B                     	;# 
   113  001B                     	;# 
   114  001C                     	;# 
   115  001D                     	;# 
   116  001E                     	;# 
   117  001F                     	;# 
   118  0081                     	;# 
   119  0085                     	;# 
   120  0086                     	;# 
   121  0087                     	;# 
   122  0088                     	;# 
   123  0089                     	;# 
   124  008C                     	;# 
   125  008D                     	;# 
   126  008E                     	;# 
   127  0091                     	;# 
   128  0092                     	;# 
   129  0093                     	;# 
   130  0094                     	;# 
   131  0098                     	;# 
   132  0099                     	;# 
   133  009C                     	;# 
   134  009D                     	;# 
   135  009E                     	;# 
   136  009F                     	;# 
   137  010C                     	;# 
   138  010D                     	;# 
   139  010E                     	;# 
   140  010F                     	;# 
   141  018C                     	;# 
   142  018D                     	;# 
   143  0000                     	;# 
   144  0001                     	;# 
   145  0002                     	;# 
   146  0003                     	;# 
   147  0004                     	;# 
   148  0005                     	;# 
   149  0006                     	;# 
   150  0007                     	;# 
   151  0008                     	;# 
   152  0009                     	;# 
   153  000A                     	;# 
   154  000B                     	;# 
   155  000C                     	;# 
   156  000D                     	;# 
   157  000E                     	;# 
   158  000E                     	;# 
   159  000F                     	;# 
   160  0010                     	;# 
   161  0011                     	;# 
   162  0012                     	;# 
   163  0013                     	;# 
   164  0014                     	;# 
   165  0015                     	;# 
   166  0015                     	;# 
   167  0016                     	;# 
   168  0017                     	;# 
   169  0018                     	;# 
   170  0019                     	;# 
   171  001A                     	;# 
   172  001B                     	;# 
   173  001B                     	;# 
   174  001C                     	;# 
   175  001D                     	;# 
   176  001E                     	;# 
   177  001F                     	;# 
   178  0081                     	;# 
   179  0085                     	;# 
   180  0086                     	;# 
   181  0087                     	;# 
   182  0088                     	;# 
   183  0089                     	;# 
   184  008C                     	;# 
   185  008D                     	;# 
   186  008E                     	;# 
   187  0091                     	;# 
   188  0092                     	;# 
   189  0093                     	;# 
   190  0094                     	;# 
   191  0098                     	;# 
   192  0099                     	;# 
   193  009C                     	;# 
   194  009D                     	;# 
   195  009E                     	;# 
   196  009F                     	;# 
   197  010C                     	;# 
   198  010D                     	;# 
   199  010E                     	;# 
   200  010F                     	;# 
   201  018C                     	;# 
   202  018D                     	;# 
   203  0000                     	;# 
   204  0001                     	;# 
   205  0002                     	;# 
   206  0003                     	;# 
   207  0004                     	;# 
   208  0005                     	;# 
   209  0006                     	;# 
   210  0007                     	;# 
   211  0008                     	;# 
   212  0009                     	;# 
   213  000A                     	;# 
   214  000B                     	;# 
   215  000C                     	;# 
   216  000D                     	;# 
   217  000E                     	;# 
   218  000E                     	;# 
   219  000F                     	;# 
   220  0010                     	;# 
   221  0011                     	;# 
   222  0012                     	;# 
   223  0013                     	;# 
   224  0014                     	;# 
   225  0015                     	;# 
   226  0015                     	;# 
   227  0016                     	;# 
   228  0017                     	;# 
   229  0018                     	;# 
   230  0019                     	;# 
   231  001A                     	;# 
   232  001B                     	;# 
   233  001B                     	;# 
   234  001C                     	;# 
   235  001D                     	;# 
   236  001E                     	;# 
   237  001F                     	;# 
   238  0081                     	;# 
   239  0085                     	;# 
   240  0086                     	;# 
   241  0087                     	;# 
   242  0088                     	;# 
   243  0089                     	;# 
   244  008C                     	;# 
   245  008D                     	;# 
   246  008E                     	;# 
   247  0091                     	;# 
   248  0092                     	;# 
   249  0093                     	;# 
   250  0094                     	;# 
   251  0098                     	;# 
   252  0099                     	;# 
   253  009C                     	;# 
   254  009D                     	;# 
   255  009E                     	;# 
   256  009F                     	;# 
   257  010C                     	;# 
   258  010D                     	;# 
   259  010E                     	;# 
   260  010F                     	;# 
   261  018C                     	;# 
   262  018D                     	;# 
   263  0000                     	;# 
   264  0001                     	;# 
   265  0002                     	;# 
   266  0003                     	;# 
   267  0004                     	;# 
   268  0005                     	;# 
   269  0006                     	;# 
   270  0007                     	;# 
   271  0008                     	;# 
   272  0009                     	;# 
   273  000A                     	;# 
   274  000B                     	;# 
   275  000C                     	;# 
   276  000D                     	;# 
   277  000E                     	;# 
   278  000E                     	;# 
   279  000F                     	;# 
   280  0010                     	;# 
   281  0011                     	;# 
   282  0012                     	;# 
   283  0013                     	;# 
   284  0014                     	;# 
   285  0015                     	;# 
   286  0015                     	;# 
   287  0016                     	;# 
   288  0017                     	;# 
   289  0018                     	;# 
   290  0019                     	;# 
   291  001A                     	;# 
   292  001B                     	;# 
   293  001B                     	;# 
   294  001C                     	;# 
   295  001D                     	;# 
   296  001E                     	;# 
   297  001F                     	;# 
   298  0081                     	;# 
   299  0085                     	;# 
   300  0086                     	;# 
   301  0087                     	;# 
   302  0088                     	;# 
   303  0089                     	;# 
   304  008C                     	;# 
   305  008D                     	;# 
   306  008E                     	;# 
   307  0091                     	;# 
   308  0092                     	;# 
   309  0093                     	;# 
   310  0094                     	;# 
   311  0098                     	;# 
   312  0099                     	;# 
   313  009C                     	;# 
   314  009D                     	;# 
   315  009E                     	;# 
   316  009F                     	;# 
   317  010C                     	;# 
   318  010D                     	;# 
   319  010E                     	;# 
   320  010F                     	;# 
   321  018C                     	;# 
   322  018D                     	;# 
   323                           
   324                           	psect	strings
   325  1800                     __pstrings:	
   326  1800                     stringtab:	
   327  1800                     __stringtab:	
   328                           
   329                           ;	String table - string pointers are 1 byte each
   330  1800  1BFF               	btfsc	btemp+1,7
   331  1801  280A               	ljmp	stringcode
   332  1802  1383               	bcf	3,7
   333  1803  187F               	btfsc	btemp+1,0
   334  1804  1783               	bsf	3,7
   335  1805  0800               	movf	0,w
   336  1806  0A84               	incf	4,f
   337  1807  1903               	skipnz
   338  1808  0AFF               	incf	btemp+1,f
   339  1809  0008               	return
   340  180A                     stringcode:	
   341  180A                     stringdir:	
   342  180A  3018               	movlw	high stringdir
   343  180B  008A               	movwf	10
   344  180C  0804               	movf	4,w
   345  180D  0A84               	incf	4,f
   346  180E  0782               	addwf	2,f
   347  180F                     __stringbase:	
   348  180F  3400               	retlw	0
   349  1810                     __end_of__stringtab:	
   350  1810                     exp@coeff:	
   351  1810  3400               	retlw	0
   352  1811  3400               	retlw	0
   353  1812  3480               	retlw	128
   354  1813  343F               	retlw	63
   355  1814  3418               	retlw	24
   356  1815  3472               	retlw	114
   357  1816  3431               	retlw	49
   358  1817  343F               	retlw	63
   359  1818  34F0               	retlw	240
   360  1819  34FD               	retlw	253
   361  181A  3475               	retlw	117
   362  181B  343E               	retlw	62
   363  181C  3447               	retlw	71
   364  181D  3458               	retlw	88
   365  181E  3463               	retlw	99
   366  181F  343D               	retlw	61
   367  1820  3458               	retlw	88
   368  1821  3495               	retlw	149
   369  1822  341D               	retlw	29
   370  1823  343C               	retlw	60
   371  1824  3482               	retlw	130
   372  1825  34C4               	retlw	196
   373  1826  34AE               	retlw	174
   374  1827  343A               	retlw	58
   375  1828  34A8               	retlw	168
   376  1829  3478               	retlw	120
   377  182A  3421               	retlw	33
   378  182B  3439               	retlw	57
   379  182C  34EF               	retlw	239
   380  182D  3493               	retlw	147
   381  182E  3480               	retlw	128
   382  182F  3437               	retlw	55
   383  1830  34A0               	retlw	160
   384  1831  3492               	retlw	146
   385  1832  34A7               	retlw	167
   386  1833  3435               	retlw	53
   387  1834  3446               	retlw	70
   388  1835  3456               	retlw	86
   389  1836  3415               	retlw	21
   390  1837  3434               	retlw	52
   391  1838                     __end_ofexp@coeff:	
   392  1838                     log@coeff:	
   393  1838  3400               	retlw	0
   394  1839  3400               	retlw	0
   395  183A  3400               	retlw	0
   396  183B  3400               	retlw	0
   397  183C  34C4               	retlw	196
   398  183D  34FF               	retlw	255
   399  183E  347F               	retlw	127
   400  183F  343F               	retlw	63
   401  1840  3480               	retlw	128
   402  1841  34EF               	retlw	239
   403  1842  34FF               	retlw	255
   404  1843  34BE               	retlw	190
   405  1844  3490               	retlw	144
   406  1845  34E1               	retlw	225
   407  1846  34A9               	retlw	169
   408  1847  343E               	retlw	62
   409  1848  34EC               	retlw	236
   410  1849  3482               	retlw	130
   411  184A  3476               	retlw	118
   412  184B  34BE               	retlw	190
   413  184C  3482               	retlw	130
   414  184D  34AD               	retlw	173
   415  184E  342B               	retlw	43
   416  184F  343E               	retlw	62
   417  1850  340E               	retlw	14
   418  1851  343C               	retlw	60
   419  1852  34C3               	retlw	195
   420  1853  34BD               	retlw	189
   421  1854  3487               	retlw	135
   422  1855  34D1               	retlw	209
   423  1856  3413               	retlw	19
   424  1857  343D               	retlw	61
   425  1858  3441               	retlw	65
   426  1859  3478               	retlw	120
   427  185A  34D3               	retlw	211
   428  185B  34BB               	retlw	187
   429  185C                     __end_oflog@coeff:	
   430  001E                     _ADRESH	set	30
   431  001F                     _ADCON0	set	31
   432  000B                     _INTCONbits	set	11
   433  0006                     _PORTBbits	set	6
   434  0008                     _PORTD	set	8
   435  0007                     _PORTC	set	7
   436  0006                     _PORTB	set	6
   437  003C                     _RC4	set	60
   438  003D                     _RC5	set	61
   439  00FA                     _GO_nDONE	set	250
   440  0035                     _RB5	set	53
   441  0034                     _RB4	set	52
   442  002A                     _RA2	set	42
   443  002C                     _RA4	set	44
   444  005E                     _PEIE	set	94
   445  005F                     _GIE	set	95
   446  005B                     _RBIE	set	91
   447  0058                     _RBIF	set	88
   448  009E                     _ADRESL	set	158
   449  009C                     _CMCON	set	156
   450  009F                     _ADCON1	set	159
   451  0088                     _TRISD	set	136
   452  0087                     _TRISC	set	135
   453  0086                     _TRISB	set	134
   454  0085                     _TRISA	set	133
   455  040F                     _nRBPU	set	1039
   456  185C                     STR_5:	
   457  185C  345B               	retlw	91	;'['
   458  185D  3441               	retlw	65	;'A'
   459  185E  345D               	retlw	93	;']'
   460  185F  3420               	retlw	32	;' '
   461  1860  3420               	retlw	32	;' '
   462  1861  3400               	retlw	0
   463  1862                     STR_8:	
   464  1862  345B               	retlw	91	;'['
   465  1863  3456               	retlw	86	;'V'
   466  1864  345D               	retlw	93	;']'
   467  1865  3420               	retlw	32	;' '
   468  1866  3420               	retlw	32	;' '
   469  1867  3400               	retlw	0
   470  1868                     STR_1:	
   471  1868  3430               	retlw	48	;'0'
   472  1869  3430               	retlw	48	;'0'
   473  186A  342E               	retlw	46	;'.'
   474  186B  3430               	retlw	48	;'0'
   475  186C  3400               	retlw	0
   476  186D                     STR_2:	
   477  186D  3430               	retlw	48	;'0'
   478  186E  342E               	retlw	46	;'.'
   479  186F  3430               	retlw	48	;'0'
   480  1870  3430               	retlw	48	;'0'
   481  1871  3400               	retlw	0
   482  1872                     STR_6:	
   483  1872  345B               	retlw	91	;'['
   484  1873  3400               	retlw	0
   485  1874                     STR_7:	
   486  1874  345D               	retlw	93	;']'
   487  1875  3400               	retlw	0
   488  1868                     
   489                           ; #config settings
   490  0000                     
   491                           	psect	cinit
   492  000F                     start_initialization:	
   493  000F                     __initialization:	
   494                           
   495                           ; Clear objects allocated to BITCOMMON
   496  000F  01F9               	clrf	(__pbitbssCOMMON/(0+8))& (0+127)
   497                           
   498                           ; Clear objects allocated to COMMON
   499  0010  01F7               	clrf	__pbssCOMMON& (0+127)
   500  0011  01F8               	clrf	(__pbssCOMMON+1)& (0+127)
   501                           
   502                           ; Clear objects allocated to BANK3
   503  0012  1783               	bsf	3,7	;select IRP bank2
   504  0013  30D2               	movlw	low __pbssBANK3
   505  0014  0084               	movwf	4
   506  0015  30E5               	movlw	low (__pbssBANK3+19)
   507  0016  120A  118A  27F6  120A  118A  	fcall	clear_ram0
   508  001B                     end_of_initialization:	
   509                           ;End of C runtime variable initialization code
   510                           
   511  001B                     __end_of__initialization:	
   512  001B  0183               	clrf	3
   513  001C  120A  118A  281F   	ljmp	_main	;jump to C main() function
   514                           
   515                           	psect	bitbssCOMMON
   516  03C8                     __pbitbssCOMMON:	
   517  03C8                     main@FOutOnOff:	
   518  03C8                     	ds	1
   519                           
   520                           	psect	bssCOMMON
   521  0077                     __pbssCOMMON:	
   522  0077                     pbchange@oldstate:	
   523  0077                     	ds	1
   524  0078                     _i:	
   525  0078                     	ds	1
   526                           
   527                           	psect	bssBANK3
   528  01D2                     __pbssBANK3:	
   529  01D2                     _errno:	
   530  01D2                     	ds	2
   531  01D4                     _count:	
   532  01D4                     	ds	2
   533  01D6                     _temp:	
   534  01D6                     	ds	15
   535                           
   536                           	psect	clrtext
   537  07F6                     clear_ram0:	
   538                           ;	Called with FSR containing the base address, and
   539                           ;	W with the last address+1
   540                           
   541  07F6  0064               	clrwdt	;clear the watchdog before getting into this loop
   542  07F7                     clrloop0:	
   543  07F7  0180               	clrf	0	;clear RAM location pointed to by FSR
   544  07F8  0A84               	incf	4,f	;increment pointer
   545  07F9  0604               	xorwf	4,w	;XOR with final address
   546  07FA  1903               	btfsc	3,2	;have we reached the end yet?
   547  07FB  3400               	retlw	0	;all done for this memory range, return
   548  07FC  0604               	xorwf	4,w	;XOR again to restore value
   549  07FD  2FF7               	goto	clrloop0	;do the next byte
   550                           
   551                           	psect	cstackBANK3
   552  0190                     __pcstackBANK3:	
   553  0190                     _pow$932:	
   554                           
   555                           ; 4 bytes @ 0x0
   556  0190                     	ds	4
   557  0194                     _pow$933:	
   558                           
   559                           ; 4 bytes @ 0x4
   560  0194                     	ds	4
   561  0198                     pow@sign:	
   562                           
   563                           ; 1 bytes @ 0x8
   564  0198                     	ds	1
   565  0199                     pow@yi:	
   566                           
   567                           ; 4 bytes @ 0x9
   568  0199                     	ds	4
   569  019D                     _ftoa$930:	
   570                           
   571                           ; 4 bytes @ 0xD
   572  019D                     	ds	4
   573  01A1                     _ftoa$931:	
   574                           
   575                           ; 4 bytes @ 0x11
   576  01A1                     	ds	4
   577  01A5                     ftoa@ipart:	
   578                           
   579                           ; 2 bytes @ 0x15
   580  01A5                     	ds	2
   581  01A7                     ftoa@i:	
   582                           
   583                           ; 2 bytes @ 0x17
   584  01A7                     	ds	2
   585  01A9                     ftoa@fpart:	
   586                           
   587                           ; 4 bytes @ 0x19
   588  01A9                     	ds	4
   589  01AD                     ??_main:	
   590                           
   591                           ; 1 bytes @ 0x1D
   592  01AD                     	ds	4
   593  01B1                     main@current:	
   594                           
   595                           ; 1 bytes @ 0x21
   596  01B1                     	ds	1
   597  01B2                     main@_prevVoltage:	
   598                           
   599                           ; 1 bytes @ 0x22
   600  01B2                     	ds	1
   601  01B3                     main@_prevCurrent:	
   602                           
   603                           ; 1 bytes @ 0x23
   604  01B3                     	ds	1
   605  01B4                     main@currentLimit:	
   606                           
   607                           ; 4 bytes @ 0x24
   608  01B4                     	ds	4
   609  01B8                     main@voltage_res:	
   610                           
   611                           ; 4 bytes @ 0x28
   612  01B8                     	ds	4
   613  01BC                     _main$928:	
   614                           
   615                           ; 4 bytes @ 0x2C
   616  01BC                     	ds	4
   617  01C0                     _main$929:	
   618                           
   619                           ; 4 bytes @ 0x30
   620  01C0                     	ds	4
   621  01C4                     main@b:	
   622                           
   623                           ; 2 bytes @ 0x34
   624  01C4                     	ds	2
   625  01C6                     main@current_res:	
   626                           
   627                           ; 4 bytes @ 0x36
   628  01C6                     	ds	4
   629  01CA                     main@a:	
   630                           
   631                           ; 2 bytes @ 0x3A
   632  01CA                     	ds	2
   633  01CC                     main@adc_count:	
   634                           
   635                           ; 2 bytes @ 0x3C
   636  01CC                     	ds	2
   637  01CE                     main@voltageLimit:	
   638                           
   639                           ; 4 bytes @ 0x3E
   640  01CE                     	ds	4
   641                           
   642                           	psect	cstackBANK1
   643  00A0                     __pcstackBANK1:	
   644  00A0                     ___fldiv@rem:	
   645                           
   646                           ; 4 bytes @ 0x0
   647  00A0                     	ds	4
   648  00A4                     ___fldiv@sign:	
   649                           
   650                           ; 1 bytes @ 0x4
   651  00A4                     	ds	1
   652  00A5                     ___fldiv@new_exp:	
   653                           
   654                           ; 2 bytes @ 0x5
   655  00A5                     	ds	2
   656  00A7                     ___fldiv@grs:	
   657                           
   658                           ; 4 bytes @ 0x7
   659  00A7                     	ds	4
   660  00AB                     ___fldiv@bexp:	
   661                           
   662                           ; 1 bytes @ 0xB
   663  00AB                     	ds	1
   664  00AC                     ___fldiv@aexp:	
   665                           
   666                           ; 1 bytes @ 0xC
   667  00AC                     	ds	1
   668  00AD                     ??___fladd:	
   669                           
   670                           ; 1 bytes @ 0xD
   671  00AD                     	ds	8
   672  00B5                     ___fladd@signs:	
   673                           
   674                           ; 1 bytes @ 0x15
   675  00B5                     	ds	1
   676  00B6                     ___fladd@aexp:	
   677                           
   678                           ; 1 bytes @ 0x16
   679  00B6                     	ds	1
   680  00B7                     ___fladd@bexp:	
   681                           
   682                           ; 1 bytes @ 0x17
   683  00B7                     	ds	1
   684  00B8                     ___fladd@grs:	
   685                           
   686                           ; 1 bytes @ 0x18
   687  00B8                     	ds	1
   688  00B9                     ?_eval_poly:	
   689  00B9                     ?___fltol:	
   690                           ; 4 bytes @ 0x19
   691                           
   692  00B9                     ?___flsub:	
   693                           ; 4 bytes @ 0x19
   694                           
   695  00B9                     ___fltol@f1:	
   696                           ; 4 bytes @ 0x19
   697                           
   698  00B9                     ___flsub@a:	
   699                           ; 4 bytes @ 0x19
   700                           
   701  00B9                     eval_poly@x:	
   702                           ; 4 bytes @ 0x19
   703                           
   704                           
   705                           ; 4 bytes @ 0x19
   706  00B9                     	ds	4
   707  00BD                     ??___fltol:	
   708  00BD                     eval_poly@d:	
   709                           ; 1 bytes @ 0x1D
   710                           
   711  00BD                     ___flsub@b:	
   712                           ; 1 bytes @ 0x1D
   713                           
   714                           
   715                           ; 4 bytes @ 0x1D
   716  00BD                     	ds	1
   717  00BE                     eval_poly@n:	
   718                           
   719                           ; 2 bytes @ 0x1E
   720  00BE                     	ds	2
   721  00C0                     ??_eval_poly:	
   722                           
   723                           ; 1 bytes @ 0x20
   724  00C0                     	ds	2
   725  00C2                     ___fltol@sign1:	
   726                           
   727                           ; 1 bytes @ 0x22
   728  00C2                     	ds	1
   729  00C3                     ___fltol@exp1:	
   730                           
   731                           ; 1 bytes @ 0x23
   732  00C3                     	ds	1
   733  00C4                     ?_intToStr:	
   734  00C4                     ?_floor:	
   735                           ; 2 bytes @ 0x24
   736                           
   737  00C4                     intToStr@x:	
   738                           ; 4 bytes @ 0x24
   739                           
   740  00C4                     floor@x:	
   741                           ; 2 bytes @ 0x24
   742                           
   743                           
   744                           ; 4 bytes @ 0x24
   745  00C4                     	ds	1
   746  00C5                     eval_poly@res:	
   747                           
   748                           ; 4 bytes @ 0x25
   749  00C5                     	ds	1
   750  00C6                     intToStr@str:	
   751                           
   752                           ; 1 bytes @ 0x26
   753  00C6                     	ds	1
   754  00C7                     intToStr@d:	
   755                           
   756                           ; 2 bytes @ 0x27
   757  00C7                     	ds	1
   758  00C8                     ??_floor:	
   759                           
   760                           ; 1 bytes @ 0x28
   761  00C8                     	ds	1
   762  00C9                     ??_intToStr:	
   763  00C9                     ?_log:	
   764                           ; 1 bytes @ 0x29
   765                           
   766  00C9                     ?_ldexp:	
   767                           ; 4 bytes @ 0x29
   768                           
   769  00C9                     floor@i:	
   770                           ; 4 bytes @ 0x29
   771                           
   772  00C9                     ldexp@value:	
   773                           ; 4 bytes @ 0x29
   774                           
   775  00C9                     log@x:	
   776                           ; 4 bytes @ 0x29
   777                           
   778                           
   779                           ; 4 bytes @ 0x29
   780  00C9                     	ds	2
   781  00CB                     intToStr@i:	
   782                           
   783                           ; 2 bytes @ 0x2B
   784  00CB                     	ds	2
   785  00CD                     ??_log:	
   786  00CD                     floor@expon:	
   787                           ; 1 bytes @ 0x2D
   788                           
   789  00CD                     ldexp@newexp:	
   790                           ; 2 bytes @ 0x2D
   791                           
   792                           
   793                           ; 2 bytes @ 0x2D
   794  00CD                     	ds	1
   795  00CE                     log@exponent:	
   796                           
   797                           ; 2 bytes @ 0x2E
   798  00CE                     	ds	1
   799  00CF                     ??_ldexp:	
   800                           
   801                           ; 1 bytes @ 0x2F
   802  00CF                     	ds	2
   803  00D1                     ?_exp:	
   804  00D1                     exp@x:	
   805                           ; 4 bytes @ 0x31
   806                           
   807                           
   808                           ; 4 bytes @ 0x31
   809  00D1                     	ds	4
   810  00D5                     ??_exp:	
   811                           
   812                           ; 1 bytes @ 0x35
   813  00D5                     	ds	1
   814  00D6                     _exp$934:	
   815                           
   816                           ; 4 bytes @ 0x36
   817  00D6                     	ds	4
   818  00DA                     exp@exponent:	
   819                           
   820                           ; 2 bytes @ 0x3A
   821  00DA                     	ds	2
   822  00DC                     exp@sign:	
   823                           
   824                           ; 1 bytes @ 0x3C
   825  00DC                     	ds	1
   826  00DD                     ?_pow:	
   827  00DD                     pow@x:	
   828                           ; 4 bytes @ 0x3D
   829                           
   830                           
   831                           ; 4 bytes @ 0x3D
   832  00DD                     	ds	4
   833  00E1                     pow@y:	
   834                           
   835                           ; 4 bytes @ 0x41
   836  00E1                     	ds	4
   837  00E5                     ??_pow:	
   838                           
   839                           ; 1 bytes @ 0x45
   840  00E5                     	ds	1
   841  00E6                     ?_ftoa:	
   842  00E6                     ftoa@n:	
   843                           ; 1 bytes @ 0x46
   844                           
   845                           
   846                           ; 4 bytes @ 0x46
   847  00E6                     	ds	4
   848  00EA                     ftoa@res:	
   849                           
   850                           ; 1 bytes @ 0x4A
   851  00EA                     	ds	1
   852  00EB                     ftoa@afterpoint:	
   853                           
   854                           ; 2 bytes @ 0x4B
   855  00EB                     	ds	2
   856  00ED                     ??_ftoa:	
   857                           
   858                           ; 1 bytes @ 0x4D
   859  00ED                     	ds	2
   860                           
   861                           	psect	cstackCOMMON
   862  0070                     __pcstackCOMMON:	
   863  0070                     ?_lcd_init:	
   864  0070                     ?_lcd_clear:	
   865                           ; 1 bytes @ 0x0
   866                           
   867  0070                     ?_ADC_Init:	
   868                           ; 1 bytes @ 0x0
   869                           
   870  0070                     ?_lcd_goto:	
   871                           ; 1 bytes @ 0x0
   872                           
   873  0070                     ?_main:	
   874                           ; 1 bytes @ 0x0
   875                           
   876  0070                     ?_pbchange:	
   877                           ; 1 bytes @ 0x0
   878                           
   879  0070                     ??_pbchange:	
   880                           ; 1 bytes @ 0x0
   881                           
   882  0070                     ?_ISR:	
   883                           ; 1 bytes @ 0x0
   884                           
   885  0070                     ?_lcd_write:	
   886                           ; 1 bytes @ 0x0
   887                           
   888                           
   889                           ; 1 bytes @ 0x0
   890  0070                     	ds	4
   891  0074                     pbchange@state:	
   892                           
   893                           ; 1 bytes @ 0x4
   894  0074                     	ds	1
   895  0075                     ??_ISR:	
   896                           
   897                           ; 1 bytes @ 0x5
   898  0075                     	ds	2
   899                           
   900                           	psect	cstackBANK0
   901  0020                     __pcstackBANK0:	
   902  0020                     ?___flge:	
   903  0020                     ??_ADC_Init:	
   904                           ; 1 bit 
   905                           
   906  0020                     ?_reverse:	
   907                           ; 1 bytes @ 0x0
   908                           
   909  0020                     ??_lcd_write:	
   910                           ; 1 bytes @ 0x0
   911                           
   912  0020                     ?_ADC_Read:	
   913                           ; 1 bytes @ 0x0
   914                           
   915  0020                     ?__Umul8_16:	
   916                           ; 2 bytes @ 0x0
   917                           
   918  0020                     ?___awdiv:	
   919                           ; 2 bytes @ 0x0
   920                           
   921  0020                     ?___awmod:	
   922                           ; 2 bytes @ 0x0
   923                           
   924  0020                     ?___flneg:	
   925                           ; 2 bytes @ 0x0
   926                           
   927  0020                     ?___xxtofl:	
   928                           ; 4 bytes @ 0x0
   929                           
   930  0020                     __Umul8_16@multiplicand:	
   931                           ; 4 bytes @ 0x0
   932                           
   933  0020                     reverse@len:	
   934                           ; 1 bytes @ 0x0
   935                           
   936  0020                     ___awdiv@divisor:	
   937                           ; 2 bytes @ 0x0
   938                           
   939  0020                     ___awmod@divisor:	
   940                           ; 2 bytes @ 0x0
   941                           
   942  0020                     ___flge@ff1:	
   943                           ; 2 bytes @ 0x0
   944                           
   945  0020                     ___flneg@f1:	
   946                           ; 4 bytes @ 0x0
   947                           
   948  0020                     ___xxtofl@val:	
   949                           ; 4 bytes @ 0x0
   950                           
   951                           
   952                           ; 4 bytes @ 0x0
   953  0020                     	ds	1
   954  0021                     lcd_write@c:	
   955                           
   956                           ; 1 bytes @ 0x1
   957  0021                     	ds	1
   958  0022                     ??_lcd_clear:	
   959  0022                     ??_ADC_Read:	
   960                           ; 1 bytes @ 0x2
   961                           
   962  0022                     ??_lcd_goto:	
   963                           ; 1 bytes @ 0x2
   964                           
   965  0022                     ?_lcd_puts:	
   966                           ; 1 bytes @ 0x2
   967                           
   968  0022                     ??__Umul8_16:	
   969                           ; 1 bytes @ 0x2
   970                           
   971  0022                     ??_reverse:	
   972                           ; 1 bytes @ 0x2
   973                           
   974  0022                     lcd_goto@pos:	
   975                           ; 1 bytes @ 0x2
   976                           
   977  0022                     lcd_puts@s:	
   978                           ; 1 bytes @ 0x2
   979                           
   980  0022                     ___awdiv@dividend:	
   981                           ; 2 bytes @ 0x2
   982                           
   983  0022                     ___awmod@dividend:	
   984                           ; 2 bytes @ 0x2
   985                           
   986                           
   987                           ; 2 bytes @ 0x2
   988  0022                     	ds	2
   989  0024                     ??_lcd_init:	
   990  0024                     ??_lcd_puts:	
   991                           ; 1 bytes @ 0x4
   992                           
   993  0024                     ??___awdiv:	
   994                           ; 1 bytes @ 0x4
   995                           
   996  0024                     ??___awmod:	
   997                           ; 1 bytes @ 0x4
   998                           
   999  0024                     ??___flneg:	
  1000                           ; 1 bytes @ 0x4
  1001                           
  1002  0024                     ??___xxtofl:	
  1003                           ; 1 bytes @ 0x4
  1004                           
  1005  0024                     ADC_Read@channel:	
  1006                           ; 1 bytes @ 0x4
  1007                           
  1008  0024                     __Umul8_16@product:	
  1009                           ; 1 bytes @ 0x4
  1010                           
  1011  0024                     ___flge@ff2:	
  1012                           ; 2 bytes @ 0x4
  1013                           
  1014                           
  1015                           ; 4 bytes @ 0x4
  1016  0024                     	ds	1
  1017  0025                     ___awdiv@counter:	
  1018  0025                     ___awmod@counter:	
  1019                           ; 1 bytes @ 0x5
  1020                           
  1021  0025                     reverse@temp:	
  1022                           ; 1 bytes @ 0x5
  1023                           
  1024                           
  1025                           ; 2 bytes @ 0x5
  1026  0025                     	ds	1
  1027  0026                     ___awdiv@sign:	
  1028  0026                     ___awmod@sign:	
  1029                           ; 1 bytes @ 0x6
  1030                           
  1031  0026                     __Umul8_16@word_mpld:	
  1032                           ; 1 bytes @ 0x6
  1033                           
  1034                           
  1035                           ; 2 bytes @ 0x6
  1036  0026                     	ds	1
  1037  0027                     reverse@i:	
  1038  0027                     ___awdiv@quotient:	
  1039                           ; 2 bytes @ 0x7
  1040                           
  1041                           
  1042                           ; 2 bytes @ 0x7
  1043  0027                     	ds	1
  1044  0028                     ??___flge:	
  1045  0028                     ___xxtofl@sign:	
  1046                           ; 1 bytes @ 0x8
  1047                           
  1048  0028                     __Umul8_16@multiplier:	
  1049                           ; 1 bytes @ 0x8
  1050                           
  1051                           
  1052                           ; 1 bytes @ 0x8
  1053  0028                     	ds	1
  1054  0029                     ___xxtofl@exp:	
  1055  0029                     reverse@j:	
  1056                           ; 1 bytes @ 0x9
  1057                           
  1058                           
  1059                           ; 2 bytes @ 0x9
  1060  0029                     	ds	1
  1061  002A                     ___xxtofl@arg:	
  1062                           
  1063                           ; 4 bytes @ 0xA
  1064  002A                     	ds	1
  1065  002B                     reverse@str:	
  1066                           
  1067                           ; 1 bytes @ 0xB
  1068  002B                     	ds	3
  1069  002E                     ?___fleq:	
  1070  002E                     ___fleq@ff1:	
  1071                           ; 1 bit 
  1072                           
  1073                           
  1074                           ; 4 bytes @ 0xE
  1075  002E                     	ds	4
  1076  0032                     ___fleq@ff2:	
  1077                           
  1078                           ; 4 bytes @ 0x12
  1079  0032                     	ds	4
  1080  0036                     ??___fleq:	
  1081                           
  1082                           ; 1 bytes @ 0x16
  1083  0036                     	ds	4
  1084  003A                     ?_frexp:	
  1085  003A                     frexp@value:	
  1086                           ; 4 bytes @ 0x1A
  1087                           
  1088                           
  1089                           ; 4 bytes @ 0x1A
  1090  003A                     	ds	4
  1091  003E                     frexp@eptr:	
  1092                           
  1093                           ; 1 bytes @ 0x1E
  1094  003E                     	ds	1
  1095  003F                     ??_frexp:	
  1096                           
  1097                           ; 1 bytes @ 0x1F
  1098  003F                     	ds	2
  1099  0041                     ?___flmul:	
  1100  0041                     ___flmul@b:	
  1101                           ; 4 bytes @ 0x21
  1102                           
  1103                           
  1104                           ; 4 bytes @ 0x21
  1105  0041                     	ds	4
  1106  0045                     ___flmul@a:	
  1107                           
  1108                           ; 4 bytes @ 0x25
  1109  0045                     	ds	4
  1110  0049                     ??___flmul:	
  1111                           
  1112                           ; 1 bytes @ 0x29
  1113  0049                     	ds	5
  1114  004E                     ___flmul@sign:	
  1115                           
  1116                           ; 1 bytes @ 0x2E
  1117  004E                     	ds	1
  1118  004F                     ___flmul@grs:	
  1119                           
  1120                           ; 4 bytes @ 0x2F
  1121  004F                     	ds	4
  1122  0053                     ___flmul@aexp:	
  1123                           
  1124                           ; 1 bytes @ 0x33
  1125  0053                     	ds	1
  1126  0054                     ___flmul@bexp:	
  1127                           
  1128                           ; 1 bytes @ 0x34
  1129  0054                     	ds	1
  1130  0055                     ___flmul@prod:	
  1131                           
  1132                           ; 4 bytes @ 0x35
  1133  0055                     	ds	4
  1134  0059                     ___flmul@temp:	
  1135                           
  1136                           ; 2 bytes @ 0x39
  1137  0059                     	ds	2
  1138  005B                     ?___fldiv:	
  1139  005B                     ___fldiv@a:	
  1140                           ; 4 bytes @ 0x3B
  1141                           
  1142                           
  1143                           ; 4 bytes @ 0x3B
  1144  005B                     	ds	4
  1145  005F                     ___fldiv@b:	
  1146                           
  1147                           ; 4 bytes @ 0x3F
  1148  005F                     	ds	4
  1149  0063                     ??___fldiv:	
  1150                           
  1151                           ; 1 bytes @ 0x43
  1152  0063                     	ds	5
  1153  0068                     ?___fladd:	
  1154  0068                     ___fladd@b:	
  1155                           ; 4 bytes @ 0x48
  1156                           
  1157                           
  1158                           ; 4 bytes @ 0x48
  1159  0068                     	ds	4
  1160  006C                     ___fladd@a:	
  1161                           
  1162                           ; 4 bytes @ 0x4C
  1163  006C                     	ds	4
  1164  0070                     ??___flsub:	
  1165                           
  1166                           	psect	maintext
  1167  001F                     __pmaintext:	
  1168                           ; 1 bytes @ 0x50
  1169 ;;
  1170 ;;Main: autosize = 0, tempsize = 3, incstack = 0, save=0
  1171 ;;
  1172 ;; *************** function _main *****************
  1173 ;; Defined at:
  1174 ;;		line 49 in file "main.c"
  1175 ;; Parameters:    Size  Location     Type
  1176 ;;		None
  1177 ;; Auto vars:     Size  Location     Type
  1178 ;;  voltageLimit    4   62[BANK3 ] float 
  1179 ;;  current_res     4   54[BANK3 ] float 
  1180 ;;  voltage_res     4   40[BANK3 ] float 
  1181 ;;  currentLimit    4   36[BANK3 ] float 
  1182 ;;  OldResult       4    0        float 
  1183 ;;  result          4    0        float 
  1184 ;;  adc_count       2   60[BANK3 ] int 
  1185 ;;  a               2   58[BANK3 ] unsigned int 
  1186 ;;  b               2   52[BANK3 ] unsigned int 
  1187 ;;  _prevCurrent    1   35[BANK3 ] PTR unsigned char 
  1188 ;;		 -> STR_4(5), 
  1189 ;;  _prevVoltage    1   34[BANK3 ] PTR unsigned char 
  1190 ;;		 -> STR_3(5), 
  1191 ;;  current         1   33[BANK3 ] PTR unsigned char 
  1192 ;;		 -> STR_2(5), 
  1193 ;;  voltage         1    0        PTR unsigned char 
  1194 ;;		 -> STR_1(5), 
  1195 ;; Return value:  Size  Location     Type
  1196 ;;                  1    wreg      void 
  1197 ;; Registers used:
  1198 ;;		wreg, fsr0l, fsr0h, status,2, status,0, btemp+1, pclath, cstack
  1199 ;; Tracked objects:
  1200 ;;		On entry : B00/0
  1201 ;;		On exit  : 0/0
  1202 ;;		Unchanged: 0/0
  1203 ;; Data sizes:     COMMON   BANK0   BANK1   BANK3   BANK2
  1204 ;;      Params:         0       0       0       0       0
  1205 ;;      Locals:         0       0       0      34       0
  1206 ;;      Temps:          0       0       0       3       0
  1207 ;;      Totals:         0       0       0      37       0
  1208 ;;Total ram usage:       37 bytes
  1209 ;; Hardware stack levels required when called:    8
  1210 ;; This function calls:
  1211 ;;		_ADC_Init
  1212 ;;		_ADC_Read
  1213 ;;		___fladd
  1214 ;;		___fldiv
  1215 ;;		___flge
  1216 ;;		___flmul
  1217 ;;		___flsub
  1218 ;;		___fltol
  1219 ;;		___xxtofl
  1220 ;;		_ftoa
  1221 ;;		_lcd_clear
  1222 ;;		_lcd_goto
  1223 ;;		_lcd_init
  1224 ;;		_lcd_puts
  1225 ;; This function is called by:
  1226 ;;		Startup code after reset
  1227 ;; This function uses a non-reentrant model
  1228 ;;
  1229                           
  1230                           
  1231                           ;psect for function _main
  1232  001F                     _main:	
  1233  001F                     l3383:	
  1234                           ;incstack = 0
  1235                           ; Regs used in _main: [wreg-fsr0h+status,2+status,0+btemp+1+pclath+cstack]
  1236                           
  1237                           
  1238                           ;main.c: 53:     char *current = "0.00";
  1239  001F  305E               	movlw	(low ((STR_2-__stringbase)| (0+32768)))& (0+255)
  1240  0020  1683               	bsf	3,5	;RP0=1, select bank3
  1241  0021  1703               	bsf	3,6	;RP1=1, select bank3
  1242  0022  00AD               	movwf	??_main^(0+384)
  1243  0023  082D               	movf	??_main^(0+384),w
  1244  0024  00B1               	movwf	main@current^(0+384)
  1245                           
  1246                           ;main.c: 54:     char *_prevVoltage = "00.0";
  1247  0025  3059               	movlw	(low ((STR_1-__stringbase)| (0+32768)))& (0+255)
  1248  0026  00AD               	movwf	??_main^(0+384)
  1249  0027  082D               	movf	??_main^(0+384),w
  1250  0028  00B2               	movwf	main@_prevVoltage^(0+384)
  1251                           
  1252                           ;main.c: 55:     char *_prevCurrent = "0.00";
  1253  0029  305E               	movlw	(low ((STR_2-__stringbase)| (0+32768)))& (0+255)
  1254  002A  00AD               	movwf	??_main^(0+384)
  1255  002B  082D               	movf	??_main^(0+384),w
  1256  002C  00B3               	movwf	main@_prevCurrent^(0+384)
  1257                           
  1258                           ;main.c: 56:     float currentLimit = 0.00;
  1259  002D  3000               	movlw	0
  1260  002E  00B7               	movwf	(main@currentLimit+3)^(0+384)
  1261  002F  3000               	movlw	0
  1262  0030  00B6               	movwf	(main@currentLimit+2)^(0+384)
  1263  0031  3000               	movlw	0
  1264  0032  00B5               	movwf	(main@currentLimit+1)^(0+384)
  1265  0033  3000               	movlw	0
  1266  0034  00B4               	movwf	main@currentLimit^(0+384)
  1267                           
  1268                           ;main.c: 57:     float voltageLimit = 15.2;
  1269  0035  3041               	movlw	65
  1270  0036  00D1               	movwf	(main@voltageLimit+3)^(0+384)
  1271  0037  3073               	movlw	115
  1272  0038  00D0               	movwf	(main@voltageLimit+2)^(0+384)
  1273  0039  3033               	movlw	51
  1274  003A  00CF               	movwf	(main@voltageLimit+1)^(0+384)
  1275  003B  3033               	movlw	51
  1276  003C  00CE               	movwf	main@voltageLimit^(0+384)
  1277                           
  1278                           ;main.c: 60:     static __bit FOutOnOff;;main.c: 61:     unsigned int a, b;;main.c: 62: 
      +                              signed int adc_count;;main.c: 63:     float current_res;;main.c: 64:     float volta
      +                          ge_res;;main.c: 65:     float result;;main.c: 66:     float OldResult;;main.c: 69:     T
      +                          RISA = 0b00011011;
  1279  003D  301B               	movlw	27
  1280  003E  1683               	bsf	3,5	;RP0=1, select bank1
  1281  003F  1303               	bcf	3,6	;RP1=0, select bank1
  1282  0040  0085               	movwf	5	;volatile
  1283                           
  1284                           ;main.c: 70:     TRISB = 0xF0;
  1285  0041  30F0               	movlw	240
  1286  0042  0086               	movwf	6	;volatile
  1287  0043                     l3385:	
  1288                           
  1289                           ;main.c: 71:     TRISC = 0x00;
  1290  0043  0187               	clrf	7	;volatile
  1291  0044                     l3387:	
  1292                           
  1293                           ;main.c: 72:     TRISD = 0x00;
  1294  0044  0188               	clrf	8	;volatile
  1295  0045                     l3389:	
  1296                           
  1297                           ;main.c: 74:     PORTB = 0x00;
  1298  0045  1283               	bcf	3,5	;RP0=0, select bank0
  1299  0046  1303               	bcf	3,6	;RP1=0, select bank0
  1300  0047  0186               	clrf	6	;volatile
  1301  0048                     l3391:	
  1302                           
  1303                           ;main.c: 75:     PORTC = 0x00;
  1304  0048  0187               	clrf	7	;volatile
  1305  0049                     l3393:	
  1306                           
  1307                           ;main.c: 76:     PORTD = 0x00;
  1308  0049  0188               	clrf	8	;volatile
  1309  004A                     l3395:	
  1310                           
  1311                           ;main.c: 78:     nRBPU = 0;
  1312  004A  1683               	bsf	3,5	;RP0=1, select bank1
  1313  004B  1303               	bcf	3,6	;RP1=0, select bank1
  1314  004C  1381               	bcf	1,7	;volatile
  1315  004D                     l3397:	
  1316                           
  1317                           ;main.c: 79:     RBIF = 0;
  1318  004D  100B               	bcf	11,0	;volatile
  1319  004E                     l3399:	
  1320                           
  1321                           ;main.c: 80:     RBIE = 1;
  1322  004E  158B               	bsf	11,3	;volatile
  1323  004F                     l3401:	
  1324                           
  1325                           ;main.c: 81:     GIE = 1;
  1326  004F  178B               	bsf	11,7	;volatile
  1327  0050                     l3403:	
  1328                           
  1329                           ;main.c: 82:     PEIE = 1;
  1330  0050  170B               	bsf	11,6	;volatile
  1331  0051                     l3405:	
  1332                           
  1333                           ;main.c: 87:     lcd_init();
  1334  0051  160A  158A  22E6  120A  118A  	fcall	_lcd_init
  1335  0056                     l3407:	
  1336                           
  1337                           ;main.c: 88:     lcd_clear();
  1338  0056  160A  118A  2005  120A  118A  	fcall	_lcd_clear
  1339  005B                     l3409:	
  1340                           
  1341                           ;main.c: 93:     ADC_Init();
  1342  005B  160A  158A  2126  120A  118A  	fcall	_ADC_Init
  1343  0060                     l3411:	
  1344                           
  1345                           ;main.c: 101:     {;main.c: 104:         if(!RA4)
  1346  0060  1283               	bcf	3,5	;RP0=0, select bank0
  1347  0061  1303               	bcf	3,6	;RP1=0, select bank0
  1348  0062  1A05               	btfsc	5,4	;volatile
  1349  0063  2865               	goto	u4571
  1350  0064  2866               	goto	u4570
  1351  0065                     u4571:	
  1352  0065  2873               	goto	l3419
  1353  0066                     u4570:	
  1354  0066                     l69:	
  1355  0066  1E05               	btfss	5,4	;volatile
  1356  0067  2869               	goto	u4581
  1357  0068  286A               	goto	u4580
  1358  0069                     u4581:	
  1359  0069  2866               	goto	l69
  1360  006A                     u4580:	
  1361  006A                     l3415:	
  1362                           
  1363                           ;main.c: 108:             RA2^=1;
  1364  006A  3004               	movlw	4
  1365  006B  0685               	xorwf	5,f
  1366                           
  1367                           ;main.c: 109:             FOutOnOff ^=1;
  1368  006C  3001               	movlw	(0+1) shl (main@FOutOnOff& (0+7))
  1369  006D  06F9               	xorwf	main@FOutOnOff/(0+8),f
  1370  006E                     l3417:	
  1371                           
  1372                           ;main.c: 110:             lcd_clear();
  1373  006E  160A  118A  2005  120A  118A  	fcall	_lcd_clear
  1374  0073                     l3419:	
  1375                           
  1376                           ;main.c: 114:         if(count > 4095) count = 0;
  1377  0073  1683               	bsf	3,5	;RP0=1, select bank3
  1378  0074  1703               	bsf	3,6	;RP1=1, select bank3
  1379  0075  0855               	movf	(_count+1)^(0+384),w
  1380  0076  3A80               	xorlw	128
  1381  0077  00FF               	movwf	btemp+1
  1382  0078  3090               	movlw	144
  1383  0079  027F               	subwf	btemp+1,w
  1384  007A  1D03               	skipz
  1385  007B  287E               	goto	u4595
  1386  007C  3000               	movlw	0
  1387  007D  0254               	subwf	_count^(0+384),w
  1388  007E                     u4595:	
  1389  007E  1C03               	skipc
  1390  007F  2881               	goto	u4591
  1391  0080  2882               	goto	u4590
  1392  0081                     u4591:	
  1393  0081  2886               	goto	l3423
  1394  0082                     u4590:	
  1395  0082                     l3421:	
  1396  0082  1683               	bsf	3,5	;RP0=1, select bank3
  1397  0083  1703               	bsf	3,6	;RP1=1, select bank3
  1398  0084  01D4               	clrf	_count^(0+384)
  1399  0085  01D5               	clrf	(_count+1)^(0+384)
  1400  0086                     l3423:	
  1401                           
  1402                           ;main.c: 115:         if(count < 0) count = 4095;
  1403  0086  1683               	bsf	3,5	;RP0=1, select bank3
  1404  0087  1703               	bsf	3,6	;RP1=1, select bank3
  1405  0088  1FD5               	btfss	(_count+1)^(0+384),7
  1406  0089  288B               	goto	u4601
  1407  008A  288C               	goto	u4600
  1408  008B                     u4601:	
  1409  008B  2890               	goto	l73
  1410  008C                     u4600:	
  1411  008C                     l3425:	
  1412  008C  30FF               	movlw	255
  1413  008D  00D4               	movwf	_count^(0+384)
  1414  008E  300F               	movlw	15
  1415  008F  00D5               	movwf	(_count^(0+384)+1)
  1416  0090                     l73:	
  1417                           
  1418                           ;main.c: 119:             PORTD = adc_count;
  1419  0090  084C               	movf	main@adc_count^(0+384),w
  1420  0091  1283               	bcf	3,5	;RP0=0, select bank0
  1421  0092  1303               	bcf	3,6	;RP1=0, select bank0
  1422  0093  0088               	movwf	8	;volatile
  1423  0094                     l3427:	
  1424                           
  1425                           ;main.c: 120:             PORTC = (adc_count>>8)&0x0F;
  1426  0094  1683               	bsf	3,5	;RP0=1, select bank3
  1427  0095  1703               	bsf	3,6	;RP1=1, select bank3
  1428  0096  084D               	movf	(main@adc_count+1)^(0+384),w
  1429  0097  390F               	andlw	15
  1430  0098  1283               	bcf	3,5	;RP0=0, select bank0
  1431  0099  1303               	bcf	3,6	;RP1=0, select bank0
  1432  009A  0087               	movwf	7	;volatile
  1433  009B                     l3429:	
  1434                           
  1435                           ;main.c: 132:         a = ADC_Read(1);
  1436  009B  3001               	movlw	1
  1437  009C  160A  158A  21C0  120A  118A  	fcall	_ADC_Read
  1438  00A1  1283               	bcf	3,5	;RP0=0, select bank0
  1439  00A2  1303               	bcf	3,6	;RP1=0, select bank0
  1440  00A3  0821               	movf	?_ADC_Read+1,w
  1441  00A4  1683               	bsf	3,5	;RP0=1, select bank3
  1442  00A5  1703               	bsf	3,6	;RP1=1, select bank3
  1443  00A6  00CB               	movwf	(main@a+1)^(0+384)
  1444  00A7  1283               	bcf	3,5	;RP0=0, select bank0
  1445  00A8  1303               	bcf	3,6	;RP1=0, select bank0
  1446  00A9  0820               	movf	?_ADC_Read,w
  1447  00AA  1683               	bsf	3,5	;RP0=1, select bank3
  1448  00AB  1703               	bsf	3,6	;RP1=1, select bank3
  1449  00AC  00CA               	movwf	main@a^(0+384)
  1450  00AD                     l3431:	
  1451                           
  1452                           ;main.c: 133:         current_res = a*0.0048875;
  1453  00AD  303B               	movlw	59
  1454  00AE  1283               	bcf	3,5	;RP0=0, select bank0
  1455  00AF  1303               	bcf	3,6	;RP1=0, select bank0
  1456  00B0  00C4               	movwf	___flmul@b+3
  1457  00B1  30A0               	movlw	160
  1458  00B2  00C3               	movwf	___flmul@b+2
  1459  00B3  3027               	movlw	39
  1460  00B4  00C2               	movwf	___flmul@b+1
  1461  00B5  3052               	movlw	82
  1462  00B6  00C1               	movwf	___flmul@b
  1463  00B7  1683               	bsf	3,5	;RP0=1, select bank3
  1464  00B8  1703               	bsf	3,6	;RP1=1, select bank3
  1465  00B9  084A               	movf	main@a^(0+384),w
  1466  00BA  1283               	bcf	3,5	;RP0=0, select bank0
  1467  00BB  1303               	bcf	3,6	;RP1=0, select bank0
  1468  00BC  00A0               	movwf	___xxtofl@val
  1469  00BD  1683               	bsf	3,5	;RP0=1, select bank3
  1470  00BE  1703               	bsf	3,6	;RP1=1, select bank3
  1471  00BF  084B               	movf	(main@a+1)^(0+384),w
  1472  00C0  1283               	bcf	3,5	;RP0=0, select bank0
  1473  00C1  1303               	bcf	3,6	;RP1=0, select bank0
  1474  00C2  00A1               	movwf	___xxtofl@val+1
  1475  00C3  01A2               	clrf	___xxtofl@val+2
  1476  00C4  01A3               	clrf	___xxtofl@val+3
  1477  00C5  3000               	movlw	0
  1478  00C6  160A  158A  259C  120A  118A  	fcall	___xxtofl
  1479  00CB  1283               	bcf	3,5	;RP0=0, select bank0
  1480  00CC  1303               	bcf	3,6	;RP1=0, select bank0
  1481  00CD  0823               	movf	?___xxtofl+3,w
  1482  00CE  00C8               	movwf	___flmul@a+3
  1483  00CF  0822               	movf	?___xxtofl+2,w
  1484  00D0  00C7               	movwf	___flmul@a+2
  1485  00D1  0821               	movf	?___xxtofl+1,w
  1486  00D2  00C6               	movwf	___flmul@a+1
  1487  00D3  0820               	movf	?___xxtofl,w
  1488  00D4  00C5               	movwf	___flmul@a
  1489  00D5  120A  118A  2495  120A  118A  	fcall	___flmul
  1490  00DA  1283               	bcf	3,5	;RP0=0, select bank0
  1491  00DB  1303               	bcf	3,6	;RP1=0, select bank0
  1492  00DC  0844               	movf	?___flmul+3,w
  1493  00DD  1683               	bsf	3,5	;RP0=1, select bank3
  1494  00DE  1703               	bsf	3,6	;RP1=1, select bank3
  1495  00DF  00C9               	movwf	(main@current_res+3)^(0+384)
  1496  00E0  1283               	bcf	3,5	;RP0=0, select bank0
  1497  00E1  1303               	bcf	3,6	;RP1=0, select bank0
  1498  00E2  0843               	movf	?___flmul+2,w
  1499  00E3  1683               	bsf	3,5	;RP0=1, select bank3
  1500  00E4  1703               	bsf	3,6	;RP1=1, select bank3
  1501  00E5  00C8               	movwf	(main@current_res+2)^(0+384)
  1502  00E6  1283               	bcf	3,5	;RP0=0, select bank0
  1503  00E7  1303               	bcf	3,6	;RP1=0, select bank0
  1504  00E8  0842               	movf	?___flmul+1,w
  1505  00E9  1683               	bsf	3,5	;RP0=1, select bank3
  1506  00EA  1703               	bsf	3,6	;RP1=1, select bank3
  1507  00EB  00C7               	movwf	(main@current_res+1)^(0+384)
  1508  00EC  1283               	bcf	3,5	;RP0=0, select bank0
  1509  00ED  1303               	bcf	3,6	;RP1=0, select bank0
  1510  00EE  0841               	movf	?___flmul,w
  1511  00EF  1683               	bsf	3,5	;RP0=1, select bank3
  1512  00F0  1703               	bsf	3,6	;RP1=1, select bank3
  1513  00F1  00C6               	movwf	main@current_res^(0+384)
  1514  00F2                     l3433:	
  1515                           
  1516                           ;main.c: 134:         ftoa(current_res*10,temp,2);
  1517  00F2  3041               	movlw	65
  1518  00F3  1283               	bcf	3,5	;RP0=0, select bank0
  1519  00F4  1303               	bcf	3,6	;RP1=0, select bank0
  1520  00F5  00C4               	movwf	___flmul@b+3
  1521  00F6  3020               	movlw	32
  1522  00F7  00C3               	movwf	___flmul@b+2
  1523  00F8  3000               	movlw	0
  1524  00F9  00C2               	movwf	___flmul@b+1
  1525  00FA  3000               	movlw	0
  1526  00FB  00C1               	movwf	___flmul@b
  1527  00FC  1683               	bsf	3,5	;RP0=1, select bank3
  1528  00FD  1703               	bsf	3,6	;RP1=1, select bank3
  1529  00FE  0849               	movf	(main@current_res+3)^(0+384),w
  1530  00FF  1283               	bcf	3,5	;RP0=0, select bank0
  1531  0100  1303               	bcf	3,6	;RP1=0, select bank0
  1532  0101  00C8               	movwf	___flmul@a+3
  1533  0102  1683               	bsf	3,5	;RP0=1, select bank3
  1534  0103  1703               	bsf	3,6	;RP1=1, select bank3
  1535  0104  0848               	movf	(main@current_res+2)^(0+384),w
  1536  0105  1283               	bcf	3,5	;RP0=0, select bank0
  1537  0106  1303               	bcf	3,6	;RP1=0, select bank0
  1538  0107  00C7               	movwf	___flmul@a+2
  1539  0108  1683               	bsf	3,5	;RP0=1, select bank3
  1540  0109  1703               	bsf	3,6	;RP1=1, select bank3
  1541  010A  0847               	movf	(main@current_res+1)^(0+384),w
  1542  010B  1283               	bcf	3,5	;RP0=0, select bank0
  1543  010C  1303               	bcf	3,6	;RP1=0, select bank0
  1544  010D  00C6               	movwf	___flmul@a+1
  1545  010E  1683               	bsf	3,5	;RP0=1, select bank3
  1546  010F  1703               	bsf	3,6	;RP1=1, select bank3
  1547  0110  0846               	movf	main@current_res^(0+384),w
  1548  0111  1283               	bcf	3,5	;RP0=0, select bank0
  1549  0112  1303               	bcf	3,6	;RP1=0, select bank0
  1550  0113  00C5               	movwf	___flmul@a
  1551  0114  120A  118A  2495  120A  118A  	fcall	___flmul
  1552  0119  1283               	bcf	3,5	;RP0=0, select bank0
  1553  011A  1303               	bcf	3,6	;RP1=0, select bank0
  1554  011B  0844               	movf	?___flmul+3,w
  1555  011C  1683               	bsf	3,5	;RP0=1, select bank3
  1556  011D  1703               	bsf	3,6	;RP1=1, select bank3
  1557  011E  00BF               	movwf	(_main$928+3)^(0+384)
  1558  011F  1283               	bcf	3,5	;RP0=0, select bank0
  1559  0120  1303               	bcf	3,6	;RP1=0, select bank0
  1560  0121  0843               	movf	?___flmul+2,w
  1561  0122  1683               	bsf	3,5	;RP0=1, select bank3
  1562  0123  1703               	bsf	3,6	;RP1=1, select bank3
  1563  0124  00BE               	movwf	(_main$928+2)^(0+384)
  1564  0125  1283               	bcf	3,5	;RP0=0, select bank0
  1565  0126  1303               	bcf	3,6	;RP1=0, select bank0
  1566  0127  0842               	movf	?___flmul+1,w
  1567  0128  1683               	bsf	3,5	;RP0=1, select bank3
  1568  0129  1703               	bsf	3,6	;RP1=1, select bank3
  1569  012A  00BD               	movwf	(_main$928+1)^(0+384)
  1570  012B  1283               	bcf	3,5	;RP0=0, select bank0
  1571  012C  1303               	bcf	3,6	;RP1=0, select bank0
  1572  012D  0841               	movf	?___flmul,w
  1573  012E  1683               	bsf	3,5	;RP0=1, select bank3
  1574  012F  1703               	bsf	3,6	;RP1=1, select bank3
  1575  0130  00BC               	movwf	_main$928^(0+384)
  1576  0131                     l3435:	
  1577                           
  1578                           ;main.c: 134:         ftoa(current_res*10,temp,2);
  1579  0131  083F               	movf	(_main$928+3)^(0+384),w
  1580  0132  1683               	bsf	3,5	;RP0=1, select bank1
  1581  0133  1303               	bcf	3,6	;RP1=0, select bank1
  1582  0134  00E9               	movwf	(ftoa@n+3)^(0+128)
  1583  0135  1683               	bsf	3,5	;RP0=1, select bank3
  1584  0136  1703               	bsf	3,6	;RP1=1, select bank3
  1585  0137  083E               	movf	(_main$928+2)^(0+384),w
  1586  0138  1683               	bsf	3,5	;RP0=1, select bank1
  1587  0139  1303               	bcf	3,6	;RP1=0, select bank1
  1588  013A  00E8               	movwf	(ftoa@n+2)^(0+128)
  1589  013B  1683               	bsf	3,5	;RP0=1, select bank3
  1590  013C  1703               	bsf	3,6	;RP1=1, select bank3
  1591  013D  083D               	movf	(_main$928+1)^(0+384),w
  1592  013E  1683               	bsf	3,5	;RP0=1, select bank1
  1593  013F  1303               	bcf	3,6	;RP1=0, select bank1
  1594  0140  00E7               	movwf	(ftoa@n+1)^(0+128)
  1595  0141  1683               	bsf	3,5	;RP0=1, select bank3
  1596  0142  1703               	bsf	3,6	;RP1=1, select bank3
  1597  0143  083C               	movf	_main$928^(0+384),w
  1598  0144  1683               	bsf	3,5	;RP0=1, select bank1
  1599  0145  1303               	bcf	3,6	;RP1=0, select bank1
  1600  0146  00E6               	movwf	ftoa@n^(0+128)
  1601  0147  30D6               	movlw	(low (_temp| (0+256)))& (0+255)
  1602  0148  1683               	bsf	3,5	;RP0=1, select bank3
  1603  0149  1703               	bsf	3,6	;RP1=1, select bank3
  1604  014A  00AD               	movwf	??_main^(0+384)
  1605  014B  082D               	movf	??_main^(0+384),w
  1606  014C  1683               	bsf	3,5	;RP0=1, select bank1
  1607  014D  1303               	bcf	3,6	;RP1=0, select bank1
  1608  014E  00EA               	movwf	ftoa@res^(0+128)
  1609  014F  3002               	movlw	2
  1610  0150  00EB               	movwf	ftoa@afterpoint^(0+128)
  1611  0151  3000               	movlw	0
  1612  0152  00EC               	movwf	(ftoa@afterpoint^(0+128)+1)
  1613  0153  120A  158A  204E  120A  118A  	fcall	_ftoa
  1614  0158                     l3437:	
  1615                           
  1616                           ;main.c: 136:         lcd_goto(0x40);
  1617  0158  3040               	movlw	64
  1618  0159  120A  158A  2000  120A  118A  	fcall	_lcd_goto
  1619  015E                     l3439:	
  1620                           
  1621                           ;main.c: 137:         lcd_puts(temp);
  1622  015E  30D6               	movlw	(low (_temp| (0+256)))& (0+255)
  1623  015F  1283               	bcf	3,5	;RP0=0, select bank0
  1624  0160  1303               	bcf	3,6	;RP1=0, select bank0
  1625  0161  00A2               	movwf	lcd_puts@s
  1626  0162  3001               	movlw	1
  1627  0163  00A3               	movwf	lcd_puts@s+1
  1628  0164  160A  158A  2197  120A  118A  	fcall	_lcd_puts
  1629  0169                     l3441:	
  1630                           
  1631                           ;main.c: 139:         lcd_puts("[A]  ");
  1632  0169  304D               	movlw	(low ((STR_5-__stringbase)| (0+32768)))& (0+255)
  1633  016A  1283               	bcf	3,5	;RP0=0, select bank0
  1634  016B  1303               	bcf	3,6	;RP1=0, select bank0
  1635  016C  00A2               	movwf	lcd_puts@s
  1636  016D  3080               	movlw	128
  1637  016E  00A3               	movwf	lcd_puts@s+1
  1638  016F  160A  158A  2197  120A  118A  	fcall	_lcd_puts
  1639  0174                     l3443:	
  1640                           
  1641                           ;main.c: 140:         ftoa(currentLimit,temp,2);
  1642  0174  1683               	bsf	3,5	;RP0=1, select bank3
  1643  0175  1703               	bsf	3,6	;RP1=1, select bank3
  1644  0176  0837               	movf	(main@currentLimit+3)^(0+384),w
  1645  0177  1683               	bsf	3,5	;RP0=1, select bank1
  1646  0178  1303               	bcf	3,6	;RP1=0, select bank1
  1647  0179  00E9               	movwf	(ftoa@n+3)^(0+128)
  1648  017A  1683               	bsf	3,5	;RP0=1, select bank3
  1649  017B  1703               	bsf	3,6	;RP1=1, select bank3
  1650  017C  0836               	movf	(main@currentLimit+2)^(0+384),w
  1651  017D  1683               	bsf	3,5	;RP0=1, select bank1
  1652  017E  1303               	bcf	3,6	;RP1=0, select bank1
  1653  017F  00E8               	movwf	(ftoa@n+2)^(0+128)
  1654  0180  1683               	bsf	3,5	;RP0=1, select bank3
  1655  0181  1703               	bsf	3,6	;RP1=1, select bank3
  1656  0182  0835               	movf	(main@currentLimit+1)^(0+384),w
  1657  0183  1683               	bsf	3,5	;RP0=1, select bank1
  1658  0184  1303               	bcf	3,6	;RP1=0, select bank1
  1659  0185  00E7               	movwf	(ftoa@n+1)^(0+128)
  1660  0186  1683               	bsf	3,5	;RP0=1, select bank3
  1661  0187  1703               	bsf	3,6	;RP1=1, select bank3
  1662  0188  0834               	movf	main@currentLimit^(0+384),w
  1663  0189  1683               	bsf	3,5	;RP0=1, select bank1
  1664  018A  1303               	bcf	3,6	;RP1=0, select bank1
  1665  018B  00E6               	movwf	ftoa@n^(0+128)
  1666  018C  30D6               	movlw	(low (_temp| (0+256)))& (0+255)
  1667  018D  1683               	bsf	3,5	;RP0=1, select bank3
  1668  018E  1703               	bsf	3,6	;RP1=1, select bank3
  1669  018F  00AD               	movwf	??_main^(0+384)
  1670  0190  082D               	movf	??_main^(0+384),w
  1671  0191  1683               	bsf	3,5	;RP0=1, select bank1
  1672  0192  1303               	bcf	3,6	;RP1=0, select bank1
  1673  0193  00EA               	movwf	ftoa@res^(0+128)
  1674  0194  3002               	movlw	2
  1675  0195  00EB               	movwf	ftoa@afterpoint^(0+128)
  1676  0196  3000               	movlw	0
  1677  0197  00EC               	movwf	(ftoa@afterpoint^(0+128)+1)
  1678  0198  120A  158A  204E  120A  118A  	fcall	_ftoa
  1679  019D                     l3445:	
  1680                           
  1681                           ;main.c: 141:         lcd_goto(0x49);
  1682  019D  3049               	movlw	73
  1683  019E  120A  158A  2000  120A  118A  	fcall	_lcd_goto
  1684  01A3                     l3447:	
  1685                           
  1686                           ;main.c: 142:         lcd_puts("[");
  1687  01A3  3063               	movlw	(low ((STR_6-__stringbase)| (0+32768)))& (0+255)
  1688  01A4  1283               	bcf	3,5	;RP0=0, select bank0
  1689  01A5  1303               	bcf	3,6	;RP1=0, select bank0
  1690  01A6  00A2               	movwf	lcd_puts@s
  1691  01A7  3080               	movlw	128
  1692  01A8  00A3               	movwf	lcd_puts@s+1
  1693  01A9  160A  158A  2197  120A  118A  	fcall	_lcd_puts
  1694  01AE                     l3449:	
  1695                           
  1696                           ;main.c: 143:         lcd_puts(temp);
  1697  01AE  30D6               	movlw	(low (_temp| (0+256)))& (0+255)
  1698  01AF  1283               	bcf	3,5	;RP0=0, select bank0
  1699  01B0  1303               	bcf	3,6	;RP1=0, select bank0
  1700  01B1  00A2               	movwf	lcd_puts@s
  1701  01B2  3001               	movlw	1
  1702  01B3  00A3               	movwf	lcd_puts@s+1
  1703  01B4  160A  158A  2197  120A  118A  	fcall	_lcd_puts
  1704  01B9                     l3451:	
  1705                           
  1706                           ;main.c: 144:         lcd_puts("]");
  1707  01B9  3065               	movlw	(low ((STR_7-__stringbase)| (0+32768)))& (0+255)
  1708  01BA  1283               	bcf	3,5	;RP0=0, select bank0
  1709  01BB  1303               	bcf	3,6	;RP1=0, select bank0
  1710  01BC  00A2               	movwf	lcd_puts@s
  1711  01BD  3080               	movlw	128
  1712  01BE  00A3               	movwf	lcd_puts@s+1
  1713  01BF  160A  158A  2197  120A  118A  	fcall	_lcd_puts
  1714  01C4                     l3453:	
  1715                           
  1716                           ;main.c: 148:         b = ADC_Read(0);
  1717  01C4  3000               	movlw	0
  1718  01C5  160A  158A  21C0  120A  118A  	fcall	_ADC_Read
  1719  01CA  1283               	bcf	3,5	;RP0=0, select bank0
  1720  01CB  1303               	bcf	3,6	;RP1=0, select bank0
  1721  01CC  0821               	movf	?_ADC_Read+1,w
  1722  01CD  1683               	bsf	3,5	;RP0=1, select bank3
  1723  01CE  1703               	bsf	3,6	;RP1=1, select bank3
  1724  01CF  00C5               	movwf	(main@b+1)^(0+384)
  1725  01D0  1283               	bcf	3,5	;RP0=0, select bank0
  1726  01D1  1303               	bcf	3,6	;RP1=0, select bank0
  1727  01D2  0820               	movf	?_ADC_Read,w
  1728  01D3  1683               	bsf	3,5	;RP0=1, select bank3
  1729  01D4  1703               	bsf	3,6	;RP1=1, select bank3
  1730  01D5  00C4               	movwf	main@b^(0+384)
  1731  01D6                     l3455:	
  1732                           
  1733                           ;main.c: 149:         voltage_res = b*0.029768;
  1734  01D6  303C               	movlw	60
  1735  01D7  1283               	bcf	3,5	;RP0=0, select bank0
  1736  01D8  1303               	bcf	3,6	;RP1=0, select bank0
  1737  01D9  00C4               	movwf	___flmul@b+3
  1738  01DA  30F3               	movlw	243
  1739  01DB  00C3               	movwf	___flmul@b+2
  1740  01DC  30DC               	movlw	220
  1741  01DD  00C2               	movwf	___flmul@b+1
  1742  01DE  3005               	movlw	5
  1743  01DF  00C1               	movwf	___flmul@b
  1744  01E0  1683               	bsf	3,5	;RP0=1, select bank3
  1745  01E1  1703               	bsf	3,6	;RP1=1, select bank3
  1746  01E2  0844               	movf	main@b^(0+384),w
  1747  01E3  1283               	bcf	3,5	;RP0=0, select bank0
  1748  01E4  1303               	bcf	3,6	;RP1=0, select bank0
  1749  01E5  00A0               	movwf	___xxtofl@val
  1750  01E6  1683               	bsf	3,5	;RP0=1, select bank3
  1751  01E7  1703               	bsf	3,6	;RP1=1, select bank3
  1752  01E8  0845               	movf	(main@b+1)^(0+384),w
  1753  01E9  1283               	bcf	3,5	;RP0=0, select bank0
  1754  01EA  1303               	bcf	3,6	;RP1=0, select bank0
  1755  01EB  00A1               	movwf	___xxtofl@val+1
  1756  01EC  01A2               	clrf	___xxtofl@val+2
  1757  01ED  01A3               	clrf	___xxtofl@val+3
  1758  01EE  3000               	movlw	0
  1759  01EF  160A  158A  259C  120A  118A  	fcall	___xxtofl
  1760  01F4  1283               	bcf	3,5	;RP0=0, select bank0
  1761  01F5  1303               	bcf	3,6	;RP1=0, select bank0
  1762  01F6  0823               	movf	?___xxtofl+3,w
  1763  01F7  00C8               	movwf	___flmul@a+3
  1764  01F8  0822               	movf	?___xxtofl+2,w
  1765  01F9  00C7               	movwf	___flmul@a+2
  1766  01FA  0821               	movf	?___xxtofl+1,w
  1767  01FB  00C6               	movwf	___flmul@a+1
  1768  01FC  0820               	movf	?___xxtofl,w
  1769  01FD  00C5               	movwf	___flmul@a
  1770  01FE  120A  118A  2495  120A  118A  	fcall	___flmul
  1771  0203  1283               	bcf	3,5	;RP0=0, select bank0
  1772  0204  1303               	bcf	3,6	;RP1=0, select bank0
  1773  0205  0844               	movf	?___flmul+3,w
  1774  0206  1683               	bsf	3,5	;RP0=1, select bank3
  1775  0207  1703               	bsf	3,6	;RP1=1, select bank3
  1776  0208  00BB               	movwf	(main@voltage_res+3)^(0+384)
  1777  0209  1283               	bcf	3,5	;RP0=0, select bank0
  1778  020A  1303               	bcf	3,6	;RP1=0, select bank0
  1779  020B  0843               	movf	?___flmul+2,w
  1780  020C  1683               	bsf	3,5	;RP0=1, select bank3
  1781  020D  1703               	bsf	3,6	;RP1=1, select bank3
  1782  020E  00BA               	movwf	(main@voltage_res+2)^(0+384)
  1783  020F  1283               	bcf	3,5	;RP0=0, select bank0
  1784  0210  1303               	bcf	3,6	;RP1=0, select bank0
  1785  0211  0842               	movf	?___flmul+1,w
  1786  0212  1683               	bsf	3,5	;RP0=1, select bank3
  1787  0213  1703               	bsf	3,6	;RP1=1, select bank3
  1788  0214  00B9               	movwf	(main@voltage_res+1)^(0+384)
  1789  0215  1283               	bcf	3,5	;RP0=0, select bank0
  1790  0216  1303               	bcf	3,6	;RP1=0, select bank0
  1791  0217  0841               	movf	?___flmul,w
  1792  0218  1683               	bsf	3,5	;RP0=1, select bank3
  1793  0219  1703               	bsf	3,6	;RP1=1, select bank3
  1794  021A  00B8               	movwf	main@voltage_res^(0+384)
  1795  021B                     l3457:	
  1796                           
  1797                           ;main.c: 150:         ftoa(voltage_res-current_res,temp,1);
  1798  021B  0849               	movf	(main@current_res+3)^(0+384),w
  1799  021C  1683               	bsf	3,5	;RP0=1, select bank1
  1800  021D  1303               	bcf	3,6	;RP1=0, select bank1
  1801  021E  00BC               	movwf	(___flsub@a+3)^(0+128)
  1802  021F  1683               	bsf	3,5	;RP0=1, select bank3
  1803  0220  1703               	bsf	3,6	;RP1=1, select bank3
  1804  0221  0848               	movf	(main@current_res+2)^(0+384),w
  1805  0222  1683               	bsf	3,5	;RP0=1, select bank1
  1806  0223  1303               	bcf	3,6	;RP1=0, select bank1
  1807  0224  00BB               	movwf	(___flsub@a+2)^(0+128)
  1808  0225  1683               	bsf	3,5	;RP0=1, select bank3
  1809  0226  1703               	bsf	3,6	;RP1=1, select bank3
  1810  0227  0847               	movf	(main@current_res+1)^(0+384),w
  1811  0228  1683               	bsf	3,5	;RP0=1, select bank1
  1812  0229  1303               	bcf	3,6	;RP1=0, select bank1
  1813  022A  00BA               	movwf	(___flsub@a+1)^(0+128)
  1814  022B  1683               	bsf	3,5	;RP0=1, select bank3
  1815  022C  1703               	bsf	3,6	;RP1=1, select bank3
  1816  022D  0846               	movf	main@current_res^(0+384),w
  1817  022E  1683               	bsf	3,5	;RP0=1, select bank1
  1818  022F  1303               	bcf	3,6	;RP1=0, select bank1
  1819  0230  00B9               	movwf	___flsub@a^(0+128)
  1820  0231  1683               	bsf	3,5	;RP0=1, select bank3
  1821  0232  1703               	bsf	3,6	;RP1=1, select bank3
  1822  0233  083B               	movf	(main@voltage_res+3)^(0+384),w
  1823  0234  1683               	bsf	3,5	;RP0=1, select bank1
  1824  0235  1303               	bcf	3,6	;RP1=0, select bank1
  1825  0236  00C0               	movwf	(___flsub@b+3)^(0+128)
  1826  0237  1683               	bsf	3,5	;RP0=1, select bank3
  1827  0238  1703               	bsf	3,6	;RP1=1, select bank3
  1828  0239  083A               	movf	(main@voltage_res+2)^(0+384),w
  1829  023A  1683               	bsf	3,5	;RP0=1, select bank1
  1830  023B  1303               	bcf	3,6	;RP1=0, select bank1
  1831  023C  00BF               	movwf	(___flsub@b+2)^(0+128)
  1832  023D  1683               	bsf	3,5	;RP0=1, select bank3
  1833  023E  1703               	bsf	3,6	;RP1=1, select bank3
  1834  023F  0839               	movf	(main@voltage_res+1)^(0+384),w
  1835  0240  1683               	bsf	3,5	;RP0=1, select bank1
  1836  0241  1303               	bcf	3,6	;RP1=0, select bank1
  1837  0242  00BE               	movwf	(___flsub@b+1)^(0+128)
  1838  0243  1683               	bsf	3,5	;RP0=1, select bank3
  1839  0244  1703               	bsf	3,6	;RP1=1, select bank3
  1840  0245  0838               	movf	main@voltage_res^(0+384),w
  1841  0246  1683               	bsf	3,5	;RP0=1, select bank1
  1842  0247  1303               	bcf	3,6	;RP1=0, select bank1
  1843  0248  00BD               	movwf	___flsub@b^(0+128)
  1844  0249  160A  158A  2246  120A  118A  	fcall	___flsub
  1845  024E  1683               	bsf	3,5	;RP0=1, select bank1
  1846  024F  1303               	bcf	3,6	;RP1=0, select bank1
  1847  0250  083C               	movf	(?___flsub+3)^(0+128),w
  1848  0251  1683               	bsf	3,5	;RP0=1, select bank3
  1849  0252  1703               	bsf	3,6	;RP1=1, select bank3
  1850  0253  00C3               	movwf	(_main$929+3)^(0+384)
  1851  0254  1683               	bsf	3,5	;RP0=1, select bank1
  1852  0255  1303               	bcf	3,6	;RP1=0, select bank1
  1853  0256  083B               	movf	(?___flsub+2)^(0+128),w
  1854  0257  1683               	bsf	3,5	;RP0=1, select bank3
  1855  0258  1703               	bsf	3,6	;RP1=1, select bank3
  1856  0259  00C2               	movwf	(_main$929+2)^(0+384)
  1857  025A  1683               	bsf	3,5	;RP0=1, select bank1
  1858  025B  1303               	bcf	3,6	;RP1=0, select bank1
  1859  025C  083A               	movf	(?___flsub+1)^(0+128),w
  1860  025D  1683               	bsf	3,5	;RP0=1, select bank3
  1861  025E  1703               	bsf	3,6	;RP1=1, select bank3
  1862  025F  00C1               	movwf	(_main$929+1)^(0+384)
  1863  0260  1683               	bsf	3,5	;RP0=1, select bank1
  1864  0261  1303               	bcf	3,6	;RP1=0, select bank1
  1865  0262  0839               	movf	?___flsub^(0+128),w
  1866  0263  1683               	bsf	3,5	;RP0=1, select bank3
  1867  0264  1703               	bsf	3,6	;RP1=1, select bank3
  1868  0265  00C0               	movwf	_main$929^(0+384)
  1869  0266                     l3459:	
  1870                           
  1871                           ;main.c: 150:         ftoa(voltage_res-current_res,temp,1);
  1872  0266  0843               	movf	(_main$929+3)^(0+384),w
  1873  0267  1683               	bsf	3,5	;RP0=1, select bank1
  1874  0268  1303               	bcf	3,6	;RP1=0, select bank1
  1875  0269  00E9               	movwf	(ftoa@n+3)^(0+128)
  1876  026A  1683               	bsf	3,5	;RP0=1, select bank3
  1877  026B  1703               	bsf	3,6	;RP1=1, select bank3
  1878  026C  0842               	movf	(_main$929+2)^(0+384),w
  1879  026D  1683               	bsf	3,5	;RP0=1, select bank1
  1880  026E  1303               	bcf	3,6	;RP1=0, select bank1
  1881  026F  00E8               	movwf	(ftoa@n+2)^(0+128)
  1882  0270  1683               	bsf	3,5	;RP0=1, select bank3
  1883  0271  1703               	bsf	3,6	;RP1=1, select bank3
  1884  0272  0841               	movf	(_main$929+1)^(0+384),w
  1885  0273  1683               	bsf	3,5	;RP0=1, select bank1
  1886  0274  1303               	bcf	3,6	;RP1=0, select bank1
  1887  0275  00E7               	movwf	(ftoa@n+1)^(0+128)
  1888  0276  1683               	bsf	3,5	;RP0=1, select bank3
  1889  0277  1703               	bsf	3,6	;RP1=1, select bank3
  1890  0278  0840               	movf	_main$929^(0+384),w
  1891  0279  1683               	bsf	3,5	;RP0=1, select bank1
  1892  027A  1303               	bcf	3,6	;RP1=0, select bank1
  1893  027B  00E6               	movwf	ftoa@n^(0+128)
  1894  027C  30D6               	movlw	(low (_temp| (0+256)))& (0+255)
  1895  027D  1683               	bsf	3,5	;RP0=1, select bank3
  1896  027E  1703               	bsf	3,6	;RP1=1, select bank3
  1897  027F  00AD               	movwf	??_main^(0+384)
  1898  0280  082D               	movf	??_main^(0+384),w
  1899  0281  1683               	bsf	3,5	;RP0=1, select bank1
  1900  0282  1303               	bcf	3,6	;RP1=0, select bank1
  1901  0283  00EA               	movwf	ftoa@res^(0+128)
  1902  0284  3001               	movlw	1
  1903  0285  00EB               	movwf	ftoa@afterpoint^(0+128)
  1904  0286  3000               	movlw	0
  1905  0287  00EC               	movwf	(ftoa@afterpoint^(0+128)+1)
  1906  0288  120A  158A  204E  120A  118A  	fcall	_ftoa
  1907  028D                     l3461:	
  1908                           
  1909                           ;main.c: 152:         lcd_goto(0x0);
  1910  028D  3000               	movlw	0
  1911  028E  120A  158A  2000  120A  118A  	fcall	_lcd_goto
  1912  0293                     l3463:	
  1913                           
  1914                           ;main.c: 153:         lcd_puts(temp);
  1915  0293  30D6               	movlw	(low (_temp| (0+256)))& (0+255)
  1916  0294  1283               	bcf	3,5	;RP0=0, select bank0
  1917  0295  1303               	bcf	3,6	;RP1=0, select bank0
  1918  0296  00A2               	movwf	lcd_puts@s
  1919  0297  3001               	movlw	1
  1920  0298  00A3               	movwf	lcd_puts@s+1
  1921  0299  160A  158A  2197  120A  118A  	fcall	_lcd_puts
  1922  029E                     l3465:	
  1923                           
  1924                           ;main.c: 155:         lcd_puts("[V]  ");
  1925  029E  3053               	movlw	(low ((STR_8-__stringbase)| (0+32768)))& (0+255)
  1926  029F  1283               	bcf	3,5	;RP0=0, select bank0
  1927  02A0  1303               	bcf	3,6	;RP1=0, select bank0
  1928  02A1  00A2               	movwf	lcd_puts@s
  1929  02A2  3080               	movlw	128
  1930  02A3  00A3               	movwf	lcd_puts@s+1
  1931  02A4  160A  158A  2197  120A  118A  	fcall	_lcd_puts
  1932  02A9                     l3467:	
  1933                           
  1934                           ;main.c: 156:         ftoa(voltageLimit,temp,1);
  1935  02A9  1683               	bsf	3,5	;RP0=1, select bank3
  1936  02AA  1703               	bsf	3,6	;RP1=1, select bank3
  1937  02AB  0851               	movf	(main@voltageLimit+3)^(0+384),w
  1938  02AC  1683               	bsf	3,5	;RP0=1, select bank1
  1939  02AD  1303               	bcf	3,6	;RP1=0, select bank1
  1940  02AE  00E9               	movwf	(ftoa@n+3)^(0+128)
  1941  02AF  1683               	bsf	3,5	;RP0=1, select bank3
  1942  02B0  1703               	bsf	3,6	;RP1=1, select bank3
  1943  02B1  0850               	movf	(main@voltageLimit+2)^(0+384),w
  1944  02B2  1683               	bsf	3,5	;RP0=1, select bank1
  1945  02B3  1303               	bcf	3,6	;RP1=0, select bank1
  1946  02B4  00E8               	movwf	(ftoa@n+2)^(0+128)
  1947  02B5  1683               	bsf	3,5	;RP0=1, select bank3
  1948  02B6  1703               	bsf	3,6	;RP1=1, select bank3
  1949  02B7  084F               	movf	(main@voltageLimit+1)^(0+384),w
  1950  02B8  1683               	bsf	3,5	;RP0=1, select bank1
  1951  02B9  1303               	bcf	3,6	;RP1=0, select bank1
  1952  02BA  00E7               	movwf	(ftoa@n+1)^(0+128)
  1953  02BB  1683               	bsf	3,5	;RP0=1, select bank3
  1954  02BC  1703               	bsf	3,6	;RP1=1, select bank3
  1955  02BD  084E               	movf	main@voltageLimit^(0+384),w
  1956  02BE  1683               	bsf	3,5	;RP0=1, select bank1
  1957  02BF  1303               	bcf	3,6	;RP1=0, select bank1
  1958  02C0  00E6               	movwf	ftoa@n^(0+128)
  1959  02C1  30D6               	movlw	(low (_temp| (0+256)))& (0+255)
  1960  02C2  1683               	bsf	3,5	;RP0=1, select bank3
  1961  02C3  1703               	bsf	3,6	;RP1=1, select bank3
  1962  02C4  00AD               	movwf	??_main^(0+384)
  1963  02C5  082D               	movf	??_main^(0+384),w
  1964  02C6  1683               	bsf	3,5	;RP0=1, select bank1
  1965  02C7  1303               	bcf	3,6	;RP1=0, select bank1
  1966  02C8  00EA               	movwf	ftoa@res^(0+128)
  1967  02C9  3001               	movlw	1
  1968  02CA  00EB               	movwf	ftoa@afterpoint^(0+128)
  1969  02CB  3000               	movlw	0
  1970  02CC  00EC               	movwf	(ftoa@afterpoint^(0+128)+1)
  1971  02CD  120A  158A  204E  120A  118A  	fcall	_ftoa
  1972  02D2                     l3469:	
  1973                           
  1974                           ;main.c: 157:         lcd_goto(0x9);
  1975  02D2  3009               	movlw	9
  1976  02D3  120A  158A  2000  120A  118A  	fcall	_lcd_goto
  1977  02D8                     l3471:	
  1978                           
  1979                           ;main.c: 158:         lcd_puts("[");
  1980  02D8  3063               	movlw	(low ((STR_6-__stringbase)| (0+32768)))& (0+255)
  1981  02D9  1283               	bcf	3,5	;RP0=0, select bank0
  1982  02DA  1303               	bcf	3,6	;RP1=0, select bank0
  1983  02DB  00A2               	movwf	lcd_puts@s
  1984  02DC  3080               	movlw	128
  1985  02DD  00A3               	movwf	lcd_puts@s+1
  1986  02DE  160A  158A  2197  120A  118A  	fcall	_lcd_puts
  1987  02E3                     l3473:	
  1988                           
  1989                           ;main.c: 159:         lcd_puts(temp);
  1990  02E3  30D6               	movlw	(low (_temp| (0+256)))& (0+255)
  1991  02E4  1283               	bcf	3,5	;RP0=0, select bank0
  1992  02E5  1303               	bcf	3,6	;RP1=0, select bank0
  1993  02E6  00A2               	movwf	lcd_puts@s
  1994  02E7  3001               	movlw	1
  1995  02E8  00A3               	movwf	lcd_puts@s+1
  1996  02E9  160A  158A  2197  120A  118A  	fcall	_lcd_puts
  1997  02EE                     l3475:	
  1998                           
  1999                           ;main.c: 160:         lcd_puts("]");
  2000  02EE  3065               	movlw	(low ((STR_7-__stringbase)| (0+32768)))& (0+255)
  2001  02EF  1283               	bcf	3,5	;RP0=0, select bank0
  2002  02F0  1303               	bcf	3,6	;RP1=0, select bank0
  2003  02F1  00A2               	movwf	lcd_puts@s
  2004  02F2  3080               	movlw	128
  2005  02F3  00A3               	movwf	lcd_puts@s+1
  2006  02F4  160A  158A  2197  120A  118A  	fcall	_lcd_puts
  2007  02F9                     l3477:	
  2008                           
  2009                           ;main.c: 162:         if(FOutOnOff)
  2010  02F9  1C79               	btfss	main@FOutOnOff/(0+8),main@FOutOnOff& (0+7)
  2011  02FA  2AFC               	goto	u4611
  2012  02FB  2AFD               	goto	u4610
  2013  02FC                     u4611:	
  2014  02FC  2C8D               	goto	l3499
  2015  02FD                     u4610:	
  2016  02FD                     l3479:	
  2017                           
  2018                           ;main.c: 163:         {;main.c: 164:             if(!RB4)
  2019  02FD  1283               	bcf	3,5	;RP0=0, select bank0
  2020  02FE  1303               	bcf	3,6	;RP1=0, select bank0
  2021  02FF  1A06               	btfsc	6,4	;volatile
  2022  0300  2B02               	goto	u4621
  2023  0301  2B03               	goto	u4620
  2024  0302                     u4621:	
  2025  0302  2B50               	goto	l75
  2026  0303                     u4620:	
  2027  0303                     l3481:	
  2028                           
  2029                           ;main.c: 165:             {;main.c: 167:                 voltageLimit += 0.1;
  2030  0303  303D               	movlw	61
  2031  0304  00EB               	movwf	___fladd@b+3
  2032  0305  30CC               	movlw	204
  2033  0306  00EA               	movwf	___fladd@b+2
  2034  0307  30CC               	movlw	204
  2035  0308  00E9               	movwf	___fladd@b+1
  2036  0309  30CD               	movlw	205
  2037  030A  00E8               	movwf	___fladd@b
  2038  030B  1683               	bsf	3,5	;RP0=1, select bank3
  2039  030C  1703               	bsf	3,6	;RP1=1, select bank3
  2040  030D  0851               	movf	(main@voltageLimit+3)^(0+384),w
  2041  030E  1283               	bcf	3,5	;RP0=0, select bank0
  2042  030F  1303               	bcf	3,6	;RP1=0, select bank0
  2043  0310  00EF               	movwf	___fladd@a+3
  2044  0311  1683               	bsf	3,5	;RP0=1, select bank3
  2045  0312  1703               	bsf	3,6	;RP1=1, select bank3
  2046  0313  0850               	movf	(main@voltageLimit+2)^(0+384),w
  2047  0314  1283               	bcf	3,5	;RP0=0, select bank0
  2048  0315  1303               	bcf	3,6	;RP1=0, select bank0
  2049  0316  00EE               	movwf	___fladd@a+2
  2050  0317  1683               	bsf	3,5	;RP0=1, select bank3
  2051  0318  1703               	bsf	3,6	;RP1=1, select bank3
  2052  0319  084F               	movf	(main@voltageLimit+1)^(0+384),w
  2053  031A  1283               	bcf	3,5	;RP0=0, select bank0
  2054  031B  1303               	bcf	3,6	;RP1=0, select bank0
  2055  031C  00ED               	movwf	___fladd@a+1
  2056  031D  1683               	bsf	3,5	;RP0=1, select bank3
  2057  031E  1703               	bsf	3,6	;RP1=1, select bank3
  2058  031F  084E               	movf	main@voltageLimit^(0+384),w
  2059  0320  1283               	bcf	3,5	;RP0=0, select bank0
  2060  0321  1303               	bcf	3,6	;RP1=0, select bank0
  2061  0322  00EC               	movwf	___fladd@a
  2062  0323  120A  158A  247C  120A  118A  	fcall	___fladd
  2063  0328  1283               	bcf	3,5	;RP0=0, select bank0
  2064  0329  1303               	bcf	3,6	;RP1=0, select bank0
  2065  032A  086B               	movf	?___fladd+3,w
  2066  032B  1683               	bsf	3,5	;RP0=1, select bank3
  2067  032C  1703               	bsf	3,6	;RP1=1, select bank3
  2068  032D  00D1               	movwf	(main@voltageLimit+3)^(0+384)
  2069  032E  1283               	bcf	3,5	;RP0=0, select bank0
  2070  032F  1303               	bcf	3,6	;RP1=0, select bank0
  2071  0330  086A               	movf	?___fladd+2,w
  2072  0331  1683               	bsf	3,5	;RP0=1, select bank3
  2073  0332  1703               	bsf	3,6	;RP1=1, select bank3
  2074  0333  00D0               	movwf	(main@voltageLimit+2)^(0+384)
  2075  0334  1283               	bcf	3,5	;RP0=0, select bank0
  2076  0335  1303               	bcf	3,6	;RP1=0, select bank0
  2077  0336  0869               	movf	?___fladd+1,w
  2078  0337  1683               	bsf	3,5	;RP0=1, select bank3
  2079  0338  1703               	bsf	3,6	;RP1=1, select bank3
  2080  0339  00CF               	movwf	(main@voltageLimit+1)^(0+384)
  2081  033A  1283               	bcf	3,5	;RP0=0, select bank0
  2082  033B  1303               	bcf	3,6	;RP1=0, select bank0
  2083  033C  0868               	movf	?___fladd,w
  2084  033D  1683               	bsf	3,5	;RP0=1, select bank3
  2085  033E  1703               	bsf	3,6	;RP1=1, select bank3
  2086  033F  00CE               	movwf	main@voltageLimit^(0+384)
  2087  0340                     l3483:	
  2088                           
  2089                           ;main.c: 174:                 _delay((unsigned long)((500)*(20000000/4000.0)));
  2090  0340  300D               	movlw	13
  2091  0341  1683               	bsf	3,5	;RP0=1, select bank3
  2092  0342  1703               	bsf	3,6	;RP1=1, select bank3
  2093  0343  00AF               	movwf	(??_main^(0+384)+2)
  2094  0344  30AF               	movlw	175
  2095  0345  00AE               	movwf	(??_main^(0+384)+1)
  2096  0346  30B5               	movlw	181
  2097  0347  00AD               	movwf	??_main^(0+384)
  2098  0348                     u4667:	
  2099  0348  0BAD               	decfsz	??_main^(0+384),f
  2100  0349  2B48               	goto	u4667
  2101  034A  0BAE               	decfsz	(??_main^(0+384)+1),f
  2102  034B  2B48               	goto	u4667
  2103  034C  0BAF               	decfsz	(??_main^(0+384)+2),f
  2104  034D  2B48               	goto	u4667
  2105  034E  2B4F               	nop2
  2106                           
  2107                           ;main.c: 175:             }
  2108  034F  2B94               	goto	l3489
  2109  0350                     l75:	
  2110                           ;main.c: 176:             else if(!RB5)
  2111                           
  2112  0350  1A86               	btfsc	6,5	;volatile
  2113  0351  2B53               	goto	u4631
  2114  0352  2B54               	goto	u4630
  2115  0353                     u4631:	
  2116  0353  2B94               	goto	l3489
  2117  0354                     u4630:	
  2118  0354                     l3485:	
  2119                           
  2120                           ;main.c: 177:             {;main.c: 178:                 voltageLimit -= 0.1;
  2121  0354  303D               	movlw	61
  2122  0355  1683               	bsf	3,5	;RP0=1, select bank1
  2123  0356  1303               	bcf	3,6	;RP1=0, select bank1
  2124  0357  00BC               	movwf	(___flsub@a+3)^(0+128)
  2125  0358  30CC               	movlw	204
  2126  0359  00BB               	movwf	(___flsub@a+2)^(0+128)
  2127  035A  30CC               	movlw	204
  2128  035B  00BA               	movwf	(___flsub@a+1)^(0+128)
  2129  035C  30CD               	movlw	205
  2130  035D  00B9               	movwf	___flsub@a^(0+128)
  2131  035E  1683               	bsf	3,5	;RP0=1, select bank3
  2132  035F  1703               	bsf	3,6	;RP1=1, select bank3
  2133  0360  0851               	movf	(main@voltageLimit+3)^(0+384),w
  2134  0361  1683               	bsf	3,5	;RP0=1, select bank1
  2135  0362  1303               	bcf	3,6	;RP1=0, select bank1
  2136  0363  00C0               	movwf	(___flsub@b+3)^(0+128)
  2137  0364  1683               	bsf	3,5	;RP0=1, select bank3
  2138  0365  1703               	bsf	3,6	;RP1=1, select bank3
  2139  0366  0850               	movf	(main@voltageLimit+2)^(0+384),w
  2140  0367  1683               	bsf	3,5	;RP0=1, select bank1
  2141  0368  1303               	bcf	3,6	;RP1=0, select bank1
  2142  0369  00BF               	movwf	(___flsub@b+2)^(0+128)
  2143  036A  1683               	bsf	3,5	;RP0=1, select bank3
  2144  036B  1703               	bsf	3,6	;RP1=1, select bank3
  2145  036C  084F               	movf	(main@voltageLimit+1)^(0+384),w
  2146  036D  1683               	bsf	3,5	;RP0=1, select bank1
  2147  036E  1303               	bcf	3,6	;RP1=0, select bank1
  2148  036F  00BE               	movwf	(___flsub@b+1)^(0+128)
  2149  0370  1683               	bsf	3,5	;RP0=1, select bank3
  2150  0371  1703               	bsf	3,6	;RP1=1, select bank3
  2151  0372  084E               	movf	main@voltageLimit^(0+384),w
  2152  0373  1683               	bsf	3,5	;RP0=1, select bank1
  2153  0374  1303               	bcf	3,6	;RP1=0, select bank1
  2154  0375  00BD               	movwf	___flsub@b^(0+128)
  2155  0376  160A  158A  2246  120A  118A  	fcall	___flsub
  2156  037B  1683               	bsf	3,5	;RP0=1, select bank1
  2157  037C  1303               	bcf	3,6	;RP1=0, select bank1
  2158  037D  083C               	movf	(?___flsub+3)^(0+128),w
  2159  037E  1683               	bsf	3,5	;RP0=1, select bank3
  2160  037F  1703               	bsf	3,6	;RP1=1, select bank3
  2161  0380  00D1               	movwf	(main@voltageLimit+3)^(0+384)
  2162  0381  1683               	bsf	3,5	;RP0=1, select bank1
  2163  0382  1303               	bcf	3,6	;RP1=0, select bank1
  2164  0383  083B               	movf	(?___flsub+2)^(0+128),w
  2165  0384  1683               	bsf	3,5	;RP0=1, select bank3
  2166  0385  1703               	bsf	3,6	;RP1=1, select bank3
  2167  0386  00D0               	movwf	(main@voltageLimit+2)^(0+384)
  2168  0387  1683               	bsf	3,5	;RP0=1, select bank1
  2169  0388  1303               	bcf	3,6	;RP1=0, select bank1
  2170  0389  083A               	movf	(?___flsub+1)^(0+128),w
  2171  038A  1683               	bsf	3,5	;RP0=1, select bank3
  2172  038B  1703               	bsf	3,6	;RP1=1, select bank3
  2173  038C  00CF               	movwf	(main@voltageLimit+1)^(0+384)
  2174  038D  1683               	bsf	3,5	;RP0=1, select bank1
  2175  038E  1303               	bcf	3,6	;RP1=0, select bank1
  2176  038F  0839               	movf	?___flsub^(0+128),w
  2177  0390  1683               	bsf	3,5	;RP0=1, select bank3
  2178  0391  1703               	bsf	3,6	;RP1=1, select bank3
  2179  0392  00CE               	movwf	main@voltageLimit^(0+384)
  2180  0393  2B40               	goto	l3483
  2181  0394                     l3489:	
  2182                           
  2183                           ;main.c: 181:             adc_count = (int)(((voltageLimit*4095)/30.5)+a);
  2184  0394  1683               	bsf	3,5	;RP0=1, select bank3
  2185  0395  1703               	bsf	3,6	;RP1=1, select bank3
  2186  0396  0851               	movf	(main@voltageLimit+3)^(0+384),w
  2187  0397  1283               	bcf	3,5	;RP0=0, select bank0
  2188  0398  1303               	bcf	3,6	;RP1=0, select bank0
  2189  0399  00C8               	movwf	___flmul@a+3
  2190  039A  1683               	bsf	3,5	;RP0=1, select bank3
  2191  039B  1703               	bsf	3,6	;RP1=1, select bank3
  2192  039C  0850               	movf	(main@voltageLimit+2)^(0+384),w
  2193  039D  1283               	bcf	3,5	;RP0=0, select bank0
  2194  039E  1303               	bcf	3,6	;RP1=0, select bank0
  2195  039F  00C7               	movwf	___flmul@a+2
  2196  03A0  1683               	bsf	3,5	;RP0=1, select bank3
  2197  03A1  1703               	bsf	3,6	;RP1=1, select bank3
  2198  03A2  084F               	movf	(main@voltageLimit+1)^(0+384),w
  2199  03A3  1283               	bcf	3,5	;RP0=0, select bank0
  2200  03A4  1303               	bcf	3,6	;RP1=0, select bank0
  2201  03A5  00C6               	movwf	___flmul@a+1
  2202  03A6  1683               	bsf	3,5	;RP0=1, select bank3
  2203  03A7  1703               	bsf	3,6	;RP1=1, select bank3
  2204  03A8  084E               	movf	main@voltageLimit^(0+384),w
  2205  03A9  1283               	bcf	3,5	;RP0=0, select bank0
  2206  03AA  1303               	bcf	3,6	;RP1=0, select bank0
  2207  03AB  00C5               	movwf	___flmul@a
  2208  03AC  3045               	movlw	69
  2209  03AD  00C4               	movwf	___flmul@b+3
  2210  03AE  307F               	movlw	127
  2211  03AF  00C3               	movwf	___flmul@b+2
  2212  03B0  30F0               	movlw	240
  2213  03B1  00C2               	movwf	___flmul@b+1
  2214  03B2  3000               	movlw	0
  2215  03B3  00C1               	movwf	___flmul@b
  2216  03B4  120A  118A  2495  120A  118A  	fcall	___flmul
  2217  03B9  1283               	bcf	3,5	;RP0=0, select bank0
  2218  03BA  1303               	bcf	3,6	;RP1=0, select bank0
  2219  03BB  0844               	movf	?___flmul+3,w
  2220  03BC  00E2               	movwf	___fldiv@b+3
  2221  03BD  0843               	movf	?___flmul+2,w
  2222  03BE  00E1               	movwf	___fldiv@b+2
  2223  03BF  0842               	movf	?___flmul+1,w
  2224  03C0  00E0               	movwf	___fldiv@b+1
  2225  03C1  0841               	movf	?___flmul,w
  2226  03C2  00DF               	movwf	___fldiv@b
  2227  03C3  3041               	movlw	65
  2228  03C4  00DE               	movwf	___fldiv@a+3
  2229  03C5  30F4               	movlw	244
  2230  03C6  00DD               	movwf	___fldiv@a+2
  2231  03C7  3000               	movlw	0
  2232  03C8  00DC               	movwf	___fldiv@a+1
  2233  03C9  3000               	movlw	0
  2234  03CA  00DB               	movwf	___fldiv@a
  2235  03CB  120A  158A  21DC  120A  118A  	fcall	___fldiv
  2236  03D0  1283               	bcf	3,5	;RP0=0, select bank0
  2237  03D1  1303               	bcf	3,6	;RP1=0, select bank0
  2238  03D2  085E               	movf	?___fldiv+3,w
  2239  03D3  00EF               	movwf	___fladd@a+3
  2240  03D4  085D               	movf	?___fldiv+2,w
  2241  03D5  00EE               	movwf	___fladd@a+2
  2242  03D6  085C               	movf	?___fldiv+1,w
  2243  03D7  00ED               	movwf	___fladd@a+1
  2244  03D8  085B               	movf	?___fldiv,w
  2245  03D9  00EC               	movwf	___fladd@a
  2246  03DA  1683               	bsf	3,5	;RP0=1, select bank3
  2247  03DB  1703               	bsf	3,6	;RP1=1, select bank3
  2248  03DC  084A               	movf	main@a^(0+384),w
  2249  03DD  1283               	bcf	3,5	;RP0=0, select bank0
  2250  03DE  1303               	bcf	3,6	;RP1=0, select bank0
  2251  03DF  00A0               	movwf	___xxtofl@val
  2252  03E0  1683               	bsf	3,5	;RP0=1, select bank3
  2253  03E1  1703               	bsf	3,6	;RP1=1, select bank3
  2254  03E2  084B               	movf	(main@a+1)^(0+384),w
  2255  03E3  1283               	bcf	3,5	;RP0=0, select bank0
  2256  03E4  1303               	bcf	3,6	;RP1=0, select bank0
  2257  03E5  00A1               	movwf	___xxtofl@val+1
  2258  03E6  01A2               	clrf	___xxtofl@val+2
  2259  03E7  01A3               	clrf	___xxtofl@val+3
  2260  03E8  3000               	movlw	0
  2261  03E9  160A  158A  259C  120A  118A  	fcall	___xxtofl
  2262  03EE  1283               	bcf	3,5	;RP0=0, select bank0
  2263  03EF  1303               	bcf	3,6	;RP1=0, select bank0
  2264  03F0  0823               	movf	?___xxtofl+3,w
  2265  03F1  00EB               	movwf	___fladd@b+3
  2266  03F2  0822               	movf	?___xxtofl+2,w
  2267  03F3  00EA               	movwf	___fladd@b+2
  2268  03F4  0821               	movf	?___xxtofl+1,w
  2269  03F5  00E9               	movwf	___fladd@b+1
  2270  03F6  0820               	movf	?___xxtofl,w
  2271  03F7  00E8               	movwf	___fladd@b
  2272  03F8  120A  158A  247C  120A  118A  	fcall	___fladd
  2273  03FD  1283               	bcf	3,5	;RP0=0, select bank0
  2274  03FE  1303               	bcf	3,6	;RP1=0, select bank0
  2275  03FF  086B               	movf	?___fladd+3,w
  2276  0400  1683               	bsf	3,5	;RP0=1, select bank1
  2277  0401  1303               	bcf	3,6	;RP1=0, select bank1
  2278  0402  00BC               	movwf	(___fltol@f1+3)^(0+128)
  2279  0403  1283               	bcf	3,5	;RP0=0, select bank0
  2280  0404  1303               	bcf	3,6	;RP1=0, select bank0
  2281  0405  086A               	movf	?___fladd+2,w
  2282  0406  1683               	bsf	3,5	;RP0=1, select bank1
  2283  0407  1303               	bcf	3,6	;RP1=0, select bank1
  2284  0408  00BB               	movwf	(___fltol@f1+2)^(0+128)
  2285  0409  1283               	bcf	3,5	;RP0=0, select bank0
  2286  040A  1303               	bcf	3,6	;RP1=0, select bank0
  2287  040B  0869               	movf	?___fladd+1,w
  2288  040C  1683               	bsf	3,5	;RP0=1, select bank1
  2289  040D  1303               	bcf	3,6	;RP1=0, select bank1
  2290  040E  00BA               	movwf	(___fltol@f1+1)^(0+128)
  2291  040F  1283               	bcf	3,5	;RP0=0, select bank0
  2292  0410  1303               	bcf	3,6	;RP1=0, select bank0
  2293  0411  0868               	movf	?___fladd,w
  2294  0412  1683               	bsf	3,5	;RP0=1, select bank1
  2295  0413  1303               	bcf	3,6	;RP1=0, select bank1
  2296  0414  00B9               	movwf	___fltol@f1^(0+128)
  2297  0415  160A  118A  2019  120A  118A  	fcall	___fltol
  2298  041A  1683               	bsf	3,5	;RP0=1, select bank1
  2299  041B  1303               	bcf	3,6	;RP1=0, select bank1
  2300  041C  083A               	movf	(?___fltol+1)^(0+128),w
  2301  041D  1683               	bsf	3,5	;RP0=1, select bank3
  2302  041E  1703               	bsf	3,6	;RP1=1, select bank3
  2303  041F  00CD               	movwf	(main@adc_count+1)^(0+384)
  2304  0420  1683               	bsf	3,5	;RP0=1, select bank1
  2305  0421  1303               	bcf	3,6	;RP1=0, select bank1
  2306  0422  0839               	movf	?___fltol^(0+128),w
  2307  0423  1683               	bsf	3,5	;RP0=1, select bank3
  2308  0424  1703               	bsf	3,6	;RP1=1, select bank3
  2309  0425  00CC               	movwf	main@adc_count^(0+384)
  2310  0426                     l3491:	
  2311                           
  2312                           ;main.c: 182:             if(voltageLimit>=30.5) voltageLimit=30.5;
  2313  0426  0851               	movf	(main@voltageLimit+3)^(0+384),w
  2314  0427  1283               	bcf	3,5	;RP0=0, select bank0
  2315  0428  1303               	bcf	3,6	;RP1=0, select bank0
  2316  0429  00A3               	movwf	___flge@ff1+3
  2317  042A  1683               	bsf	3,5	;RP0=1, select bank3
  2318  042B  1703               	bsf	3,6	;RP1=1, select bank3
  2319  042C  0850               	movf	(main@voltageLimit+2)^(0+384),w
  2320  042D  1283               	bcf	3,5	;RP0=0, select bank0
  2321  042E  1303               	bcf	3,6	;RP1=0, select bank0
  2322  042F  00A2               	movwf	___flge@ff1+2
  2323  0430  1683               	bsf	3,5	;RP0=1, select bank3
  2324  0431  1703               	bsf	3,6	;RP1=1, select bank3
  2325  0432  084F               	movf	(main@voltageLimit+1)^(0+384),w
  2326  0433  1283               	bcf	3,5	;RP0=0, select bank0
  2327  0434  1303               	bcf	3,6	;RP1=0, select bank0
  2328  0435  00A1               	movwf	___flge@ff1+1
  2329  0436  1683               	bsf	3,5	;RP0=1, select bank3
  2330  0437  1703               	bsf	3,6	;RP1=1, select bank3
  2331  0438  084E               	movf	main@voltageLimit^(0+384),w
  2332  0439  1283               	bcf	3,5	;RP0=0, select bank0
  2333  043A  1303               	bcf	3,6	;RP1=0, select bank0
  2334  043B  00A0               	movwf	___flge@ff1
  2335  043C  3041               	movlw	65
  2336  043D  00A7               	movwf	___flge@ff2+3
  2337  043E  30F4               	movlw	244
  2338  043F  00A6               	movwf	___flge@ff2+2
  2339  0440  3000               	movlw	0
  2340  0441  00A5               	movwf	___flge@ff2+1
  2341  0442  3000               	movlw	0
  2342  0443  00A4               	movwf	___flge@ff2
  2343  0444  160A  158A  24F8  120A  118A  	fcall	___flge
  2344  0449  1C03               	btfss	3,0
  2345  044A  2C4C               	goto	u4641
  2346  044B  2C4D               	goto	u4640
  2347  044C                     u4641:	
  2348  044C  2C57               	goto	l3495
  2349  044D                     u4640:	
  2350  044D                     l3493:	
  2351  044D  3041               	movlw	65
  2352  044E  1683               	bsf	3,5	;RP0=1, select bank3
  2353  044F  1703               	bsf	3,6	;RP1=1, select bank3
  2354  0450  00D1               	movwf	(main@voltageLimit+3)^(0+384)
  2355  0451  30F4               	movlw	244
  2356  0452  00D0               	movwf	(main@voltageLimit+2)^(0+384)
  2357  0453  3000               	movlw	0
  2358  0454  00CF               	movwf	(main@voltageLimit+1)^(0+384)
  2359  0455  3000               	movlw	0
  2360  0456  00CE               	movwf	main@voltageLimit^(0+384)
  2361  0457                     l3495:	
  2362                           
  2363                           ;main.c: 183:             if(voltageLimit<=0) voltageLimit=00.0;
  2364  0457  3000               	movlw	0
  2365  0458  1283               	bcf	3,5	;RP0=0, select bank0
  2366  0459  1303               	bcf	3,6	;RP1=0, select bank0
  2367  045A  00A3               	movwf	___flge@ff1+3
  2368  045B  3000               	movlw	0
  2369  045C  00A2               	movwf	___flge@ff1+2
  2370  045D  3000               	movlw	0
  2371  045E  00A1               	movwf	___flge@ff1+1
  2372  045F  3000               	movlw	0
  2373  0460  00A0               	movwf	___flge@ff1
  2374  0461  1683               	bsf	3,5	;RP0=1, select bank3
  2375  0462  1703               	bsf	3,6	;RP1=1, select bank3
  2376  0463  0851               	movf	(main@voltageLimit+3)^(0+384),w
  2377  0464  1283               	bcf	3,5	;RP0=0, select bank0
  2378  0465  1303               	bcf	3,6	;RP1=0, select bank0
  2379  0466  00A7               	movwf	___flge@ff2+3
  2380  0467  1683               	bsf	3,5	;RP0=1, select bank3
  2381  0468  1703               	bsf	3,6	;RP1=1, select bank3
  2382  0469  0850               	movf	(main@voltageLimit+2)^(0+384),w
  2383  046A  1283               	bcf	3,5	;RP0=0, select bank0
  2384  046B  1303               	bcf	3,6	;RP1=0, select bank0
  2385  046C  00A6               	movwf	___flge@ff2+2
  2386  046D  1683               	bsf	3,5	;RP0=1, select bank3
  2387  046E  1703               	bsf	3,6	;RP1=1, select bank3
  2388  046F  084F               	movf	(main@voltageLimit+1)^(0+384),w
  2389  0470  1283               	bcf	3,5	;RP0=0, select bank0
  2390  0471  1303               	bcf	3,6	;RP1=0, select bank0
  2391  0472  00A5               	movwf	___flge@ff2+1
  2392  0473  1683               	bsf	3,5	;RP0=1, select bank3
  2393  0474  1703               	bsf	3,6	;RP1=1, select bank3
  2394  0475  084E               	movf	main@voltageLimit^(0+384),w
  2395  0476  1283               	bcf	3,5	;RP0=0, select bank0
  2396  0477  1303               	bcf	3,6	;RP1=0, select bank0
  2397  0478  00A4               	movwf	___flge@ff2
  2398  0479  160A  158A  24F8  120A  118A  	fcall	___flge
  2399  047E  1C03               	btfss	3,0
  2400  047F  2C81               	goto	u4651
  2401  0480  2C82               	goto	u4650
  2402  0481                     u4651:	
  2403  0481  2860               	goto	l3411
  2404  0482                     u4650:	
  2405  0482                     l3497:	
  2406  0482  3000               	movlw	0
  2407  0483  1683               	bsf	3,5	;RP0=1, select bank3
  2408  0484  1703               	bsf	3,6	;RP1=1, select bank3
  2409  0485  00D1               	movwf	(main@voltageLimit+3)^(0+384)
  2410  0486  3000               	movlw	0
  2411  0487  00D0               	movwf	(main@voltageLimit+2)^(0+384)
  2412  0488  3000               	movlw	0
  2413  0489  00CF               	movwf	(main@voltageLimit+1)^(0+384)
  2414  048A  3000               	movlw	0
  2415  048B  00CE               	movwf	main@voltageLimit^(0+384)
  2416  048C  2860               	goto	l3411
  2417  048D                     l3499:	
  2418  048D  1683               	bsf	3,5	;RP0=1, select bank3
  2419  048E  1703               	bsf	3,6	;RP1=1, select bank3
  2420  048F  01CC               	clrf	main@adc_count^(0+384)
  2421  0490  01CD               	clrf	(main@adc_count+1)^(0+384)
  2422  0491  2860               	goto	l3411
  2423  0492  120A  118A  280C   	ljmp	start
  2424  0495                     __end_of_main:	
  2425                           
  2426                           	psect	text1
  2427  1997                     __ptext1:	
  2428 ;; *************** function _lcd_puts *****************
  2429 ;; Defined at:
  2430 ;;		line 62 in file "lcd.c"
  2431 ;; Parameters:    Size  Location     Type
  2432 ;;  s               2    2[BANK0 ] PTR const unsigned char 
  2433 ;;		 -> STR_10(2), STR_9(2), STR_8(6), STR_7(2), 
  2434 ;;		 -> STR_6(2), STR_5(6), temp(15), 
  2435 ;; Auto vars:     Size  Location     Type
  2436 ;;		None
  2437 ;; Return value:  Size  Location     Type
  2438 ;;                  1    wreg      void 
  2439 ;; Registers used:
  2440 ;;		wreg, fsr0l, fsr0h, status,2, status,0, btemp+1, pclath, cstack
  2441 ;; Tracked objects:
  2442 ;;		On entry : 0/0
  2443 ;;		On exit  : 0/0
  2444 ;;		Unchanged: 0/0
  2445 ;; Data sizes:     COMMON   BANK0   BANK1   BANK3   BANK2
  2446 ;;      Params:         0       2       0       0       0
  2447 ;;      Locals:         0       0       0       0       0
  2448 ;;      Temps:          0       0       0       0       0
  2449 ;;      Totals:         0       2       0       0       0
  2450 ;;Total ram usage:        2 bytes
  2451 ;; Hardware stack levels used:    1
  2452 ;; Hardware stack levels required when called:    3
  2453 ;; This function calls:
  2454 ;;		_lcd_write
  2455 ;; This function is called by:
  2456 ;;		_main
  2457 ;; This function uses a non-reentrant model
  2458 ;;
  2459                           
  2460                           
  2461                           ;psect for function _lcd_puts
  2462  1997                     _lcd_puts:	
  2463  1997                     l3375:	
  2464                           ;incstack = 0
  2465                           ; Regs used in _lcd_puts: [wreg-fsr0h+status,2+status,0+btemp+1+pclath+cstack]
  2466                           
  2467                           
  2468                           ;lcd.c: 62: lcd_puts(const char * s);lcd.c: 63: {;lcd.c: 64:  RC4 = 1;
  2469  1997  1283               	bcf	3,5	;RP0=0, select bank0
  2470  1998  1303               	bcf	3,6	;RP1=0, select bank0
  2471  1999  1607               	bsf	7,4	;volatile
  2472                           
  2473                           ;lcd.c: 65:  while(*s)
  2474  199A  29B1               	goto	l3381
  2475  199B                     l3377:	
  2476                           
  2477                           ;lcd.c: 66:   lcd_write(*s++);
  2478  199B  0823               	movf	lcd_puts@s+1,w
  2479  199C  00FF               	movwf	btemp+1
  2480  199D  0822               	movf	lcd_puts@s,w
  2481  199E  0084               	movwf	4
  2482  199F  160A  158A  2000  160A  158A  	fcall	stringtab
  2483  19A4  160A  158A  214F  160A  158A  	fcall	_lcd_write
  2484  19A9                     l3379:	
  2485  19A9  3001               	movlw	1
  2486  19AA  1283               	bcf	3,5	;RP0=0, select bank0
  2487  19AB  1303               	bcf	3,6	;RP1=0, select bank0
  2488  19AC  07A2               	addwf	lcd_puts@s,f
  2489  19AD  1803               	skipnc
  2490  19AE  0AA3               	incf	lcd_puts@s+1,f
  2491  19AF  3000               	movlw	0
  2492  19B0  07A3               	addwf	lcd_puts@s+1,f
  2493  19B1                     l3381:	
  2494                           
  2495                           ;lcd.c: 65:  while(*s)
  2496  19B1  0823               	movf	lcd_puts@s+1,w
  2497  19B2  00FF               	movwf	btemp+1
  2498  19B3  0822               	movf	lcd_puts@s,w
  2499  19B4  0084               	movwf	4
  2500  19B5  160A  158A  2000  160A  158A  	fcall	stringtab
  2501  19BA  3A00               	xorlw	0
  2502  19BB  1D03               	skipz
  2503  19BC  29BE               	goto	u4561
  2504  19BD  29BF               	goto	u4560
  2505  19BE                     u4561:	
  2506  19BE  299B               	goto	l3377
  2507  19BF                     u4560:	
  2508  19BF                     l161:	
  2509  19BF  0008               	return
  2510  19C0                     __end_of_lcd_puts:	
  2511                           
  2512                           	psect	text2
  2513  1AE6                     __ptext2:	
  2514 ;; *************** function _lcd_init *****************
  2515 ;; Defined at:
  2516 ;;		line 92 in file "lcd.c"
  2517 ;; Parameters:    Size  Location     Type
  2518 ;;		None
  2519 ;; Auto vars:     Size  Location     Type
  2520 ;;  init_value      1    0        unsigned char 
  2521 ;; Return value:  Size  Location     Type
  2522 ;;                  1    wreg      void 
  2523 ;; Registers used:
  2524 ;;		wreg, status,2, status,0, pclath, cstack
  2525 ;; Tracked objects:
  2526 ;;		On entry : 0/0
  2527 ;;		On exit  : 0/0
  2528 ;;		Unchanged: 0/0
  2529 ;; Data sizes:     COMMON   BANK0   BANK1   BANK3   BANK2
  2530 ;;      Params:         0       0       0       0       0
  2531 ;;      Locals:         0       1       0       0       0
  2532 ;;      Temps:          0       2       0       0       0
  2533 ;;      Totals:         0       3       0       0       0
  2534 ;;Total ram usage:        3 bytes
  2535 ;; Hardware stack levels used:    1
  2536 ;; Hardware stack levels required when called:    4
  2537 ;; This function calls:
  2538 ;;		_lcd_clear
  2539 ;;		_lcd_write
  2540 ;; This function is called by:
  2541 ;;		_main
  2542 ;; This function uses a non-reentrant model
  2543 ;;
  2544                           
  2545                           
  2546                           ;psect for function _lcd_init
  2547  1AE6                     _lcd_init:	
  2548  1AE6                     l3029:	
  2549                           ;incstack = 0
  2550                           ; Regs used in _lcd_init: [wreg+status,2+status,0+pclath+cstack]
  2551                           
  2552  1AE6                     l3031:	
  2553                           
  2554                           ;lcd.c: 101:  RC4 = 0;
  2555  1AE6  1283               	bcf	3,5	;RP0=0, select bank0
  2556  1AE7  1303               	bcf	3,6	;RP1=0, select bank0
  2557  1AE8  1207               	bcf	7,4	;volatile
  2558  1AE9                     l3033:	
  2559                           
  2560                           ;lcd.c: 102:  RC5 = 0;
  2561  1AE9  1287               	bcf	7,5	;volatile
  2562                           
  2563                           ;lcd.c: 105:  _delay((unsigned long)((15)*(20000000/4000.0)));
  2564  1AEA  3062               	movlw	98
  2565  1AEB  1283               	bcf	3,5	;RP0=0, select bank0
  2566  1AEC  1303               	bcf	3,6	;RP1=0, select bank0
  2567  1AED  00A5               	movwf	??_lcd_init+1
  2568  1AEE  3065               	movlw	101
  2569  1AEF  00A4               	movwf	??_lcd_init
  2570  1AF0                     u4677:	
  2571  1AF0  0BA4               	decfsz	??_lcd_init,f
  2572  1AF1  2AF0               	goto	u4677
  2573  1AF2  0BA5               	decfsz	??_lcd_init+1,f
  2574  1AF3  2AF0               	goto	u4677
  2575                           
  2576                           ;lcd.c: 106:  PORTB = init_value;
  2577  1AF4  3003               	movlw	3
  2578  1AF5  1283               	bcf	3,5	;RP0=0, select bank0
  2579  1AF6  1303               	bcf	3,6	;RP1=0, select bank0
  2580  1AF7  0086               	movwf	6	;volatile
  2581  1AF8                     l3035:	
  2582                           
  2583                           ;lcd.c: 107:  ((RC5 = 1),(RC5=0));
  2584  1AF8  1687               	bsf	7,5	;volatile
  2585  1AF9                     l3037:	
  2586  1AF9  1287               	bcf	7,5	;volatile
  2587                           
  2588                           ;lcd.c: 108:  _delay((unsigned long)((5)*(20000000/4000.0)));
  2589  1AFA  3021               	movlw	33
  2590  1AFB  1283               	bcf	3,5	;RP0=0, select bank0
  2591  1AFC  1303               	bcf	3,6	;RP1=0, select bank0
  2592  1AFD  00A5               	movwf	??_lcd_init+1
  2593  1AFE  3075               	movlw	117
  2594  1AFF  00A4               	movwf	??_lcd_init
  2595  1B00                     u4687:	
  2596  1B00  0BA4               	decfsz	??_lcd_init,f
  2597  1B01  2B00               	goto	u4687
  2598  1B02  0BA5               	decfsz	??_lcd_init+1,f
  2599  1B03  2B00               	goto	u4687
  2600  1B04  2B05               	nop2
  2601  1B05                     l3039:	
  2602                           
  2603                           ;lcd.c: 109:  ((RC5 = 1),(RC5=0));
  2604  1B05  1283               	bcf	3,5	;RP0=0, select bank0
  2605  1B06  1303               	bcf	3,6	;RP1=0, select bank0
  2606  1B07  1687               	bsf	7,5	;volatile
  2607  1B08                     l3041:	
  2608  1B08  1287               	bcf	7,5	;volatile
  2609                           
  2610                           ;lcd.c: 110:  _delay((unsigned long)((200)*(20000000/4000000.0)));
  2611  1B09  30C7               	movlw	199
  2612  1B0A  1283               	bcf	3,5	;RP0=0, select bank0
  2613  1B0B  1303               	bcf	3,6	;RP1=0, select bank0
  2614  1B0C  00A4               	movwf	??_lcd_init
  2615  1B0D                     u4697:	
  2616  1B0D  2B0E               	nop2
  2617  1B0E  0BA4               	decfsz	??_lcd_init,f
  2618  1B0F  2B0D               	goto	u4697
  2619  1B10  2B11               	nop2
  2620  1B11                     l3043:	
  2621                           
  2622                           ;lcd.c: 111:  ((RC5 = 1),(RC5=0));
  2623  1B11  1283               	bcf	3,5	;RP0=0, select bank0
  2624  1B12  1303               	bcf	3,6	;RP1=0, select bank0
  2625  1B13  1687               	bsf	7,5	;volatile
  2626  1B14                     l3045:	
  2627  1B14  1287               	bcf	7,5	;volatile
  2628                           
  2629                           ;lcd.c: 112:  _delay((unsigned long)((200)*(20000000/4000000.0)));
  2630  1B15  30C7               	movlw	199
  2631  1B16  1283               	bcf	3,5	;RP0=0, select bank0
  2632  1B17  1303               	bcf	3,6	;RP1=0, select bank0
  2633  1B18  00A4               	movwf	??_lcd_init
  2634  1B19                     u4707:	
  2635  1B19  2B1A               	nop2
  2636  1B1A  0BA4               	decfsz	??_lcd_init,f
  2637  1B1B  2B19               	goto	u4707
  2638  1B1C  2B1D               	nop2
  2639                           
  2640                           ;lcd.c: 113:  PORTB = 2;
  2641  1B1D  3002               	movlw	2
  2642  1B1E  1283               	bcf	3,5	;RP0=0, select bank0
  2643  1B1F  1303               	bcf	3,6	;RP1=0, select bank0
  2644  1B20  0086               	movwf	6	;volatile
  2645  1B21                     l3047:	
  2646                           
  2647                           ;lcd.c: 114:  ((RC5 = 1),(RC5=0));
  2648  1B21  1687               	bsf	7,5	;volatile
  2649  1B22                     l3049:	
  2650  1B22  1287               	bcf	7,5	;volatile
  2651  1B23                     l3051:	
  2652                           
  2653                           ;lcd.c: 116:  lcd_write(0x28);
  2654  1B23  3028               	movlw	40
  2655  1B24  160A  158A  214F  160A  158A  	fcall	_lcd_write
  2656  1B29                     l3053:	
  2657                           
  2658                           ;lcd.c: 117:     lcd_write(0x0C);
  2659  1B29  300C               	movlw	12
  2660  1B2A  160A  158A  214F  160A  158A  	fcall	_lcd_write
  2661  1B2F                     l3055:	
  2662                           
  2663                           ;lcd.c: 119:  lcd_clear();
  2664  1B2F  160A  118A  2005  160A  158A  	fcall	_lcd_clear
  2665  1B34                     l3057:	
  2666                           
  2667                           ;lcd.c: 120:  lcd_write(0x6);
  2668  1B34  3006               	movlw	6
  2669  1B35  160A  158A  214F  160A  158A  	fcall	_lcd_write
  2670  1B3A                     l170:	
  2671  1B3A  0008               	return
  2672  1B3B                     __end_of_lcd_init:	
  2673                           
  2674                           	psect	text3
  2675  1005                     __ptext3:	
  2676 ;; *************** function _lcd_clear *****************
  2677 ;; Defined at:
  2678 ;;		line 52 in file "lcd.c"
  2679 ;; Parameters:    Size  Location     Type
  2680 ;;		None
  2681 ;; Auto vars:     Size  Location     Type
  2682 ;;		None
  2683 ;; Return value:  Size  Location     Type
  2684 ;;                  1    wreg      void 
  2685 ;; Registers used:
  2686 ;;		wreg, status,2, status,0, pclath, cstack
  2687 ;; Tracked objects:
  2688 ;;		On entry : 0/0
  2689 ;;		On exit  : 0/0
  2690 ;;		Unchanged: 0/0
  2691 ;; Data sizes:     COMMON   BANK0   BANK1   BANK3   BANK2
  2692 ;;      Params:         0       0       0       0       0
  2693 ;;      Locals:         0       0       0       0       0
  2694 ;;      Temps:          0       2       0       0       0
  2695 ;;      Totals:         0       2       0       0       0
  2696 ;;Total ram usage:        2 bytes
  2697 ;; Hardware stack levels used:    1
  2698 ;; Hardware stack levels required when called:    3
  2699 ;; This function calls:
  2700 ;;		_lcd_write
  2701 ;; This function is called by:
  2702 ;;		_main
  2703 ;;		_lcd_init
  2704 ;; This function uses a non-reentrant model
  2705 ;;
  2706                           
  2707                           
  2708                           ;psect for function _lcd_clear
  2709  1005                     _lcd_clear:	
  2710  1005                     l2959:	
  2711                           ;incstack = 0
  2712                           ; Regs used in _lcd_clear: [wreg+status,2+status,0+pclath+cstack]
  2713                           
  2714                           
  2715                           ;lcd.c: 54:  RC4 = 0;
  2716  1005  1283               	bcf	3,5	;RP0=0, select bank0
  2717  1006  1303               	bcf	3,6	;RP1=0, select bank0
  2718  1007  1207               	bcf	7,4	;volatile
  2719  1008                     l2961:	
  2720                           
  2721                           ;lcd.c: 55:  lcd_write(0x1);
  2722  1008  3001               	movlw	1
  2723  1009  160A  158A  214F  160A  118A  	fcall	_lcd_write
  2724  100E                     l2963:	
  2725                           
  2726                           ;lcd.c: 56:  _delay((unsigned long)((2)*(20000000/4000.0)));
  2727  100E  300D               	movlw	13
  2728  100F  1283               	bcf	3,5	;RP0=0, select bank0
  2729  1010  1303               	bcf	3,6	;RP1=0, select bank0
  2730  1011  00A3               	movwf	??_lcd_clear+1
  2731  1012  30FB               	movlw	251
  2732  1013  00A2               	movwf	??_lcd_clear
  2733  1014                     u4717:	
  2734  1014  0BA2               	decfsz	??_lcd_clear,f
  2735  1015  2814               	goto	u4717
  2736  1016  0BA3               	decfsz	??_lcd_clear+1,f
  2737  1017  2814               	goto	u4717
  2738  1018                     l155:	
  2739  1018  0008               	return
  2740  1019                     __end_of_lcd_clear:	
  2741                           
  2742                           	psect	text4
  2743  0800                     __ptext4:	
  2744 ;; *************** function _lcd_goto *****************
  2745 ;; Defined at:
  2746 ;;		line 84 in file "lcd.c"
  2747 ;; Parameters:    Size  Location     Type
  2748 ;;  pos             1    wreg     unsigned char 
  2749 ;; Auto vars:     Size  Location     Type
  2750 ;;  pos             1    2[BANK0 ] unsigned char 
  2751 ;; Return value:  Size  Location     Type
  2752 ;;                  1    wreg      void 
  2753 ;; Registers used:
  2754 ;;		wreg, status,2, status,0, pclath, cstack
  2755 ;; Tracked objects:
  2756 ;;		On entry : 0/0
  2757 ;;		On exit  : 0/0
  2758 ;;		Unchanged: 0/0
  2759 ;; Data sizes:     COMMON   BANK0   BANK1   BANK3   BANK2
  2760 ;;      Params:         0       0       0       0       0
  2761 ;;      Locals:         0       1       0       0       0
  2762 ;;      Temps:          0       0       0       0       0
  2763 ;;      Totals:         0       1       0       0       0
  2764 ;;Total ram usage:        1 bytes
  2765 ;; Hardware stack levels used:    1
  2766 ;; Hardware stack levels required when called:    3
  2767 ;; This function calls:
  2768 ;;		_lcd_write
  2769 ;; This function is called by:
  2770 ;;		_main
  2771 ;; This function uses a non-reentrant model
  2772 ;;
  2773                           
  2774                           
  2775                           ;psect for function _lcd_goto
  2776  0800                     _lcd_goto:	
  2777                           
  2778                           ;incstack = 0
  2779                           ; Regs used in _lcd_goto: [wreg+status,2+status,0+pclath+cstack]
  2780                           ;lcd_goto@pos stored from wreg
  2781  0800  1283               	bcf	3,5	;RP0=0, select bank0
  2782  0801  1303               	bcf	3,6	;RP1=0, select bank0
  2783  0802  00A2               	movwf	lcd_goto@pos
  2784  0803                     l3371:	
  2785                           
  2786                           ;lcd.c: 84: lcd_goto(unsigned char pos);lcd.c: 85: {;lcd.c: 86:  RC4 = 0;
  2787  0803  1207               	bcf	7,4	;volatile
  2788  0804                     l3373:	
  2789                           
  2790                           ;lcd.c: 87:  lcd_write(0x80+pos);
  2791  0804  0822               	movf	lcd_goto@pos,w
  2792  0805  3E80               	addlw	128
  2793  0806  160A  158A  214F  120A  158A  	fcall	_lcd_write
  2794  080B                     l167:	
  2795  080B  0008               	return
  2796  080C                     __end_of_lcd_goto:	
  2797                           
  2798                           	psect	text5
  2799  194F                     __ptext5:	
  2800 ;; *************** function _lcd_write *****************
  2801 ;; Defined at:
  2802 ;;		line 38 in file "lcd.c"
  2803 ;; Parameters:    Size  Location     Type
  2804 ;;  c               1    wreg     unsigned char 
  2805 ;; Auto vars:     Size  Location     Type
  2806 ;;  c               1    1[BANK0 ] unsigned char 
  2807 ;; Return value:  Size  Location     Type
  2808 ;;                  1    wreg      void 
  2809 ;; Registers used:
  2810 ;;		wreg, status,2, status,0
  2811 ;; Tracked objects:
  2812 ;;		On entry : 0/0
  2813 ;;		On exit  : 0/0
  2814 ;;		Unchanged: 0/0
  2815 ;; Data sizes:     COMMON   BANK0   BANK1   BANK3   BANK2
  2816 ;;      Params:         0       0       0       0       0
  2817 ;;      Locals:         0       1       0       0       0
  2818 ;;      Temps:          0       1       0       0       0
  2819 ;;      Totals:         0       2       0       0       0
  2820 ;;Total ram usage:        2 bytes
  2821 ;; Hardware stack levels used:    1
  2822 ;; Hardware stack levels required when called:    2
  2823 ;; This function calls:
  2824 ;;		Nothing
  2825 ;; This function is called by:
  2826 ;;		_lcd_clear
  2827 ;;		_lcd_puts
  2828 ;;		_lcd_goto
  2829 ;;		_lcd_init
  2830 ;;		_lcd_putch
  2831 ;; This function uses a non-reentrant model
  2832 ;;
  2833                           
  2834                           
  2835                           ;psect for function _lcd_write
  2836  194F                     _lcd_write:	
  2837                           
  2838                           ;incstack = 0
  2839                           ; Regs used in _lcd_write: [wreg+status,2+status,0]
  2840                           ;lcd_write@c stored from wreg
  2841  194F  1283               	bcf	3,5	;RP0=0, select bank0
  2842  1950  1303               	bcf	3,6	;RP1=0, select bank0
  2843  1951  00A1               	movwf	lcd_write@c
  2844  1952                     l2795:	
  2845                           
  2846                           ;lcd.c: 38: lcd_write(unsigned char c);lcd.c: 39: {;lcd.c: 40:  _delay((unsigned long)((
      +                          40)*(20000000/4000000.0)));
  2847  1952  3041               	movlw	65
  2848  1953  1283               	bcf	3,5	;RP0=0, select bank0
  2849  1954  1303               	bcf	3,6	;RP1=0, select bank0
  2850  1955  00A0               	movwf	??_lcd_write
  2851  1956                     u4727:	
  2852  1956  0BA0               	decfsz	??_lcd_write,f
  2853  1957  2956               	goto	u4727
  2854  1958  2959               	nop2
  2855  1959                     l2797:	
  2856                           
  2857                           ;lcd.c: 41:  PORTB = ( ( c >> 4 ) & 0x0F );
  2858  1959  1283               	bcf	3,5	;RP0=0, select bank0
  2859  195A  1303               	bcf	3,6	;RP1=0, select bank0
  2860  195B  0821               	movf	lcd_write@c,w
  2861  195C  00A0               	movwf	??_lcd_write
  2862  195D  3004               	movlw	4
  2863  195E                     u3845:	
  2864  195E  1003               	clrc
  2865  195F  0CA0               	rrf	??_lcd_write,f
  2866  1960  3EFF               	addlw	-1
  2867  1961  1D03               	skipz
  2868  1962  295E               	goto	u3845
  2869  1963  0820               	movf	??_lcd_write,w
  2870  1964  390F               	andlw	15
  2871  1965  0086               	movwf	6	;volatile
  2872  1966                     l2799:	
  2873                           
  2874                           ;lcd.c: 42:  ((RC5 = 1),(RC5=0));
  2875  1966  1687               	bsf	7,5	;volatile
  2876  1967                     l2801:	
  2877  1967  1287               	bcf	7,5	;volatile
  2878  1968                     l2803:	
  2879                           
  2880                           ;lcd.c: 43:  PORTB = ( c & 0x0F );
  2881  1968  0821               	movf	lcd_write@c,w
  2882  1969  390F               	andlw	15
  2883  196A  0086               	movwf	6	;volatile
  2884  196B                     l2805:	
  2885                           
  2886                           ;lcd.c: 44:  ((RC5 = 1),(RC5=0));
  2887  196B  1687               	bsf	7,5	;volatile
  2888  196C                     l2807:	
  2889  196C  1287               	bcf	7,5	;volatile
  2890  196D                     l152:	
  2891  196D  0008               	return
  2892  196E                     __end_of_lcd_write:	
  2893                           
  2894                           	psect	text6
  2895  084E                     __ptext6:	
  2896 ;; *************** function _ftoa *****************
  2897 ;; Defined at:
  2898 ;;		line 231 in file "main.c"
  2899 ;; Parameters:    Size  Location     Type
  2900 ;;  n               4   70[BANK1 ] float 
  2901 ;;  res             1   74[BANK1 ] PTR unsigned char 
  2902 ;;		 -> temp(15), 
  2903 ;;  afterpoint      2   75[BANK1 ] int 
  2904 ;; Auto vars:     Size  Location     Type
  2905 ;;  fpart           4   25[BANK3 ] float 
  2906 ;;  i               2   23[BANK3 ] int 
  2907 ;;  ipart           2   21[BANK3 ] int 
  2908 ;; Return value:  Size  Location     Type
  2909 ;;                  1    wreg      void 
  2910 ;; Registers used:
  2911 ;;		wreg, fsr0l, fsr0h, status,2, status,0, btemp+1, pclath, cstack
  2912 ;; Tracked objects:
  2913 ;;		On entry : 0/0
  2914 ;;		On exit  : 0/0
  2915 ;;		Unchanged: 0/0
  2916 ;; Data sizes:     COMMON   BANK0   BANK1   BANK3   BANK2
  2917 ;;      Params:         0       0       7       0       0
  2918 ;;      Locals:         0       0       0      16       0
  2919 ;;      Temps:          0       0       2       0       0
  2920 ;;      Totals:         0       0       9      16       0
  2921 ;;Total ram usage:       25 bytes
  2922 ;; Hardware stack levels used:    1
  2923 ;; Hardware stack levels required when called:    7
  2924 ;; This function calls:
  2925 ;;		___flmul
  2926 ;;		___flsub
  2927 ;;		___fltol
  2928 ;;		___xxtofl
  2929 ;;		_intToStr
  2930 ;;		_pow
  2931 ;; This function is called by:
  2932 ;;		_main
  2933 ;; This function uses a non-reentrant model
  2934 ;;
  2935                           
  2936                           
  2937                           ;psect for function _ftoa
  2938  084E                     _ftoa:	
  2939  084E                     l3353:	
  2940                           ;incstack = 0
  2941                           ; Regs used in _ftoa: [wreg-fsr0h+status,2+status,0+btemp+1+pclath+cstack]
  2942                           
  2943                           
  2944                           ;main.c: 231: void ftoa(float n, char* res, int afterpoint);main.c: 232: {;main.c: 234: 
      +                              int ipart = (int)n;
  2945  084E  1683               	bsf	3,5	;RP0=1, select bank1
  2946  084F  1303               	bcf	3,6	;RP1=0, select bank1
  2947  0850  0869               	movf	(ftoa@n+3)^(0+128),w
  2948  0851  00BC               	movwf	(___fltol@f1+3)^(0+128)
  2949  0852  0868               	movf	(ftoa@n+2)^(0+128),w
  2950  0853  00BB               	movwf	(___fltol@f1+2)^(0+128)
  2951  0854  0867               	movf	(ftoa@n+1)^(0+128),w
  2952  0855  00BA               	movwf	(___fltol@f1+1)^(0+128)
  2953  0856  0866               	movf	ftoa@n^(0+128),w
  2954  0857  00B9               	movwf	___fltol@f1^(0+128)
  2955  0858  160A  118A  2019  120A  158A  	fcall	___fltol
  2956  085D  1683               	bsf	3,5	;RP0=1, select bank1
  2957  085E  1303               	bcf	3,6	;RP1=0, select bank1
  2958  085F  083A               	movf	(?___fltol+1)^(0+128),w
  2959  0860  1683               	bsf	3,5	;RP0=1, select bank3
  2960  0861  1703               	bsf	3,6	;RP1=1, select bank3
  2961  0862  00A6               	movwf	(ftoa@ipart+1)^(0+384)
  2962  0863  1683               	bsf	3,5	;RP0=1, select bank1
  2963  0864  1303               	bcf	3,6	;RP1=0, select bank1
  2964  0865  0839               	movf	?___fltol^(0+128),w
  2965  0866  1683               	bsf	3,5	;RP0=1, select bank3
  2966  0867  1703               	bsf	3,6	;RP1=1, select bank3
  2967  0868  00A5               	movwf	ftoa@ipart^(0+384)
  2968  0869                     l3355:	
  2969                           
  2970                           ;main.c: 237:     float fpart = n - (float)ipart;
  2971  0869  0825               	movf	ftoa@ipart^(0+384),w
  2972  086A  1283               	bcf	3,5	;RP0=0, select bank0
  2973  086B  1303               	bcf	3,6	;RP1=0, select bank0
  2974  086C  00A0               	movwf	___xxtofl@val
  2975  086D  1683               	bsf	3,5	;RP0=1, select bank3
  2976  086E  1703               	bsf	3,6	;RP1=1, select bank3
  2977  086F  0826               	movf	(ftoa@ipart+1)^(0+384),w
  2978  0870  1283               	bcf	3,5	;RP0=0, select bank0
  2979  0871  1303               	bcf	3,6	;RP1=0, select bank0
  2980  0872  00A1               	movwf	___xxtofl@val+1
  2981  0873  3000               	movlw	0
  2982  0874  1BA1               	btfsc	___xxtofl@val+1,7
  2983  0875  30FF               	movlw	255
  2984  0876  00A2               	movwf	___xxtofl@val+2
  2985  0877  00A3               	movwf	___xxtofl@val+3
  2986  0878  3001               	movlw	1
  2987  0879  160A  158A  259C  120A  158A  	fcall	___xxtofl
  2988  087E  1283               	bcf	3,5	;RP0=0, select bank0
  2989  087F  1303               	bcf	3,6	;RP1=0, select bank0
  2990  0880  0823               	movf	?___xxtofl+3,w
  2991  0881  1683               	bsf	3,5	;RP0=1, select bank1
  2992  0882  1303               	bcf	3,6	;RP1=0, select bank1
  2993  0883  00BC               	movwf	(___flsub@a+3)^(0+128)
  2994  0884  1283               	bcf	3,5	;RP0=0, select bank0
  2995  0885  1303               	bcf	3,6	;RP1=0, select bank0
  2996  0886  0822               	movf	?___xxtofl+2,w
  2997  0887  1683               	bsf	3,5	;RP0=1, select bank1
  2998  0888  1303               	bcf	3,6	;RP1=0, select bank1
  2999  0889  00BB               	movwf	(___flsub@a+2)^(0+128)
  3000  088A  1283               	bcf	3,5	;RP0=0, select bank0
  3001  088B  1303               	bcf	3,6	;RP1=0, select bank0
  3002  088C  0821               	movf	?___xxtofl+1,w
  3003  088D  1683               	bsf	3,5	;RP0=1, select bank1
  3004  088E  1303               	bcf	3,6	;RP1=0, select bank1
  3005  088F  00BA               	movwf	(___flsub@a+1)^(0+128)
  3006  0890  1283               	bcf	3,5	;RP0=0, select bank0
  3007  0891  1303               	bcf	3,6	;RP1=0, select bank0
  3008  0892  0820               	movf	?___xxtofl,w
  3009  0893  1683               	bsf	3,5	;RP0=1, select bank1
  3010  0894  1303               	bcf	3,6	;RP1=0, select bank1
  3011  0895  00B9               	movwf	___flsub@a^(0+128)
  3012  0896  0869               	movf	(ftoa@n+3)^(0+128),w
  3013  0897  00C0               	movwf	(___flsub@b+3)^(0+128)
  3014  0898  0868               	movf	(ftoa@n+2)^(0+128),w
  3015  0899  00BF               	movwf	(___flsub@b+2)^(0+128)
  3016  089A  0867               	movf	(ftoa@n+1)^(0+128),w
  3017  089B  00BE               	movwf	(___flsub@b+1)^(0+128)
  3018  089C  0866               	movf	ftoa@n^(0+128),w
  3019  089D  00BD               	movwf	___flsub@b^(0+128)
  3020  089E  160A  158A  2246  120A  158A  	fcall	___flsub
  3021  08A3  1683               	bsf	3,5	;RP0=1, select bank1
  3022  08A4  1303               	bcf	3,6	;RP1=0, select bank1
  3023  08A5  083C               	movf	(?___flsub+3)^(0+128),w
  3024  08A6  1683               	bsf	3,5	;RP0=1, select bank3
  3025  08A7  1703               	bsf	3,6	;RP1=1, select bank3
  3026  08A8  00AC               	movwf	(ftoa@fpart+3)^(0+384)
  3027  08A9  1683               	bsf	3,5	;RP0=1, select bank1
  3028  08AA  1303               	bcf	3,6	;RP1=0, select bank1
  3029  08AB  083B               	movf	(?___flsub+2)^(0+128),w
  3030  08AC  1683               	bsf	3,5	;RP0=1, select bank3
  3031  08AD  1703               	bsf	3,6	;RP1=1, select bank3
  3032  08AE  00AB               	movwf	(ftoa@fpart+2)^(0+384)
  3033  08AF  1683               	bsf	3,5	;RP0=1, select bank1
  3034  08B0  1303               	bcf	3,6	;RP1=0, select bank1
  3035  08B1  083A               	movf	(?___flsub+1)^(0+128),w
  3036  08B2  1683               	bsf	3,5	;RP0=1, select bank3
  3037  08B3  1703               	bsf	3,6	;RP1=1, select bank3
  3038  08B4  00AA               	movwf	(ftoa@fpart+1)^(0+384)
  3039  08B5  1683               	bsf	3,5	;RP0=1, select bank1
  3040  08B6  1303               	bcf	3,6	;RP1=0, select bank1
  3041  08B7  0839               	movf	?___flsub^(0+128),w
  3042  08B8  1683               	bsf	3,5	;RP0=1, select bank3
  3043  08B9  1703               	bsf	3,6	;RP1=1, select bank3
  3044  08BA  00A9               	movwf	ftoa@fpart^(0+384)
  3045  08BB                     l3357:	
  3046                           
  3047                           ;main.c: 240:     int i = intToStr(ipart, res, 1);
  3048  08BB  0826               	movf	(ftoa@ipart+1)^(0+384),w
  3049  08BC  1683               	bsf	3,5	;RP0=1, select bank1
  3050  08BD  1303               	bcf	3,6	;RP1=0, select bank1
  3051  08BE  00C5               	movwf	(intToStr@x+1)^(0+128)
  3052  08BF  1683               	bsf	3,5	;RP0=1, select bank3
  3053  08C0  1703               	bsf	3,6	;RP1=1, select bank3
  3054  08C1  0825               	movf	ftoa@ipart^(0+384),w
  3055  08C2  1683               	bsf	3,5	;RP0=1, select bank1
  3056  08C3  1303               	bcf	3,6	;RP1=0, select bank1
  3057  08C4  00C4               	movwf	intToStr@x^(0+128)
  3058  08C5  086A               	movf	ftoa@res^(0+128),w
  3059  08C6  00ED               	movwf	??_ftoa^(0+128)
  3060  08C7  086D               	movf	??_ftoa^(0+128),w
  3061  08C8  00C6               	movwf	intToStr@str^(0+128)
  3062  08C9  3001               	movlw	1
  3063  08CA  00C7               	movwf	intToStr@d^(0+128)
  3064  08CB  3000               	movlw	0
  3065  08CC  00C8               	movwf	(intToStr@d^(0+128)+1)
  3066  08CD  160A  158A  245B  120A  158A  	fcall	_intToStr
  3067  08D2  1683               	bsf	3,5	;RP0=1, select bank1
  3068  08D3  1303               	bcf	3,6	;RP1=0, select bank1
  3069  08D4  0845               	movf	(?_intToStr+1)^(0+128),w
  3070  08D5  1683               	bsf	3,5	;RP0=1, select bank3
  3071  08D6  1703               	bsf	3,6	;RP1=1, select bank3
  3072  08D7  00A8               	movwf	(ftoa@i+1)^(0+384)
  3073  08D8  1683               	bsf	3,5	;RP0=1, select bank1
  3074  08D9  1303               	bcf	3,6	;RP1=0, select bank1
  3075  08DA  0844               	movf	?_intToStr^(0+128),w
  3076  08DB  1683               	bsf	3,5	;RP0=1, select bank3
  3077  08DC  1703               	bsf	3,6	;RP1=1, select bank3
  3078  08DD  00A7               	movwf	ftoa@i^(0+384)
  3079  08DE                     l3359:	
  3080                           
  3081                           ;main.c: 243:     if (afterpoint != 0) {
  3082  08DE  1683               	bsf	3,5	;RP0=1, select bank1
  3083  08DF  1303               	bcf	3,6	;RP1=0, select bank1
  3084  08E0  086B               	movf	ftoa@afterpoint^(0+128),w
  3085  08E1  046C               	iorwf	(ftoa@afterpoint+1)^(0+128),w
  3086  08E2  1903               	btfsc	3,2
  3087  08E3  28E5               	goto	u4551
  3088  08E4  28E6               	goto	u4550
  3089  08E5                     u4551:	
  3090  08E5  29DB               	goto	l102
  3091  08E6                     u4550:	
  3092  08E6                     l3361:	
  3093                           
  3094                           ;main.c: 244:         res[i] = '.';
  3095  08E6  302E               	movlw	46
  3096  08E7  00ED               	movwf	??_ftoa^(0+128)
  3097  08E8  1683               	bsf	3,5	;RP0=1, select bank3
  3098  08E9  1703               	bsf	3,6	;RP1=1, select bank3
  3099  08EA  0827               	movf	ftoa@i^(0+384),w
  3100  08EB  1683               	bsf	3,5	;RP0=1, select bank1
  3101  08EC  1303               	bcf	3,6	;RP1=0, select bank1
  3102  08ED  076A               	addwf	ftoa@res^(0+128),w
  3103  08EE  00EE               	movwf	(??_ftoa+1)^(0+128)
  3104  08EF  086E               	movf	(??_ftoa+1)^(0+128),w
  3105  08F0  0084               	movwf	4
  3106  08F1  086D               	movf	??_ftoa^(0+128),w
  3107  08F2  1783               	bsf	3,7	;select IRP bank2
  3108  08F3  0080               	movwf	0
  3109  08F4                     l3363:	
  3110                           
  3111                           ;main.c: 249:         fpart = fpart * pow(10, afterpoint);
  3112  08F4  086B               	movf	ftoa@afterpoint^(0+128),w
  3113  08F5  1283               	bcf	3,5	;RP0=0, select bank0
  3114  08F6  1303               	bcf	3,6	;RP1=0, select bank0
  3115  08F7  00A0               	movwf	___xxtofl@val
  3116  08F8  1683               	bsf	3,5	;RP0=1, select bank1
  3117  08F9  1303               	bcf	3,6	;RP1=0, select bank1
  3118  08FA  086C               	movf	(ftoa@afterpoint+1)^(0+128),w
  3119  08FB  1283               	bcf	3,5	;RP0=0, select bank0
  3120  08FC  1303               	bcf	3,6	;RP1=0, select bank0
  3121  08FD  00A1               	movwf	___xxtofl@val+1
  3122  08FE  3000               	movlw	0
  3123  08FF  1BA1               	btfsc	___xxtofl@val+1,7
  3124  0900  30FF               	movlw	255
  3125  0901  00A2               	movwf	___xxtofl@val+2
  3126  0902  00A3               	movwf	___xxtofl@val+3
  3127  0903  3001               	movlw	1
  3128  0904  160A  158A  259C  120A  158A  	fcall	___xxtofl
  3129  0909  1283               	bcf	3,5	;RP0=0, select bank0
  3130  090A  1303               	bcf	3,6	;RP1=0, select bank0
  3131  090B  0823               	movf	?___xxtofl+3,w
  3132  090C  1683               	bsf	3,5	;RP0=1, select bank3
  3133  090D  1703               	bsf	3,6	;RP1=1, select bank3
  3134  090E  00A0               	movwf	(_ftoa$930+3)^(0+384)
  3135  090F  1283               	bcf	3,5	;RP0=0, select bank0
  3136  0910  1303               	bcf	3,6	;RP1=0, select bank0
  3137  0911  0822               	movf	?___xxtofl+2,w
  3138  0912  1683               	bsf	3,5	;RP0=1, select bank3
  3139  0913  1703               	bsf	3,6	;RP1=1, select bank3
  3140  0914  009F               	movwf	(_ftoa$930+2)^(0+384)
  3141  0915  1283               	bcf	3,5	;RP0=0, select bank0
  3142  0916  1303               	bcf	3,6	;RP1=0, select bank0
  3143  0917  0821               	movf	?___xxtofl+1,w
  3144  0918  1683               	bsf	3,5	;RP0=1, select bank3
  3145  0919  1703               	bsf	3,6	;RP1=1, select bank3
  3146  091A  009E               	movwf	(_ftoa$930+1)^(0+384)
  3147  091B  1283               	bcf	3,5	;RP0=0, select bank0
  3148  091C  1303               	bcf	3,6	;RP1=0, select bank0
  3149  091D  0820               	movf	?___xxtofl,w
  3150  091E  1683               	bsf	3,5	;RP0=1, select bank3
  3151  091F  1703               	bsf	3,6	;RP1=1, select bank3
  3152  0920  009D               	movwf	_ftoa$930^(0+384)
  3153  0921                     l3365:	
  3154                           
  3155                           ;main.c: 249:         fpart = fpart * pow(10, afterpoint);
  3156  0921  0820               	movf	(_ftoa$930+3)^(0+384),w
  3157  0922  1683               	bsf	3,5	;RP0=1, select bank1
  3158  0923  1303               	bcf	3,6	;RP1=0, select bank1
  3159  0924  00E4               	movwf	(pow@y+3)^(0+128)
  3160  0925  1683               	bsf	3,5	;RP0=1, select bank3
  3161  0926  1703               	bsf	3,6	;RP1=1, select bank3
  3162  0927  081F               	movf	(_ftoa$930+2)^(0+384),w
  3163  0928  1683               	bsf	3,5	;RP0=1, select bank1
  3164  0929  1303               	bcf	3,6	;RP1=0, select bank1
  3165  092A  00E3               	movwf	(pow@y+2)^(0+128)
  3166  092B  1683               	bsf	3,5	;RP0=1, select bank3
  3167  092C  1703               	bsf	3,6	;RP1=1, select bank3
  3168  092D  081E               	movf	(_ftoa$930+1)^(0+384),w
  3169  092E  1683               	bsf	3,5	;RP0=1, select bank1
  3170  092F  1303               	bcf	3,6	;RP1=0, select bank1
  3171  0930  00E2               	movwf	(pow@y+1)^(0+128)
  3172  0931  1683               	bsf	3,5	;RP0=1, select bank3
  3173  0932  1703               	bsf	3,6	;RP1=1, select bank3
  3174  0933  081D               	movf	_ftoa$930^(0+384),w
  3175  0934  1683               	bsf	3,5	;RP0=1, select bank1
  3176  0935  1303               	bcf	3,6	;RP1=0, select bank1
  3177  0936  00E1               	movwf	pow@y^(0+128)
  3178  0937  3041               	movlw	65
  3179  0938  00E0               	movwf	(pow@x+3)^(0+128)
  3180  0939  3020               	movlw	32
  3181  093A  00DF               	movwf	(pow@x+2)^(0+128)
  3182  093B  3000               	movlw	0
  3183  093C  00DE               	movwf	(pow@x+1)^(0+128)
  3184  093D  3000               	movlw	0
  3185  093E  00DD               	movwf	pow@x^(0+128)
  3186  093F  160A  118A  233E  120A  158A  	fcall	_pow
  3187  0944  1683               	bsf	3,5	;RP0=1, select bank1
  3188  0945  1303               	bcf	3,6	;RP1=0, select bank1
  3189  0946  0860               	movf	(?_pow+3)^(0+128),w
  3190  0947  1683               	bsf	3,5	;RP0=1, select bank3
  3191  0948  1703               	bsf	3,6	;RP1=1, select bank3
  3192  0949  00A4               	movwf	(_ftoa$931+3)^(0+384)
  3193  094A  1683               	bsf	3,5	;RP0=1, select bank1
  3194  094B  1303               	bcf	3,6	;RP1=0, select bank1
  3195  094C  085F               	movf	(?_pow+2)^(0+128),w
  3196  094D  1683               	bsf	3,5	;RP0=1, select bank3
  3197  094E  1703               	bsf	3,6	;RP1=1, select bank3
  3198  094F  00A3               	movwf	(_ftoa$931+2)^(0+384)
  3199  0950  1683               	bsf	3,5	;RP0=1, select bank1
  3200  0951  1303               	bcf	3,6	;RP1=0, select bank1
  3201  0952  085E               	movf	(?_pow+1)^(0+128),w
  3202  0953  1683               	bsf	3,5	;RP0=1, select bank3
  3203  0954  1703               	bsf	3,6	;RP1=1, select bank3
  3204  0955  00A2               	movwf	(_ftoa$931+1)^(0+384)
  3205  0956  1683               	bsf	3,5	;RP0=1, select bank1
  3206  0957  1303               	bcf	3,6	;RP1=0, select bank1
  3207  0958  085D               	movf	?_pow^(0+128),w
  3208  0959  1683               	bsf	3,5	;RP0=1, select bank3
  3209  095A  1703               	bsf	3,6	;RP1=1, select bank3
  3210  095B  00A1               	movwf	_ftoa$931^(0+384)
  3211  095C                     l3367:	
  3212                           
  3213                           ;main.c: 249:         fpart = fpart * pow(10, afterpoint);
  3214  095C  082C               	movf	(ftoa@fpart+3)^(0+384),w
  3215  095D  1283               	bcf	3,5	;RP0=0, select bank0
  3216  095E  1303               	bcf	3,6	;RP1=0, select bank0
  3217  095F  00C4               	movwf	___flmul@b+3
  3218  0960  1683               	bsf	3,5	;RP0=1, select bank3
  3219  0961  1703               	bsf	3,6	;RP1=1, select bank3
  3220  0962  082B               	movf	(ftoa@fpart+2)^(0+384),w
  3221  0963  1283               	bcf	3,5	;RP0=0, select bank0
  3222  0964  1303               	bcf	3,6	;RP1=0, select bank0
  3223  0965  00C3               	movwf	___flmul@b+2
  3224  0966  1683               	bsf	3,5	;RP0=1, select bank3
  3225  0967  1703               	bsf	3,6	;RP1=1, select bank3
  3226  0968  082A               	movf	(ftoa@fpart+1)^(0+384),w
  3227  0969  1283               	bcf	3,5	;RP0=0, select bank0
  3228  096A  1303               	bcf	3,6	;RP1=0, select bank0
  3229  096B  00C2               	movwf	___flmul@b+1
  3230  096C  1683               	bsf	3,5	;RP0=1, select bank3
  3231  096D  1703               	bsf	3,6	;RP1=1, select bank3
  3232  096E  0829               	movf	ftoa@fpart^(0+384),w
  3233  096F  1283               	bcf	3,5	;RP0=0, select bank0
  3234  0970  1303               	bcf	3,6	;RP1=0, select bank0
  3235  0971  00C1               	movwf	___flmul@b
  3236  0972  1683               	bsf	3,5	;RP0=1, select bank3
  3237  0973  1703               	bsf	3,6	;RP1=1, select bank3
  3238  0974  0824               	movf	(_ftoa$931+3)^(0+384),w
  3239  0975  1283               	bcf	3,5	;RP0=0, select bank0
  3240  0976  1303               	bcf	3,6	;RP1=0, select bank0
  3241  0977  00C8               	movwf	___flmul@a+3
  3242  0978  1683               	bsf	3,5	;RP0=1, select bank3
  3243  0979  1703               	bsf	3,6	;RP1=1, select bank3
  3244  097A  0823               	movf	(_ftoa$931+2)^(0+384),w
  3245  097B  1283               	bcf	3,5	;RP0=0, select bank0
  3246  097C  1303               	bcf	3,6	;RP1=0, select bank0
  3247  097D  00C7               	movwf	___flmul@a+2
  3248  097E  1683               	bsf	3,5	;RP0=1, select bank3
  3249  097F  1703               	bsf	3,6	;RP1=1, select bank3
  3250  0980  0822               	movf	(_ftoa$931+1)^(0+384),w
  3251  0981  1283               	bcf	3,5	;RP0=0, select bank0
  3252  0982  1303               	bcf	3,6	;RP1=0, select bank0
  3253  0983  00C6               	movwf	___flmul@a+1
  3254  0984  1683               	bsf	3,5	;RP0=1, select bank3
  3255  0985  1703               	bsf	3,6	;RP1=1, select bank3
  3256  0986  0821               	movf	_ftoa$931^(0+384),w
  3257  0987  1283               	bcf	3,5	;RP0=0, select bank0
  3258  0988  1303               	bcf	3,6	;RP1=0, select bank0
  3259  0989  00C5               	movwf	___flmul@a
  3260  098A  120A  118A  2495  120A  158A  	fcall	___flmul
  3261  098F  1283               	bcf	3,5	;RP0=0, select bank0
  3262  0990  1303               	bcf	3,6	;RP1=0, select bank0
  3263  0991  0844               	movf	?___flmul+3,w
  3264  0992  1683               	bsf	3,5	;RP0=1, select bank3
  3265  0993  1703               	bsf	3,6	;RP1=1, select bank3
  3266  0994  00AC               	movwf	(ftoa@fpart+3)^(0+384)
  3267  0995  1283               	bcf	3,5	;RP0=0, select bank0
  3268  0996  1303               	bcf	3,6	;RP1=0, select bank0
  3269  0997  0843               	movf	?___flmul+2,w
  3270  0998  1683               	bsf	3,5	;RP0=1, select bank3
  3271  0999  1703               	bsf	3,6	;RP1=1, select bank3
  3272  099A  00AB               	movwf	(ftoa@fpart+2)^(0+384)
  3273  099B  1283               	bcf	3,5	;RP0=0, select bank0
  3274  099C  1303               	bcf	3,6	;RP1=0, select bank0
  3275  099D  0842               	movf	?___flmul+1,w
  3276  099E  1683               	bsf	3,5	;RP0=1, select bank3
  3277  099F  1703               	bsf	3,6	;RP1=1, select bank3
  3278  09A0  00AA               	movwf	(ftoa@fpart+1)^(0+384)
  3279  09A1  1283               	bcf	3,5	;RP0=0, select bank0
  3280  09A2  1303               	bcf	3,6	;RP1=0, select bank0
  3281  09A3  0841               	movf	?___flmul,w
  3282  09A4  1683               	bsf	3,5	;RP0=1, select bank3
  3283  09A5  1703               	bsf	3,6	;RP1=1, select bank3
  3284  09A6  00A9               	movwf	ftoa@fpart^(0+384)
  3285  09A7                     l3369:	
  3286                           
  3287                           ;main.c: 251:         intToStr((int)fpart, res + i + 1, afterpoint);
  3288  09A7  082C               	movf	(ftoa@fpart+3)^(0+384),w
  3289  09A8  1683               	bsf	3,5	;RP0=1, select bank1
  3290  09A9  1303               	bcf	3,6	;RP1=0, select bank1
  3291  09AA  00BC               	movwf	(___fltol@f1+3)^(0+128)
  3292  09AB  1683               	bsf	3,5	;RP0=1, select bank3
  3293  09AC  1703               	bsf	3,6	;RP1=1, select bank3
  3294  09AD  082B               	movf	(ftoa@fpart+2)^(0+384),w
  3295  09AE  1683               	bsf	3,5	;RP0=1, select bank1
  3296  09AF  1303               	bcf	3,6	;RP1=0, select bank1
  3297  09B0  00BB               	movwf	(___fltol@f1+2)^(0+128)
  3298  09B1  1683               	bsf	3,5	;RP0=1, select bank3
  3299  09B2  1703               	bsf	3,6	;RP1=1, select bank3
  3300  09B3  082A               	movf	(ftoa@fpart+1)^(0+384),w
  3301  09B4  1683               	bsf	3,5	;RP0=1, select bank1
  3302  09B5  1303               	bcf	3,6	;RP1=0, select bank1
  3303  09B6  00BA               	movwf	(___fltol@f1+1)^(0+128)
  3304  09B7  1683               	bsf	3,5	;RP0=1, select bank3
  3305  09B8  1703               	bsf	3,6	;RP1=1, select bank3
  3306  09B9  0829               	movf	ftoa@fpart^(0+384),w
  3307  09BA  1683               	bsf	3,5	;RP0=1, select bank1
  3308  09BB  1303               	bcf	3,6	;RP1=0, select bank1
  3309  09BC  00B9               	movwf	___fltol@f1^(0+128)
  3310  09BD  160A  118A  2019  120A  158A  	fcall	___fltol
  3311  09C2  1683               	bsf	3,5	;RP0=1, select bank1
  3312  09C3  1303               	bcf	3,6	;RP1=0, select bank1
  3313  09C4  083A               	movf	(?___fltol+1)^(0+128),w
  3314  09C5  00C5               	movwf	(intToStr@x+1)^(0+128)
  3315  09C6  0839               	movf	?___fltol^(0+128),w
  3316  09C7  00C4               	movwf	intToStr@x^(0+128)
  3317  09C8  1683               	bsf	3,5	;RP0=1, select bank3
  3318  09C9  1703               	bsf	3,6	;RP1=1, select bank3
  3319  09CA  0827               	movf	ftoa@i^(0+384),w
  3320  09CB  1683               	bsf	3,5	;RP0=1, select bank1
  3321  09CC  1303               	bcf	3,6	;RP1=0, select bank1
  3322  09CD  076A               	addwf	ftoa@res^(0+128),w
  3323  09CE  3E01               	addlw	1
  3324  09CF  00ED               	movwf	??_ftoa^(0+128)
  3325  09D0  086D               	movf	??_ftoa^(0+128),w
  3326  09D1  00C6               	movwf	intToStr@str^(0+128)
  3327  09D2  086C               	movf	(ftoa@afterpoint+1)^(0+128),w
  3328  09D3  00C8               	movwf	(intToStr@d+1)^(0+128)
  3329  09D4  086B               	movf	ftoa@afterpoint^(0+128),w
  3330  09D5  00C7               	movwf	intToStr@d^(0+128)
  3331  09D6  160A  158A  245B  120A  158A  	fcall	_intToStr
  3332  09DB                     l102:	
  3333  09DB  0008               	return
  3334  09DC                     __end_of_ftoa:	
  3335                           
  3336                           	psect	text7
  3337  133E                     __ptext7:	
  3338 ;; *************** function _pow *****************
  3339 ;; Defined at:
  3340 ;;		line 5 in file "C:\Program Files (x86)\Microchip\xc8\v2.10\pic\sources\c90\common\pow.c"
  3341 ;; Parameters:    Size  Location     Type
  3342 ;;  x               4   61[BANK1 ] void 
  3343 ;;  y               4   65[BANK1 ] void 
  3344 ;; Auto vars:     Size  Location     Type
  3345 ;;  yi              4    9[BANK3 ] unsigned long 
  3346 ;;  sign            1    8[BANK3 ] unsigned char 
  3347 ;; Return value:  Size  Location     Type
  3348 ;;                  4   61[BANK1 ] unsigned char 
  3349 ;; Registers used:
  3350 ;;		wreg, fsr0l, fsr0h, status,2, status,0, btemp+1, pclath, cstack
  3351 ;; Tracked objects:
  3352 ;;		On entry : 0/0
  3353 ;;		On exit  : 0/0
  3354 ;;		Unchanged: 0/0
  3355 ;; Data sizes:     COMMON   BANK0   BANK1   BANK3   BANK2
  3356 ;;      Params:         0       0       8       0       0
  3357 ;;      Locals:         0       0       0      13       0
  3358 ;;      Temps:          0       0       1       0       0
  3359 ;;      Totals:         0       0       9      13       0
  3360 ;;Total ram usage:       22 bytes
  3361 ;; Hardware stack levels used:    1
  3362 ;; Hardware stack levels required when called:    6
  3363 ;; This function calls:
  3364 ;;		___fleq
  3365 ;;		___flge
  3366 ;;		___flmul
  3367 ;;		___flneg
  3368 ;;		___fltol
  3369 ;;		___xxtofl
  3370 ;;		_exp
  3371 ;;		_log
  3372 ;; This function is called by:
  3373 ;;		_ftoa
  3374 ;; This function uses a non-reentrant model
  3375 ;;
  3376                           
  3377                           
  3378                           ;psect for function _pow
  3379  133E                     _pow:	
  3380  133E                     l3311:	
  3381                           ;incstack = 0
  3382                           ; Regs used in _pow: [wreg-fsr0h+status,2+status,0+btemp+1+pclath+cstack]
  3383                           
  3384  133E  1683               	bsf	3,5	;RP0=1, select bank3
  3385  133F  1703               	bsf	3,6	;RP1=1, select bank3
  3386  1340  0198               	clrf	pow@sign^(0+384)
  3387  1341                     l3313:	
  3388  1341  1683               	bsf	3,5	;RP0=1, select bank1
  3389  1342  1303               	bcf	3,6	;RP1=0, select bank1
  3390  1343  0860               	movf	(pow@x+3)^(0+128),w
  3391  1344  1283               	bcf	3,5	;RP0=0, select bank0
  3392  1345  1303               	bcf	3,6	;RP1=0, select bank0
  3393  1346  00B1               	movwf	___fleq@ff1+3
  3394  1347  1683               	bsf	3,5	;RP0=1, select bank1
  3395  1348  1303               	bcf	3,6	;RP1=0, select bank1
  3396  1349  085F               	movf	(pow@x+2)^(0+128),w
  3397  134A  1283               	bcf	3,5	;RP0=0, select bank0
  3398  134B  1303               	bcf	3,6	;RP1=0, select bank0
  3399  134C  00B0               	movwf	___fleq@ff1+2
  3400  134D  1683               	bsf	3,5	;RP0=1, select bank1
  3401  134E  1303               	bcf	3,6	;RP1=0, select bank1
  3402  134F  085E               	movf	(pow@x+1)^(0+128),w
  3403  1350  1283               	bcf	3,5	;RP0=0, select bank0
  3404  1351  1303               	bcf	3,6	;RP1=0, select bank0
  3405  1352  00AF               	movwf	___fleq@ff1+1
  3406  1353  1683               	bsf	3,5	;RP0=1, select bank1
  3407  1354  1303               	bcf	3,6	;RP1=0, select bank1
  3408  1355  085D               	movf	pow@x^(0+128),w
  3409  1356  1283               	bcf	3,5	;RP0=0, select bank0
  3410  1357  1303               	bcf	3,6	;RP1=0, select bank0
  3411  1358  00AE               	movwf	___fleq@ff1
  3412  1359  3000               	movlw	0
  3413  135A  00B5               	movwf	___fleq@ff2+3
  3414  135B  3000               	movlw	0
  3415  135C  00B4               	movwf	___fleq@ff2+2
  3416  135D  3000               	movlw	0
  3417  135E  00B3               	movwf	___fleq@ff2+1
  3418  135F  3000               	movlw	0
  3419  1360  00B2               	movwf	___fleq@ff2
  3420  1361  160A  158A  2296  160A  118A  	fcall	___fleq
  3421  1366  1C03               	btfss	3,0
  3422  1367  2B69               	goto	u4491
  3423  1368  2B6A               	goto	u4490
  3424  1369                     u4491:	
  3425  1369  2BA6               	goto	l3321
  3426  136A                     u4490:	
  3427  136A                     l3315:	
  3428  136A  3000               	movlw	0
  3429  136B  1283               	bcf	3,5	;RP0=0, select bank0
  3430  136C  1303               	bcf	3,6	;RP1=0, select bank0
  3431  136D  00A3               	movwf	___flge@ff1+3
  3432  136E  3000               	movlw	0
  3433  136F  00A2               	movwf	___flge@ff1+2
  3434  1370  3000               	movlw	0
  3435  1371  00A1               	movwf	___flge@ff1+1
  3436  1372  3000               	movlw	0
  3437  1373  00A0               	movwf	___flge@ff1
  3438  1374  1683               	bsf	3,5	;RP0=1, select bank1
  3439  1375  1303               	bcf	3,6	;RP1=0, select bank1
  3440  1376  0864               	movf	(pow@y+3)^(0+128),w
  3441  1377  1283               	bcf	3,5	;RP0=0, select bank0
  3442  1378  1303               	bcf	3,6	;RP1=0, select bank0
  3443  1379  00A7               	movwf	___flge@ff2+3
  3444  137A  1683               	bsf	3,5	;RP0=1, select bank1
  3445  137B  1303               	bcf	3,6	;RP1=0, select bank1
  3446  137C  0863               	movf	(pow@y+2)^(0+128),w
  3447  137D  1283               	bcf	3,5	;RP0=0, select bank0
  3448  137E  1303               	bcf	3,6	;RP1=0, select bank0
  3449  137F  00A6               	movwf	___flge@ff2+2
  3450  1380  1683               	bsf	3,5	;RP0=1, select bank1
  3451  1381  1303               	bcf	3,6	;RP1=0, select bank1
  3452  1382  0862               	movf	(pow@y+1)^(0+128),w
  3453  1383  1283               	bcf	3,5	;RP0=0, select bank0
  3454  1384  1303               	bcf	3,6	;RP1=0, select bank0
  3455  1385  00A5               	movwf	___flge@ff2+1
  3456  1386  1683               	bsf	3,5	;RP0=1, select bank1
  3457  1387  1303               	bcf	3,6	;RP1=0, select bank1
  3458  1388  0861               	movf	pow@y^(0+128),w
  3459  1389  1283               	bcf	3,5	;RP0=0, select bank0
  3460  138A  1303               	bcf	3,6	;RP1=0, select bank0
  3461  138B  00A4               	movwf	___flge@ff2
  3462  138C  160A  158A  24F8  160A  118A  	fcall	___flge
  3463  1391  1C03               	btfss	3,0
  3464  1392  2B94               	goto	u4501
  3465  1393  2B95               	goto	u4500
  3466  1394                     u4501:	
  3467  1394  2B9B               	goto	l708
  3468  1395                     u4500:	
  3469  1395                     l3317:	
  3470  1395  3021               	movlw	33
  3471  1396  1683               	bsf	3,5	;RP0=1, select bank3
  3472  1397  1703               	bsf	3,6	;RP1=1, select bank3
  3473  1398  00D2               	movwf	_errno^(0+384)
  3474  1399  3000               	movlw	0
  3475  139A  00D3               	movwf	(_errno^(0+384)+1)
  3476  139B                     l708:	
  3477  139B  3000               	movlw	0
  3478  139C  1683               	bsf	3,5	;RP0=1, select bank1
  3479  139D  1303               	bcf	3,6	;RP1=0, select bank1
  3480  139E  00E0               	movwf	(?_pow+3)^(0+128)
  3481  139F  3000               	movlw	0
  3482  13A0  00DF               	movwf	(?_pow+2)^(0+128)
  3483  13A1  3000               	movlw	0
  3484  13A2  00DE               	movwf	(?_pow+1)^(0+128)
  3485  13A3  3000               	movlw	0
  3486  13A4  00DD               	movwf	?_pow^(0+128)
  3487  13A5  2D98               	goto	l709
  3488  13A6                     l3321:	
  3489  13A6  1683               	bsf	3,5	;RP0=1, select bank1
  3490  13A7  1303               	bcf	3,6	;RP1=0, select bank1
  3491  13A8  0864               	movf	(pow@y+3)^(0+128),w
  3492  13A9  1283               	bcf	3,5	;RP0=0, select bank0
  3493  13AA  1303               	bcf	3,6	;RP1=0, select bank0
  3494  13AB  00B1               	movwf	___fleq@ff1+3
  3495  13AC  1683               	bsf	3,5	;RP0=1, select bank1
  3496  13AD  1303               	bcf	3,6	;RP1=0, select bank1
  3497  13AE  0863               	movf	(pow@y+2)^(0+128),w
  3498  13AF  1283               	bcf	3,5	;RP0=0, select bank0
  3499  13B0  1303               	bcf	3,6	;RP1=0, select bank0
  3500  13B1  00B0               	movwf	___fleq@ff1+2
  3501  13B2  1683               	bsf	3,5	;RP0=1, select bank1
  3502  13B3  1303               	bcf	3,6	;RP1=0, select bank1
  3503  13B4  0862               	movf	(pow@y+1)^(0+128),w
  3504  13B5  1283               	bcf	3,5	;RP0=0, select bank0
  3505  13B6  1303               	bcf	3,6	;RP1=0, select bank0
  3506  13B7  00AF               	movwf	___fleq@ff1+1
  3507  13B8  1683               	bsf	3,5	;RP0=1, select bank1
  3508  13B9  1303               	bcf	3,6	;RP1=0, select bank1
  3509  13BA  0861               	movf	pow@y^(0+128),w
  3510  13BB  1283               	bcf	3,5	;RP0=0, select bank0
  3511  13BC  1303               	bcf	3,6	;RP1=0, select bank0
  3512  13BD  00AE               	movwf	___fleq@ff1
  3513  13BE  3000               	movlw	0
  3514  13BF  00B5               	movwf	___fleq@ff2+3
  3515  13C0  3000               	movlw	0
  3516  13C1  00B4               	movwf	___fleq@ff2+2
  3517  13C2  3000               	movlw	0
  3518  13C3  00B3               	movwf	___fleq@ff2+1
  3519  13C4  3000               	movlw	0
  3520  13C5  00B2               	movwf	___fleq@ff2
  3521  13C6  160A  158A  2296  160A  118A  	fcall	___fleq
  3522  13CB  1C03               	btfss	3,0
  3523  13CC  2BCE               	goto	u4511
  3524  13CD  2BCF               	goto	u4510
  3525  13CE                     u4511:	
  3526  13CE  2BDA               	goto	l3327
  3527  13CF                     u4510:	
  3528  13CF                     l3323:	
  3529  13CF  303F               	movlw	63
  3530  13D0  1683               	bsf	3,5	;RP0=1, select bank1
  3531  13D1  1303               	bcf	3,6	;RP1=0, select bank1
  3532  13D2  00E0               	movwf	(?_pow+3)^(0+128)
  3533  13D3  3080               	movlw	128
  3534  13D4  00DF               	movwf	(?_pow+2)^(0+128)
  3535  13D5  3000               	movlw	0
  3536  13D6  00DE               	movwf	(?_pow+1)^(0+128)
  3537  13D7  3000               	movlw	0
  3538  13D8  00DD               	movwf	?_pow^(0+128)
  3539  13D9  2D98               	goto	l709
  3540  13DA                     l3327:	
  3541  13DA  1683               	bsf	3,5	;RP0=1, select bank1
  3542  13DB  1303               	bcf	3,6	;RP1=0, select bank1
  3543  13DC  0860               	movf	(pow@x+3)^(0+128),w
  3544  13DD  1283               	bcf	3,5	;RP0=0, select bank0
  3545  13DE  1303               	bcf	3,6	;RP1=0, select bank0
  3546  13DF  00A3               	movwf	___flge@ff1+3
  3547  13E0  1683               	bsf	3,5	;RP0=1, select bank1
  3548  13E1  1303               	bcf	3,6	;RP1=0, select bank1
  3549  13E2  085F               	movf	(pow@x+2)^(0+128),w
  3550  13E3  1283               	bcf	3,5	;RP0=0, select bank0
  3551  13E4  1303               	bcf	3,6	;RP1=0, select bank0
  3552  13E5  00A2               	movwf	___flge@ff1+2
  3553  13E6  1683               	bsf	3,5	;RP0=1, select bank1
  3554  13E7  1303               	bcf	3,6	;RP1=0, select bank1
  3555  13E8  085E               	movf	(pow@x+1)^(0+128),w
  3556  13E9  1283               	bcf	3,5	;RP0=0, select bank0
  3557  13EA  1303               	bcf	3,6	;RP1=0, select bank0
  3558  13EB  00A1               	movwf	___flge@ff1+1
  3559  13EC  1683               	bsf	3,5	;RP0=1, select bank1
  3560  13ED  1303               	bcf	3,6	;RP1=0, select bank1
  3561  13EE  085D               	movf	pow@x^(0+128),w
  3562  13EF  1283               	bcf	3,5	;RP0=0, select bank0
  3563  13F0  1303               	bcf	3,6	;RP1=0, select bank0
  3564  13F1  00A0               	movwf	___flge@ff1
  3565  13F2  3000               	movlw	0
  3566  13F3  00A7               	movwf	___flge@ff2+3
  3567  13F4  3000               	movlw	0
  3568  13F5  00A6               	movwf	___flge@ff2+2
  3569  13F6  3000               	movlw	0
  3570  13F7  00A5               	movwf	___flge@ff2+1
  3571  13F8  3000               	movlw	0
  3572  13F9  00A4               	movwf	___flge@ff2
  3573  13FA  160A  158A  24F8  160A  118A  	fcall	___flge
  3574  13FF  1803               	btfsc	3,0
  3575  1400  2C02               	goto	u4521
  3576  1401  2C03               	goto	u4520
  3577  1402                     u4521:	
  3578  1402  2CC2               	goto	l3339
  3579  1403                     u4520:	
  3580  1403                     l3329:	
  3581  1403  1683               	bsf	3,5	;RP0=1, select bank1
  3582  1404  1303               	bcf	3,6	;RP1=0, select bank1
  3583  1405  0864               	movf	(pow@y+3)^(0+128),w
  3584  1406  00BC               	movwf	(___fltol@f1+3)^(0+128)
  3585  1407  0863               	movf	(pow@y+2)^(0+128),w
  3586  1408  00BB               	movwf	(___fltol@f1+2)^(0+128)
  3587  1409  0862               	movf	(pow@y+1)^(0+128),w
  3588  140A  00BA               	movwf	(___fltol@f1+1)^(0+128)
  3589  140B  0861               	movf	pow@y^(0+128),w
  3590  140C  00B9               	movwf	___fltol@f1^(0+128)
  3591  140D  160A  118A  2019  160A  118A  	fcall	___fltol
  3592  1412  1683               	bsf	3,5	;RP0=1, select bank1
  3593  1413  1303               	bcf	3,6	;RP1=0, select bank1
  3594  1414  083C               	movf	(?___fltol+3)^(0+128),w
  3595  1415  1683               	bsf	3,5	;RP0=1, select bank3
  3596  1416  1703               	bsf	3,6	;RP1=1, select bank3
  3597  1417  009C               	movwf	(pow@yi+3)^(0+384)
  3598  1418  1683               	bsf	3,5	;RP0=1, select bank1
  3599  1419  1303               	bcf	3,6	;RP1=0, select bank1
  3600  141A  083B               	movf	(?___fltol+2)^(0+128),w
  3601  141B  1683               	bsf	3,5	;RP0=1, select bank3
  3602  141C  1703               	bsf	3,6	;RP1=1, select bank3
  3603  141D  009B               	movwf	(pow@yi+2)^(0+384)
  3604  141E  1683               	bsf	3,5	;RP0=1, select bank1
  3605  141F  1303               	bcf	3,6	;RP1=0, select bank1
  3606  1420  083A               	movf	(?___fltol+1)^(0+128),w
  3607  1421  1683               	bsf	3,5	;RP0=1, select bank3
  3608  1422  1703               	bsf	3,6	;RP1=1, select bank3
  3609  1423  009A               	movwf	(pow@yi+1)^(0+384)
  3610  1424  1683               	bsf	3,5	;RP0=1, select bank1
  3611  1425  1303               	bcf	3,6	;RP1=0, select bank1
  3612  1426  0839               	movf	?___fltol^(0+128),w
  3613  1427  1683               	bsf	3,5	;RP0=1, select bank3
  3614  1428  1703               	bsf	3,6	;RP1=1, select bank3
  3615  1429  0099               	movwf	pow@yi^(0+384)
  3616  142A  081C               	movf	(pow@yi+3)^(0+384),w
  3617  142B  1283               	bcf	3,5	;RP0=0, select bank0
  3618  142C  1303               	bcf	3,6	;RP1=0, select bank0
  3619  142D  00A3               	movwf	___xxtofl@val+3
  3620  142E  1683               	bsf	3,5	;RP0=1, select bank3
  3621  142F  1703               	bsf	3,6	;RP1=1, select bank3
  3622  1430  081B               	movf	(pow@yi+2)^(0+384),w
  3623  1431  1283               	bcf	3,5	;RP0=0, select bank0
  3624  1432  1303               	bcf	3,6	;RP1=0, select bank0
  3625  1433  00A2               	movwf	___xxtofl@val+2
  3626  1434  1683               	bsf	3,5	;RP0=1, select bank3
  3627  1435  1703               	bsf	3,6	;RP1=1, select bank3
  3628  1436  081A               	movf	(pow@yi+1)^(0+384),w
  3629  1437  1283               	bcf	3,5	;RP0=0, select bank0
  3630  1438  1303               	bcf	3,6	;RP1=0, select bank0
  3631  1439  00A1               	movwf	___xxtofl@val+1
  3632  143A  1683               	bsf	3,5	;RP0=1, select bank3
  3633  143B  1703               	bsf	3,6	;RP1=1, select bank3
  3634  143C  0819               	movf	pow@yi^(0+384),w
  3635  143D  1283               	bcf	3,5	;RP0=0, select bank0
  3636  143E  1303               	bcf	3,6	;RP1=0, select bank0
  3637  143F  00A0               	movwf	___xxtofl@val
  3638  1440  3000               	movlw	0
  3639  1441  160A  158A  259C  160A  118A  	fcall	___xxtofl
  3640  1446  1283               	bcf	3,5	;RP0=0, select bank0
  3641  1447  1303               	bcf	3,6	;RP1=0, select bank0
  3642  1448  0823               	movf	?___xxtofl+3,w
  3643  1449  00B1               	movwf	___fleq@ff1+3
  3644  144A  0822               	movf	?___xxtofl+2,w
  3645  144B  00B0               	movwf	___fleq@ff1+2
  3646  144C  0821               	movf	?___xxtofl+1,w
  3647  144D  00AF               	movwf	___fleq@ff1+1
  3648  144E  0820               	movf	?___xxtofl,w
  3649  144F  00AE               	movwf	___fleq@ff1
  3650  1450  1683               	bsf	3,5	;RP0=1, select bank1
  3651  1451  1303               	bcf	3,6	;RP1=0, select bank1
  3652  1452  0864               	movf	(pow@y+3)^(0+128),w
  3653  1453  1283               	bcf	3,5	;RP0=0, select bank0
  3654  1454  1303               	bcf	3,6	;RP1=0, select bank0
  3655  1455  00B5               	movwf	___fleq@ff2+3
  3656  1456  1683               	bsf	3,5	;RP0=1, select bank1
  3657  1457  1303               	bcf	3,6	;RP1=0, select bank1
  3658  1458  0863               	movf	(pow@y+2)^(0+128),w
  3659  1459  1283               	bcf	3,5	;RP0=0, select bank0
  3660  145A  1303               	bcf	3,6	;RP1=0, select bank0
  3661  145B  00B4               	movwf	___fleq@ff2+2
  3662  145C  1683               	bsf	3,5	;RP0=1, select bank1
  3663  145D  1303               	bcf	3,6	;RP1=0, select bank1
  3664  145E  0862               	movf	(pow@y+1)^(0+128),w
  3665  145F  1283               	bcf	3,5	;RP0=0, select bank0
  3666  1460  1303               	bcf	3,6	;RP1=0, select bank0
  3667  1461  00B3               	movwf	___fleq@ff2+1
  3668  1462  1683               	bsf	3,5	;RP0=1, select bank1
  3669  1463  1303               	bcf	3,6	;RP1=0, select bank1
  3670  1464  0861               	movf	pow@y^(0+128),w
  3671  1465  1283               	bcf	3,5	;RP0=0, select bank0
  3672  1466  1303               	bcf	3,6	;RP1=0, select bank0
  3673  1467  00B2               	movwf	___fleq@ff2
  3674  1468  160A  158A  2296  160A  118A  	fcall	___fleq
  3675  146D  1803               	btfsc	3,0
  3676  146E  2C70               	goto	u4531
  3677  146F  2C71               	goto	u4530
  3678  1470                     u4531:	
  3679  1470  2C82               	goto	l3335
  3680  1471                     u4530:	
  3681  1471                     l3331:	
  3682  1471  3021               	movlw	33
  3683  1472  1683               	bsf	3,5	;RP0=1, select bank3
  3684  1473  1703               	bsf	3,6	;RP1=1, select bank3
  3685  1474  00D2               	movwf	_errno^(0+384)
  3686  1475  3000               	movlw	0
  3687  1476  00D3               	movwf	(_errno^(0+384)+1)
  3688  1477  3000               	movlw	0
  3689  1478  1683               	bsf	3,5	;RP0=1, select bank1
  3690  1479  1303               	bcf	3,6	;RP1=0, select bank1
  3691  147A  00E0               	movwf	(?_pow+3)^(0+128)
  3692  147B  3000               	movlw	0
  3693  147C  00DF               	movwf	(?_pow+2)^(0+128)
  3694  147D  3000               	movlw	0
  3695  147E  00DE               	movwf	(?_pow+1)^(0+128)
  3696  147F  3000               	movlw	0
  3697  1480  00DD               	movwf	?_pow^(0+128)
  3698  1481  2D98               	goto	l709
  3699  1482                     l3335:	
  3700  1482  1683               	bsf	3,5	;RP0=1, select bank3
  3701  1483  1703               	bsf	3,6	;RP1=1, select bank3
  3702  1484  0819               	movf	pow@yi^(0+384),w
  3703  1485  3901               	andlw	1
  3704  1486  1683               	bsf	3,5	;RP0=1, select bank1
  3705  1487  1303               	bcf	3,6	;RP1=0, select bank1
  3706  1488  00E5               	movwf	??_pow^(0+128)
  3707  1489  0865               	movf	??_pow^(0+128),w
  3708  148A  1683               	bsf	3,5	;RP0=1, select bank3
  3709  148B  1703               	bsf	3,6	;RP1=1, select bank3
  3710  148C  0098               	movwf	pow@sign^(0+384)
  3711  148D                     l3337:	
  3712  148D  1683               	bsf	3,5	;RP0=1, select bank1
  3713  148E  1303               	bcf	3,6	;RP1=0, select bank1
  3714  148F  0860               	movf	(pow@x+3)^(0+128),w
  3715  1490  1283               	bcf	3,5	;RP0=0, select bank0
  3716  1491  1303               	bcf	3,6	;RP1=0, select bank0
  3717  1492  00A3               	movwf	___flneg@f1+3
  3718  1493  1683               	bsf	3,5	;RP0=1, select bank1
  3719  1494  1303               	bcf	3,6	;RP1=0, select bank1
  3720  1495  085F               	movf	(pow@x+2)^(0+128),w
  3721  1496  1283               	bcf	3,5	;RP0=0, select bank0
  3722  1497  1303               	bcf	3,6	;RP1=0, select bank0
  3723  1498  00A2               	movwf	___flneg@f1+2
  3724  1499  1683               	bsf	3,5	;RP0=1, select bank1
  3725  149A  1303               	bcf	3,6	;RP1=0, select bank1
  3726  149B  085E               	movf	(pow@x+1)^(0+128),w
  3727  149C  1283               	bcf	3,5	;RP0=0, select bank0
  3728  149D  1303               	bcf	3,6	;RP1=0, select bank0
  3729  149E  00A1               	movwf	___flneg@f1+1
  3730  149F  1683               	bsf	3,5	;RP0=1, select bank1
  3731  14A0  1303               	bcf	3,6	;RP1=0, select bank1
  3732  14A1  085D               	movf	pow@x^(0+128),w
  3733  14A2  1283               	bcf	3,5	;RP0=0, select bank0
  3734  14A3  1303               	bcf	3,6	;RP1=0, select bank0
  3735  14A4  00A0               	movwf	___flneg@f1
  3736  14A5  160A  158A  2131  160A  118A  	fcall	___flneg
  3737  14AA  1283               	bcf	3,5	;RP0=0, select bank0
  3738  14AB  1303               	bcf	3,6	;RP1=0, select bank0
  3739  14AC  0823               	movf	?___flneg+3,w
  3740  14AD  1683               	bsf	3,5	;RP0=1, select bank1
  3741  14AE  1303               	bcf	3,6	;RP1=0, select bank1
  3742  14AF  00E0               	movwf	(pow@x+3)^(0+128)
  3743  14B0  1283               	bcf	3,5	;RP0=0, select bank0
  3744  14B1  1303               	bcf	3,6	;RP1=0, select bank0
  3745  14B2  0822               	movf	?___flneg+2,w
  3746  14B3  1683               	bsf	3,5	;RP0=1, select bank1
  3747  14B4  1303               	bcf	3,6	;RP1=0, select bank1
  3748  14B5  00DF               	movwf	(pow@x+2)^(0+128)
  3749  14B6  1283               	bcf	3,5	;RP0=0, select bank0
  3750  14B7  1303               	bcf	3,6	;RP1=0, select bank0
  3751  14B8  0821               	movf	?___flneg+1,w
  3752  14B9  1683               	bsf	3,5	;RP0=1, select bank1
  3753  14BA  1303               	bcf	3,6	;RP1=0, select bank1
  3754  14BB  00DE               	movwf	(pow@x+1)^(0+128)
  3755  14BC  1283               	bcf	3,5	;RP0=0, select bank0
  3756  14BD  1303               	bcf	3,6	;RP1=0, select bank0
  3757  14BE  0820               	movf	?___flneg,w
  3758  14BF  1683               	bsf	3,5	;RP0=1, select bank1
  3759  14C0  1303               	bcf	3,6	;RP1=0, select bank1
  3760  14C1  00DD               	movwf	pow@x^(0+128)
  3761  14C2                     l3339:	
  3762  14C2  1683               	bsf	3,5	;RP0=1, select bank1
  3763  14C3  1303               	bcf	3,6	;RP1=0, select bank1
  3764  14C4  0860               	movf	(pow@x+3)^(0+128),w
  3765  14C5  00CC               	movwf	(log@x+3)^(0+128)
  3766  14C6  085F               	movf	(pow@x+2)^(0+128),w
  3767  14C7  00CB               	movwf	(log@x+2)^(0+128)
  3768  14C8  085E               	movf	(pow@x+1)^(0+128),w
  3769  14C9  00CA               	movwf	(log@x+1)^(0+128)
  3770  14CA  085D               	movf	pow@x^(0+128),w
  3771  14CB  00C9               	movwf	log@x^(0+128)
  3772  14CC  160A  118A  21CC  160A  118A  	fcall	_log
  3773  14D1  1683               	bsf	3,5	;RP0=1, select bank1
  3774  14D2  1303               	bcf	3,6	;RP1=0, select bank1
  3775  14D3  084C               	movf	(?_log+3)^(0+128),w
  3776  14D4  1683               	bsf	3,5	;RP0=1, select bank3
  3777  14D5  1703               	bsf	3,6	;RP1=1, select bank3
  3778  14D6  0093               	movwf	(_pow$932+3)^(0+384)
  3779  14D7  1683               	bsf	3,5	;RP0=1, select bank1
  3780  14D8  1303               	bcf	3,6	;RP1=0, select bank1
  3781  14D9  084B               	movf	(?_log+2)^(0+128),w
  3782  14DA  1683               	bsf	3,5	;RP0=1, select bank3
  3783  14DB  1703               	bsf	3,6	;RP1=1, select bank3
  3784  14DC  0092               	movwf	(_pow$932+2)^(0+384)
  3785  14DD  1683               	bsf	3,5	;RP0=1, select bank1
  3786  14DE  1303               	bcf	3,6	;RP1=0, select bank1
  3787  14DF  084A               	movf	(?_log+1)^(0+128),w
  3788  14E0  1683               	bsf	3,5	;RP0=1, select bank3
  3789  14E1  1703               	bsf	3,6	;RP1=1, select bank3
  3790  14E2  0091               	movwf	(_pow$932+1)^(0+384)
  3791  14E3  1683               	bsf	3,5	;RP0=1, select bank1
  3792  14E4  1303               	bcf	3,6	;RP1=0, select bank1
  3793  14E5  0849               	movf	?_log^(0+128),w
  3794  14E6  1683               	bsf	3,5	;RP0=1, select bank3
  3795  14E7  1703               	bsf	3,6	;RP1=1, select bank3
  3796  14E8  0090               	movwf	_pow$932^(0+384)
  3797  14E9                     l3341:	
  3798  14E9  1683               	bsf	3,5	;RP0=1, select bank1
  3799  14EA  1303               	bcf	3,6	;RP1=0, select bank1
  3800  14EB  0864               	movf	(pow@y+3)^(0+128),w
  3801  14EC  1283               	bcf	3,5	;RP0=0, select bank0
  3802  14ED  1303               	bcf	3,6	;RP1=0, select bank0
  3803  14EE  00C4               	movwf	___flmul@b+3
  3804  14EF  1683               	bsf	3,5	;RP0=1, select bank1
  3805  14F0  1303               	bcf	3,6	;RP1=0, select bank1
  3806  14F1  0863               	movf	(pow@y+2)^(0+128),w
  3807  14F2  1283               	bcf	3,5	;RP0=0, select bank0
  3808  14F3  1303               	bcf	3,6	;RP1=0, select bank0
  3809  14F4  00C3               	movwf	___flmul@b+2
  3810  14F5  1683               	bsf	3,5	;RP0=1, select bank1
  3811  14F6  1303               	bcf	3,6	;RP1=0, select bank1
  3812  14F7  0862               	movf	(pow@y+1)^(0+128),w
  3813  14F8  1283               	bcf	3,5	;RP0=0, select bank0
  3814  14F9  1303               	bcf	3,6	;RP1=0, select bank0
  3815  14FA  00C2               	movwf	___flmul@b+1
  3816  14FB  1683               	bsf	3,5	;RP0=1, select bank1
  3817  14FC  1303               	bcf	3,6	;RP1=0, select bank1
  3818  14FD  0861               	movf	pow@y^(0+128),w
  3819  14FE  1283               	bcf	3,5	;RP0=0, select bank0
  3820  14FF  1303               	bcf	3,6	;RP1=0, select bank0
  3821  1500  00C1               	movwf	___flmul@b
  3822  1501  1683               	bsf	3,5	;RP0=1, select bank3
  3823  1502  1703               	bsf	3,6	;RP1=1, select bank3
  3824  1503  0813               	movf	(_pow$932+3)^(0+384),w
  3825  1504  1283               	bcf	3,5	;RP0=0, select bank0
  3826  1505  1303               	bcf	3,6	;RP1=0, select bank0
  3827  1506  00C8               	movwf	___flmul@a+3
  3828  1507  1683               	bsf	3,5	;RP0=1, select bank3
  3829  1508  1703               	bsf	3,6	;RP1=1, select bank3
  3830  1509  0812               	movf	(_pow$932+2)^(0+384),w
  3831  150A  1283               	bcf	3,5	;RP0=0, select bank0
  3832  150B  1303               	bcf	3,6	;RP1=0, select bank0
  3833  150C  00C7               	movwf	___flmul@a+2
  3834  150D  1683               	bsf	3,5	;RP0=1, select bank3
  3835  150E  1703               	bsf	3,6	;RP1=1, select bank3
  3836  150F  0811               	movf	(_pow$932+1)^(0+384),w
  3837  1510  1283               	bcf	3,5	;RP0=0, select bank0
  3838  1511  1303               	bcf	3,6	;RP1=0, select bank0
  3839  1512  00C6               	movwf	___flmul@a+1
  3840  1513  1683               	bsf	3,5	;RP0=1, select bank3
  3841  1514  1703               	bsf	3,6	;RP1=1, select bank3
  3842  1515  0810               	movf	_pow$932^(0+384),w
  3843  1516  1283               	bcf	3,5	;RP0=0, select bank0
  3844  1517  1303               	bcf	3,6	;RP1=0, select bank0
  3845  1518  00C5               	movwf	___flmul@a
  3846  1519  120A  118A  2495  160A  118A  	fcall	___flmul
  3847  151E  1283               	bcf	3,5	;RP0=0, select bank0
  3848  151F  1303               	bcf	3,6	;RP1=0, select bank0
  3849  1520  0844               	movf	?___flmul+3,w
  3850  1521  1683               	bsf	3,5	;RP0=1, select bank3
  3851  1522  1703               	bsf	3,6	;RP1=1, select bank3
  3852  1523  0097               	movwf	(_pow$933+3)^(0+384)
  3853  1524  1283               	bcf	3,5	;RP0=0, select bank0
  3854  1525  1303               	bcf	3,6	;RP1=0, select bank0
  3855  1526  0843               	movf	?___flmul+2,w
  3856  1527  1683               	bsf	3,5	;RP0=1, select bank3
  3857  1528  1703               	bsf	3,6	;RP1=1, select bank3
  3858  1529  0096               	movwf	(_pow$933+2)^(0+384)
  3859  152A  1283               	bcf	3,5	;RP0=0, select bank0
  3860  152B  1303               	bcf	3,6	;RP1=0, select bank0
  3861  152C  0842               	movf	?___flmul+1,w
  3862  152D  1683               	bsf	3,5	;RP0=1, select bank3
  3863  152E  1703               	bsf	3,6	;RP1=1, select bank3
  3864  152F  0095               	movwf	(_pow$933+1)^(0+384)
  3865  1530  1283               	bcf	3,5	;RP0=0, select bank0
  3866  1531  1303               	bcf	3,6	;RP1=0, select bank0
  3867  1532  0841               	movf	?___flmul,w
  3868  1533  1683               	bsf	3,5	;RP0=1, select bank3
  3869  1534  1703               	bsf	3,6	;RP1=1, select bank3
  3870  1535  0094               	movwf	_pow$933^(0+384)
  3871  1536                     l3343:	
  3872  1536  0817               	movf	(_pow$933+3)^(0+384),w
  3873  1537  1683               	bsf	3,5	;RP0=1, select bank1
  3874  1538  1303               	bcf	3,6	;RP1=0, select bank1
  3875  1539  00D4               	movwf	(exp@x+3)^(0+128)
  3876  153A  1683               	bsf	3,5	;RP0=1, select bank3
  3877  153B  1703               	bsf	3,6	;RP1=1, select bank3
  3878  153C  0816               	movf	(_pow$933+2)^(0+384),w
  3879  153D  1683               	bsf	3,5	;RP0=1, select bank1
  3880  153E  1303               	bcf	3,6	;RP1=0, select bank1
  3881  153F  00D3               	movwf	(exp@x+2)^(0+128)
  3882  1540  1683               	bsf	3,5	;RP0=1, select bank3
  3883  1541  1703               	bsf	3,6	;RP1=1, select bank3
  3884  1542  0815               	movf	(_pow$933+1)^(0+384),w
  3885  1543  1683               	bsf	3,5	;RP0=1, select bank1
  3886  1544  1303               	bcf	3,6	;RP1=0, select bank1
  3887  1545  00D2               	movwf	(exp@x+1)^(0+128)
  3888  1546  1683               	bsf	3,5	;RP0=1, select bank3
  3889  1547  1703               	bsf	3,6	;RP1=1, select bank3
  3890  1548  0814               	movf	_pow$933^(0+384),w
  3891  1549  1683               	bsf	3,5	;RP0=1, select bank1
  3892  154A  1303               	bcf	3,6	;RP1=0, select bank1
  3893  154B  00D1               	movwf	exp@x^(0+128)
  3894  154C  160A  118A  2599  160A  118A  	fcall	_exp
  3895  1551  1683               	bsf	3,5	;RP0=1, select bank1
  3896  1552  1303               	bcf	3,6	;RP1=0, select bank1
  3897  1553  0854               	movf	(?_exp+3)^(0+128),w
  3898  1554  00E0               	movwf	(pow@x+3)^(0+128)
  3899  1555  0853               	movf	(?_exp+2)^(0+128),w
  3900  1556  00DF               	movwf	(pow@x+2)^(0+128)
  3901  1557  0852               	movf	(?_exp+1)^(0+128),w
  3902  1558  00DE               	movwf	(pow@x+1)^(0+128)
  3903  1559  0851               	movf	?_exp^(0+128),w
  3904  155A  00DD               	movwf	pow@x^(0+128)
  3905  155B                     l3345:	
  3906  155B  1683               	bsf	3,5	;RP0=1, select bank3
  3907  155C  1703               	bsf	3,6	;RP1=1, select bank3
  3908  155D  0818               	movf	pow@sign^(0+384),w
  3909  155E  1903               	btfsc	3,2
  3910  155F  2D61               	goto	u4541
  3911  1560  2D62               	goto	u4540
  3912  1561                     u4541:	
  3913  1561  2D98               	goto	l713
  3914  1562                     u4540:	
  3915  1562                     l3347:	
  3916  1562  1683               	bsf	3,5	;RP0=1, select bank1
  3917  1563  1303               	bcf	3,6	;RP1=0, select bank1
  3918  1564  0860               	movf	(pow@x+3)^(0+128),w
  3919  1565  1283               	bcf	3,5	;RP0=0, select bank0
  3920  1566  1303               	bcf	3,6	;RP1=0, select bank0
  3921  1567  00A3               	movwf	___flneg@f1+3
  3922  1568  1683               	bsf	3,5	;RP0=1, select bank1
  3923  1569  1303               	bcf	3,6	;RP1=0, select bank1
  3924  156A  085F               	movf	(pow@x+2)^(0+128),w
  3925  156B  1283               	bcf	3,5	;RP0=0, select bank0
  3926  156C  1303               	bcf	3,6	;RP1=0, select bank0
  3927  156D  00A2               	movwf	___flneg@f1+2
  3928  156E  1683               	bsf	3,5	;RP0=1, select bank1
  3929  156F  1303               	bcf	3,6	;RP1=0, select bank1
  3930  1570  085E               	movf	(pow@x+1)^(0+128),w
  3931  1571  1283               	bcf	3,5	;RP0=0, select bank0
  3932  1572  1303               	bcf	3,6	;RP1=0, select bank0
  3933  1573  00A1               	movwf	___flneg@f1+1
  3934  1574  1683               	bsf	3,5	;RP0=1, select bank1
  3935  1575  1303               	bcf	3,6	;RP1=0, select bank1
  3936  1576  085D               	movf	pow@x^(0+128),w
  3937  1577  1283               	bcf	3,5	;RP0=0, select bank0
  3938  1578  1303               	bcf	3,6	;RP1=0, select bank0
  3939  1579  00A0               	movwf	___flneg@f1
  3940  157A  160A  158A  2131  160A  118A  	fcall	___flneg
  3941  157F  1283               	bcf	3,5	;RP0=0, select bank0
  3942  1580  1303               	bcf	3,6	;RP1=0, select bank0
  3943  1581  0823               	movf	?___flneg+3,w
  3944  1582  1683               	bsf	3,5	;RP0=1, select bank1
  3945  1583  1303               	bcf	3,6	;RP1=0, select bank1
  3946  1584  00E0               	movwf	(?_pow+3)^(0+128)
  3947  1585  1283               	bcf	3,5	;RP0=0, select bank0
  3948  1586  1303               	bcf	3,6	;RP1=0, select bank0
  3949  1587  0822               	movf	?___flneg+2,w
  3950  1588  1683               	bsf	3,5	;RP0=1, select bank1
  3951  1589  1303               	bcf	3,6	;RP1=0, select bank1
  3952  158A  00DF               	movwf	(?_pow+2)^(0+128)
  3953  158B  1283               	bcf	3,5	;RP0=0, select bank0
  3954  158C  1303               	bcf	3,6	;RP1=0, select bank0
  3955  158D  0821               	movf	?___flneg+1,w
  3956  158E  1683               	bsf	3,5	;RP0=1, select bank1
  3957  158F  1303               	bcf	3,6	;RP1=0, select bank1
  3958  1590  00DE               	movwf	(?_pow+1)^(0+128)
  3959  1591  1283               	bcf	3,5	;RP0=0, select bank0
  3960  1592  1303               	bcf	3,6	;RP1=0, select bank0
  3961  1593  0820               	movf	?___flneg,w
  3962  1594  1683               	bsf	3,5	;RP0=1, select bank1
  3963  1595  1303               	bcf	3,6	;RP1=0, select bank1
  3964  1596  00DD               	movwf	?_pow^(0+128)
  3965  1597  2D98               	goto	l709
  3966  1598                     l713:	
  3967  1598                     l709:	
  3968  1598  0008               	return
  3969  1599                     __end_of_pow:	
  3970                           
  3971                           	psect	text8
  3972  11CC                     __ptext8:	
  3973 ;; *************** function _log *****************
  3974 ;; Defined at:
  3975 ;;		line 5 in file "C:\Program Files (x86)\Microchip\xc8\v2.10\pic\sources\c90\common\log.c"
  3976 ;; Parameters:    Size  Location     Type
  3977 ;;  x               4   41[BANK1 ] unsigned char 
  3978 ;; Auto vars:     Size  Location     Type
  3979 ;;  exponent        2   46[BANK1 ] int 
  3980 ;; Return value:  Size  Location     Type
  3981 ;;                  4   41[BANK1 ] int 
  3982 ;; Registers used:
  3983 ;;		wreg, fsr0l, fsr0h, status,2, status,0, btemp+1, pclath, cstack
  3984 ;; Tracked objects:
  3985 ;;		On entry : 0/0
  3986 ;;		On exit  : 0/0
  3987 ;;		Unchanged: 0/0
  3988 ;; Data sizes:     COMMON   BANK0   BANK1   BANK3   BANK2
  3989 ;;      Params:         0       0       4       0       0
  3990 ;;      Locals:         0       0       2       0       0
  3991 ;;      Temps:          0       0       1       0       0
  3992 ;;      Totals:         0       0       7       0       0
  3993 ;;Total ram usage:        7 bytes
  3994 ;; Hardware stack levels used:    1
  3995 ;; Hardware stack levels required when called:    5
  3996 ;; This function calls:
  3997 ;;		___fladd
  3998 ;;		___fleq
  3999 ;;		___flge
  4000 ;;		___flmul
  4001 ;;		___xxtofl
  4002 ;;		_eval_poly
  4003 ;;		_frexp
  4004 ;; This function is called by:
  4005 ;;		_pow
  4006 ;; This function uses a non-reentrant model
  4007 ;;
  4008                           
  4009                           
  4010                           ;psect for function _log
  4011  11CC                     _log:	
  4012  11CC                     l2891:	
  4013                           ;incstack = 0
  4014                           ; Regs used in _log: [wreg-fsr0h+status,2+status,0+btemp+1+pclath+cstack]
  4015                           
  4016  11CC  1683               	bsf	3,5	;RP0=1, select bank1
  4017  11CD  1303               	bcf	3,6	;RP1=0, select bank1
  4018  11CE  084C               	movf	(log@x+3)^(0+128),w
  4019  11CF  1283               	bcf	3,5	;RP0=0, select bank0
  4020  11D0  1303               	bcf	3,6	;RP1=0, select bank0
  4021  11D1  00A3               	movwf	___flge@ff1+3
  4022  11D2  1683               	bsf	3,5	;RP0=1, select bank1
  4023  11D3  1303               	bcf	3,6	;RP1=0, select bank1
  4024  11D4  084B               	movf	(log@x+2)^(0+128),w
  4025  11D5  1283               	bcf	3,5	;RP0=0, select bank0
  4026  11D6  1303               	bcf	3,6	;RP1=0, select bank0
  4027  11D7  00A2               	movwf	___flge@ff1+2
  4028  11D8  1683               	bsf	3,5	;RP0=1, select bank1
  4029  11D9  1303               	bcf	3,6	;RP1=0, select bank1
  4030  11DA  084A               	movf	(log@x+1)^(0+128),w
  4031  11DB  1283               	bcf	3,5	;RP0=0, select bank0
  4032  11DC  1303               	bcf	3,6	;RP1=0, select bank0
  4033  11DD  00A1               	movwf	___flge@ff1+1
  4034  11DE  1683               	bsf	3,5	;RP0=1, select bank1
  4035  11DF  1303               	bcf	3,6	;RP1=0, select bank1
  4036  11E0  0849               	movf	log@x^(0+128),w
  4037  11E1  1283               	bcf	3,5	;RP0=0, select bank0
  4038  11E2  1303               	bcf	3,6	;RP1=0, select bank0
  4039  11E3  00A0               	movwf	___flge@ff1
  4040  11E4  3000               	movlw	0
  4041  11E5  00A7               	movwf	___flge@ff2+3
  4042  11E6  3000               	movlw	0
  4043  11E7  00A6               	movwf	___flge@ff2+2
  4044  11E8  3000               	movlw	0
  4045  11E9  00A5               	movwf	___flge@ff2+1
  4046  11EA  3000               	movlw	0
  4047  11EB  00A4               	movwf	___flge@ff2
  4048  11EC  160A  158A  24F8  160A  118A  	fcall	___flge
  4049  11F1  1803               	btfsc	3,0
  4050  11F2  29F4               	goto	u4041
  4051  11F3  29F5               	goto	u4040
  4052  11F4                     u4041:	
  4053  11F4  2A06               	goto	l2897
  4054  11F5                     u4040:	
  4055  11F5                     l2893:	
  4056  11F5  3021               	movlw	33
  4057  11F6  1683               	bsf	3,5	;RP0=1, select bank3
  4058  11F7  1703               	bsf	3,6	;RP1=1, select bank3
  4059  11F8  00D2               	movwf	_errno^(0+384)
  4060  11F9  3000               	movlw	0
  4061  11FA  00D3               	movwf	(_errno^(0+384)+1)
  4062  11FB  3000               	movlw	0
  4063  11FC  1683               	bsf	3,5	;RP0=1, select bank1
  4064  11FD  1303               	bcf	3,6	;RP1=0, select bank1
  4065  11FE  00CC               	movwf	(?_log+3)^(0+128)
  4066  11FF  3000               	movlw	0
  4067  1200  00CB               	movwf	(?_log+2)^(0+128)
  4068  1201  3000               	movlw	0
  4069  1202  00CA               	movwf	(?_log+1)^(0+128)
  4070  1203  3000               	movlw	0
  4071  1204  00C9               	movwf	?_log^(0+128)
  4072  1205  2B3D               	goto	l777
  4073  1206                     l2897:	
  4074  1206  1683               	bsf	3,5	;RP0=1, select bank1
  4075  1207  1303               	bcf	3,6	;RP1=0, select bank1
  4076  1208  084C               	movf	(log@x+3)^(0+128),w
  4077  1209  1283               	bcf	3,5	;RP0=0, select bank0
  4078  120A  1303               	bcf	3,6	;RP1=0, select bank0
  4079  120B  00B1               	movwf	___fleq@ff1+3
  4080  120C  1683               	bsf	3,5	;RP0=1, select bank1
  4081  120D  1303               	bcf	3,6	;RP1=0, select bank1
  4082  120E  084B               	movf	(log@x+2)^(0+128),w
  4083  120F  1283               	bcf	3,5	;RP0=0, select bank0
  4084  1210  1303               	bcf	3,6	;RP1=0, select bank0
  4085  1211  00B0               	movwf	___fleq@ff1+2
  4086  1212  1683               	bsf	3,5	;RP0=1, select bank1
  4087  1213  1303               	bcf	3,6	;RP1=0, select bank1
  4088  1214  084A               	movf	(log@x+1)^(0+128),w
  4089  1215  1283               	bcf	3,5	;RP0=0, select bank0
  4090  1216  1303               	bcf	3,6	;RP1=0, select bank0
  4091  1217  00AF               	movwf	___fleq@ff1+1
  4092  1218  1683               	bsf	3,5	;RP0=1, select bank1
  4093  1219  1303               	bcf	3,6	;RP1=0, select bank1
  4094  121A  0849               	movf	log@x^(0+128),w
  4095  121B  1283               	bcf	3,5	;RP0=0, select bank0
  4096  121C  1303               	bcf	3,6	;RP1=0, select bank0
  4097  121D  00AE               	movwf	___fleq@ff1
  4098  121E  3000               	movlw	0
  4099  121F  00B5               	movwf	___fleq@ff2+3
  4100  1220  3000               	movlw	0
  4101  1221  00B4               	movwf	___fleq@ff2+2
  4102  1222  3000               	movlw	0
  4103  1223  00B3               	movwf	___fleq@ff2+1
  4104  1224  3000               	movlw	0
  4105  1225  00B2               	movwf	___fleq@ff2
  4106  1226  160A  158A  2296  160A  118A  	fcall	___fleq
  4107  122B  1C03               	btfss	3,0
  4108  122C  2A2E               	goto	u4051
  4109  122D  2A2F               	goto	u4050
  4110  122E                     u4051:	
  4111  122E  2A40               	goto	l2903
  4112  122F                     u4050:	
  4113  122F                     l2899:	
  4114  122F  3022               	movlw	34
  4115  1230  1683               	bsf	3,5	;RP0=1, select bank3
  4116  1231  1703               	bsf	3,6	;RP1=1, select bank3
  4117  1232  00D2               	movwf	_errno^(0+384)
  4118  1233  3000               	movlw	0
  4119  1234  00D3               	movwf	(_errno^(0+384)+1)
  4120  1235  3000               	movlw	0
  4121  1236  1683               	bsf	3,5	;RP0=1, select bank1
  4122  1237  1303               	bcf	3,6	;RP1=0, select bank1
  4123  1238  00CC               	movwf	(?_log+3)^(0+128)
  4124  1239  3000               	movlw	0
  4125  123A  00CB               	movwf	(?_log+2)^(0+128)
  4126  123B  3000               	movlw	0
  4127  123C  00CA               	movwf	(?_log+1)^(0+128)
  4128  123D  3000               	movlw	0
  4129  123E  00C9               	movwf	?_log^(0+128)
  4130  123F  2B3D               	goto	l777
  4131  1240                     l2903:	
  4132  1240  30BF               	movlw	191
  4133  1241  1283               	bcf	3,5	;RP0=0, select bank0
  4134  1242  1303               	bcf	3,6	;RP1=0, select bank0
  4135  1243  00EB               	movwf	___fladd@b+3
  4136  1244  3080               	movlw	128
  4137  1245  00EA               	movwf	___fladd@b+2
  4138  1246  3000               	movlw	0
  4139  1247  00E9               	movwf	___fladd@b+1
  4140  1248  3000               	movlw	0
  4141  1249  00E8               	movwf	___fladd@b
  4142  124A  3040               	movlw	64
  4143  124B  00C4               	movwf	___flmul@b+3
  4144  124C  3000               	movlw	0
  4145  124D  00C3               	movwf	___flmul@b+2
  4146  124E  3000               	movlw	0
  4147  124F  00C2               	movwf	___flmul@b+1
  4148  1250  3000               	movlw	0
  4149  1251  00C1               	movwf	___flmul@b
  4150  1252  30CE               	movlw	(low (log@exponent| 0))& (0+255)
  4151  1253  1683               	bsf	3,5	;RP0=1, select bank1
  4152  1254  1303               	bcf	3,6	;RP1=0, select bank1
  4153  1255  00CD               	movwf	??_log^(0+128)
  4154  1256  084D               	movf	??_log^(0+128),w
  4155  1257  1283               	bcf	3,5	;RP0=0, select bank0
  4156  1258  1303               	bcf	3,6	;RP1=0, select bank0
  4157  1259  00BE               	movwf	frexp@eptr
  4158  125A  1683               	bsf	3,5	;RP0=1, select bank1
  4159  125B  1303               	bcf	3,6	;RP1=0, select bank1
  4160  125C  084C               	movf	(log@x+3)^(0+128),w
  4161  125D  1283               	bcf	3,5	;RP0=0, select bank0
  4162  125E  1303               	bcf	3,6	;RP1=0, select bank0
  4163  125F  00BD               	movwf	frexp@value+3
  4164  1260  1683               	bsf	3,5	;RP0=1, select bank1
  4165  1261  1303               	bcf	3,6	;RP1=0, select bank1
  4166  1262  084B               	movf	(log@x+2)^(0+128),w
  4167  1263  1283               	bcf	3,5	;RP0=0, select bank0
  4168  1264  1303               	bcf	3,6	;RP1=0, select bank0
  4169  1265  00BC               	movwf	frexp@value+2
  4170  1266  1683               	bsf	3,5	;RP0=1, select bank1
  4171  1267  1303               	bcf	3,6	;RP1=0, select bank1
  4172  1268  084A               	movf	(log@x+1)^(0+128),w
  4173  1269  1283               	bcf	3,5	;RP0=0, select bank0
  4174  126A  1303               	bcf	3,6	;RP1=0, select bank0
  4175  126B  00BB               	movwf	frexp@value+1
  4176  126C  1683               	bsf	3,5	;RP0=1, select bank1
  4177  126D  1303               	bcf	3,6	;RP1=0, select bank1
  4178  126E  0849               	movf	log@x^(0+128),w
  4179  126F  1283               	bcf	3,5	;RP0=0, select bank0
  4180  1270  1303               	bcf	3,6	;RP1=0, select bank0
  4181  1271  00BA               	movwf	frexp@value
  4182  1272  160A  158A  2396  160A  118A  	fcall	_frexp
  4183  1277  1283               	bcf	3,5	;RP0=0, select bank0
  4184  1278  1303               	bcf	3,6	;RP1=0, select bank0
  4185  1279  083D               	movf	?_frexp+3,w
  4186  127A  00C8               	movwf	___flmul@a+3
  4187  127B  083C               	movf	?_frexp+2,w
  4188  127C  00C7               	movwf	___flmul@a+2
  4189  127D  083B               	movf	?_frexp+1,w
  4190  127E  00C6               	movwf	___flmul@a+1
  4191  127F  083A               	movf	?_frexp,w
  4192  1280  00C5               	movwf	___flmul@a
  4193  1281  120A  118A  2495  160A  118A  	fcall	___flmul
  4194  1286  1283               	bcf	3,5	;RP0=0, select bank0
  4195  1287  1303               	bcf	3,6	;RP1=0, select bank0
  4196  1288  0844               	movf	?___flmul+3,w
  4197  1289  00EF               	movwf	___fladd@a+3
  4198  128A  0843               	movf	?___flmul+2,w
  4199  128B  00EE               	movwf	___fladd@a+2
  4200  128C  0842               	movf	?___flmul+1,w
  4201  128D  00ED               	movwf	___fladd@a+1
  4202  128E  0841               	movf	?___flmul,w
  4203  128F  00EC               	movwf	___fladd@a
  4204  1290  120A  158A  247C  160A  118A  	fcall	___fladd
  4205  1295  1283               	bcf	3,5	;RP0=0, select bank0
  4206  1296  1303               	bcf	3,6	;RP1=0, select bank0
  4207  1297  086B               	movf	?___fladd+3,w
  4208  1298  1683               	bsf	3,5	;RP0=1, select bank1
  4209  1299  1303               	bcf	3,6	;RP1=0, select bank1
  4210  129A  00CC               	movwf	(log@x+3)^(0+128)
  4211  129B  1283               	bcf	3,5	;RP0=0, select bank0
  4212  129C  1303               	bcf	3,6	;RP1=0, select bank0
  4213  129D  086A               	movf	?___fladd+2,w
  4214  129E  1683               	bsf	3,5	;RP0=1, select bank1
  4215  129F  1303               	bcf	3,6	;RP1=0, select bank1
  4216  12A0  00CB               	movwf	(log@x+2)^(0+128)
  4217  12A1  1283               	bcf	3,5	;RP0=0, select bank0
  4218  12A2  1303               	bcf	3,6	;RP1=0, select bank0
  4219  12A3  0869               	movf	?___fladd+1,w
  4220  12A4  1683               	bsf	3,5	;RP0=1, select bank1
  4221  12A5  1303               	bcf	3,6	;RP1=0, select bank1
  4222  12A6  00CA               	movwf	(log@x+1)^(0+128)
  4223  12A7  1283               	bcf	3,5	;RP0=0, select bank0
  4224  12A8  1303               	bcf	3,6	;RP1=0, select bank0
  4225  12A9  0868               	movf	?___fladd,w
  4226  12AA  1683               	bsf	3,5	;RP0=1, select bank1
  4227  12AB  1303               	bcf	3,6	;RP1=0, select bank1
  4228  12AC  00C9               	movwf	log@x^(0+128)
  4229  12AD                     l2905:	
  4230  12AD  30FF               	movlw	255
  4231  12AE  07CE               	addwf	log@exponent^(0+128),f
  4232  12AF  1803               	skipnc
  4233  12B0  0ACF               	incf	(log@exponent+1)^(0+128),f
  4234  12B1  30FF               	movlw	255
  4235  12B2  07CF               	addwf	(log@exponent+1)^(0+128),f
  4236  12B3                     l2907:	
  4237  12B3  084C               	movf	(log@x+3)^(0+128),w
  4238  12B4  00BC               	movwf	(eval_poly@x+3)^(0+128)
  4239  12B5  084B               	movf	(log@x+2)^(0+128),w
  4240  12B6  00BB               	movwf	(eval_poly@x+2)^(0+128)
  4241  12B7  084A               	movf	(log@x+1)^(0+128),w
  4242  12B8  00BA               	movwf	(eval_poly@x+1)^(0+128)
  4243  12B9  0849               	movf	log@x^(0+128),w
  4244  12BA  00B9               	movwf	eval_poly@x^(0+128)
  4245  12BB  3029               	movlw	(low ((log@coeff-__stringbase)| (0+32768)))& (0+255)
  4246  12BC  00CD               	movwf	??_log^(0+128)
  4247  12BD  084D               	movf	??_log^(0+128),w
  4248  12BE  00BD               	movwf	eval_poly@d^(0+128)
  4249  12BF  3008               	movlw	8
  4250  12C0  00BE               	movwf	eval_poly@n^(0+128)
  4251  12C1  3000               	movlw	0
  4252  12C2  00BF               	movwf	(eval_poly@n^(0+128)+1)
  4253  12C3  160A  158A  2726  160A  118A  	fcall	_eval_poly
  4254  12C8  1683               	bsf	3,5	;RP0=1, select bank1
  4255  12C9  1303               	bcf	3,6	;RP1=0, select bank1
  4256  12CA  083C               	movf	(?_eval_poly+3)^(0+128),w
  4257  12CB  00CC               	movwf	(log@x+3)^(0+128)
  4258  12CC  083B               	movf	(?_eval_poly+2)^(0+128),w
  4259  12CD  00CB               	movwf	(log@x+2)^(0+128)
  4260  12CE  083A               	movf	(?_eval_poly+1)^(0+128),w
  4261  12CF  00CA               	movwf	(log@x+1)^(0+128)
  4262  12D0  0839               	movf	?_eval_poly^(0+128),w
  4263  12D1  00C9               	movwf	log@x^(0+128)
  4264  12D2                     l2909:	
  4265  12D2  084C               	movf	(log@x+3)^(0+128),w
  4266  12D3  1283               	bcf	3,5	;RP0=0, select bank0
  4267  12D4  1303               	bcf	3,6	;RP1=0, select bank0
  4268  12D5  00EB               	movwf	___fladd@b+3
  4269  12D6  1683               	bsf	3,5	;RP0=1, select bank1
  4270  12D7  1303               	bcf	3,6	;RP1=0, select bank1
  4271  12D8  084B               	movf	(log@x+2)^(0+128),w
  4272  12D9  1283               	bcf	3,5	;RP0=0, select bank0
  4273  12DA  1303               	bcf	3,6	;RP1=0, select bank0
  4274  12DB  00EA               	movwf	___fladd@b+2
  4275  12DC  1683               	bsf	3,5	;RP0=1, select bank1
  4276  12DD  1303               	bcf	3,6	;RP1=0, select bank1
  4277  12DE  084A               	movf	(log@x+1)^(0+128),w
  4278  12DF  1283               	bcf	3,5	;RP0=0, select bank0
  4279  12E0  1303               	bcf	3,6	;RP1=0, select bank0
  4280  12E1  00E9               	movwf	___fladd@b+1
  4281  12E2  1683               	bsf	3,5	;RP0=1, select bank1
  4282  12E3  1303               	bcf	3,6	;RP1=0, select bank1
  4283  12E4  0849               	movf	log@x^(0+128),w
  4284  12E5  1283               	bcf	3,5	;RP0=0, select bank0
  4285  12E6  1303               	bcf	3,6	;RP1=0, select bank0
  4286  12E7  00E8               	movwf	___fladd@b
  4287  12E8  303F               	movlw	63
  4288  12E9  00C4               	movwf	___flmul@b+3
  4289  12EA  3031               	movlw	49
  4290  12EB  00C3               	movwf	___flmul@b+2
  4291  12EC  3072               	movlw	114
  4292  12ED  00C2               	movwf	___flmul@b+1
  4293  12EE  3018               	movlw	24
  4294  12EF  00C1               	movwf	___flmul@b
  4295  12F0  1683               	bsf	3,5	;RP0=1, select bank1
  4296  12F1  1303               	bcf	3,6	;RP1=0, select bank1
  4297  12F2  084E               	movf	log@exponent^(0+128),w
  4298  12F3  1283               	bcf	3,5	;RP0=0, select bank0
  4299  12F4  1303               	bcf	3,6	;RP1=0, select bank0
  4300  12F5  00A0               	movwf	___xxtofl@val
  4301  12F6  1683               	bsf	3,5	;RP0=1, select bank1
  4302  12F7  1303               	bcf	3,6	;RP1=0, select bank1
  4303  12F8  084F               	movf	(log@exponent+1)^(0+128),w
  4304  12F9  1283               	bcf	3,5	;RP0=0, select bank0
  4305  12FA  1303               	bcf	3,6	;RP1=0, select bank0
  4306  12FB  00A1               	movwf	___xxtofl@val+1
  4307  12FC  3000               	movlw	0
  4308  12FD  1BA1               	btfsc	___xxtofl@val+1,7
  4309  12FE  30FF               	movlw	255
  4310  12FF  00A2               	movwf	___xxtofl@val+2
  4311  1300  00A3               	movwf	___xxtofl@val+3
  4312  1301  3001               	movlw	1
  4313  1302  160A  158A  259C  160A  118A  	fcall	___xxtofl
  4314  1307  1283               	bcf	3,5	;RP0=0, select bank0
  4315  1308  1303               	bcf	3,6	;RP1=0, select bank0
  4316  1309  0823               	movf	?___xxtofl+3,w
  4317  130A  00C8               	movwf	___flmul@a+3
  4318  130B  0822               	movf	?___xxtofl+2,w
  4319  130C  00C7               	movwf	___flmul@a+2
  4320  130D  0821               	movf	?___xxtofl+1,w
  4321  130E  00C6               	movwf	___flmul@a+1
  4322  130F  0820               	movf	?___xxtofl,w
  4323  1310  00C5               	movwf	___flmul@a
  4324  1311  120A  118A  2495  160A  118A  	fcall	___flmul
  4325  1316  1283               	bcf	3,5	;RP0=0, select bank0
  4326  1317  1303               	bcf	3,6	;RP1=0, select bank0
  4327  1318  0844               	movf	?___flmul+3,w
  4328  1319  00EF               	movwf	___fladd@a+3
  4329  131A  0843               	movf	?___flmul+2,w
  4330  131B  00EE               	movwf	___fladd@a+2
  4331  131C  0842               	movf	?___flmul+1,w
  4332  131D  00ED               	movwf	___fladd@a+1
  4333  131E  0841               	movf	?___flmul,w
  4334  131F  00EC               	movwf	___fladd@a
  4335  1320  120A  158A  247C  160A  118A  	fcall	___fladd
  4336  1325  1283               	bcf	3,5	;RP0=0, select bank0
  4337  1326  1303               	bcf	3,6	;RP1=0, select bank0
  4338  1327  086B               	movf	?___fladd+3,w
  4339  1328  1683               	bsf	3,5	;RP0=1, select bank1
  4340  1329  1303               	bcf	3,6	;RP1=0, select bank1
  4341  132A  00CC               	movwf	(?_log+3)^(0+128)
  4342  132B  1283               	bcf	3,5	;RP0=0, select bank0
  4343  132C  1303               	bcf	3,6	;RP1=0, select bank0
  4344  132D  086A               	movf	?___fladd+2,w
  4345  132E  1683               	bsf	3,5	;RP0=1, select bank1
  4346  132F  1303               	bcf	3,6	;RP1=0, select bank1
  4347  1330  00CB               	movwf	(?_log+2)^(0+128)
  4348  1331  1283               	bcf	3,5	;RP0=0, select bank0
  4349  1332  1303               	bcf	3,6	;RP1=0, select bank0
  4350  1333  0869               	movf	?___fladd+1,w
  4351  1334  1683               	bsf	3,5	;RP0=1, select bank1
  4352  1335  1303               	bcf	3,6	;RP1=0, select bank1
  4353  1336  00CA               	movwf	(?_log+1)^(0+128)
  4354  1337  1283               	bcf	3,5	;RP0=0, select bank0
  4355  1338  1303               	bcf	3,6	;RP1=0, select bank0
  4356  1339  0868               	movf	?___fladd,w
  4357  133A  1683               	bsf	3,5	;RP0=1, select bank1
  4358  133B  1303               	bcf	3,6	;RP1=0, select bank1
  4359  133C  00C9               	movwf	?_log^(0+128)
  4360  133D                     l777:	
  4361  133D  0008               	return
  4362  133E                     __end_of_log:	
  4363                           
  4364                           	psect	text9
  4365  1599                     __ptext9:	
  4366 ;; *************** function _exp *****************
  4367 ;; Defined at:
  4368 ;;		line 12 in file "C:\Program Files (x86)\Microchip\xc8\v2.10\pic\sources\c90\common\exp.c"
  4369 ;; Parameters:    Size  Location     Type
  4370 ;;  x               4   49[BANK1 ] int 
  4371 ;; Auto vars:     Size  Location     Type
  4372 ;;  exponent        2   58[BANK1 ] int 
  4373 ;;  sign            1   60[BANK1 ] unsigned char 
  4374 ;; Return value:  Size  Location     Type
  4375 ;;                  4   49[BANK1 ] unsigned char 
  4376 ;; Registers used:
  4377 ;;		wreg, fsr0l, fsr0h, status,2, status,0, btemp+1, pclath, cstack
  4378 ;; Tracked objects:
  4379 ;;		On entry : 0/0
  4380 ;;		On exit  : 0/0
  4381 ;;		Unchanged: 0/0
  4382 ;; Data sizes:     COMMON   BANK0   BANK1   BANK3   BANK2
  4383 ;;      Params:         0       0       4       0       0
  4384 ;;      Locals:         0       0       7       0       0
  4385 ;;      Temps:          0       0       1       0       0
  4386 ;;      Totals:         0       0      12       0       0
  4387 ;;Total ram usage:       12 bytes
  4388 ;; Hardware stack levels used:    1
  4389 ;; Hardware stack levels required when called:    5
  4390 ;; This function calls:
  4391 ;;		___fldiv
  4392 ;;		___fleq
  4393 ;;		___flge
  4394 ;;		___flmul
  4395 ;;		___flneg
  4396 ;;		___flsub
  4397 ;;		___fltol
  4398 ;;		___xxtofl
  4399 ;;		_eval_poly
  4400 ;;		_floor
  4401 ;;		_ldexp
  4402 ;; This function is called by:
  4403 ;;		_pow
  4404 ;; This function uses a non-reentrant model
  4405 ;;
  4406                           
  4407                           
  4408                           ;psect for function _exp
  4409  1599                     _exp:	
  4410  1599                     l3265:	
  4411                           ;incstack = 0
  4412                           ; Regs used in _exp: [wreg-fsr0h+status,2+status,0+btemp+1+pclath+cstack]
  4413                           
  4414  1599  1683               	bsf	3,5	;RP0=1, select bank1
  4415  159A  1303               	bcf	3,6	;RP1=0, select bank1
  4416  159B  0854               	movf	(exp@x+3)^(0+128),w
  4417  159C  1283               	bcf	3,5	;RP0=0, select bank0
  4418  159D  1303               	bcf	3,6	;RP1=0, select bank0
  4419  159E  00B1               	movwf	___fleq@ff1+3
  4420  159F  1683               	bsf	3,5	;RP0=1, select bank1
  4421  15A0  1303               	bcf	3,6	;RP1=0, select bank1
  4422  15A1  0853               	movf	(exp@x+2)^(0+128),w
  4423  15A2  1283               	bcf	3,5	;RP0=0, select bank0
  4424  15A3  1303               	bcf	3,6	;RP1=0, select bank0
  4425  15A4  00B0               	movwf	___fleq@ff1+2
  4426  15A5  1683               	bsf	3,5	;RP0=1, select bank1
  4427  15A6  1303               	bcf	3,6	;RP1=0, select bank1
  4428  15A7  0852               	movf	(exp@x+1)^(0+128),w
  4429  15A8  1283               	bcf	3,5	;RP0=0, select bank0
  4430  15A9  1303               	bcf	3,6	;RP1=0, select bank0
  4431  15AA  00AF               	movwf	___fleq@ff1+1
  4432  15AB  1683               	bsf	3,5	;RP0=1, select bank1
  4433  15AC  1303               	bcf	3,6	;RP1=0, select bank1
  4434  15AD  0851               	movf	exp@x^(0+128),w
  4435  15AE  1283               	bcf	3,5	;RP0=0, select bank0
  4436  15AF  1303               	bcf	3,6	;RP1=0, select bank0
  4437  15B0  00AE               	movwf	___fleq@ff1
  4438  15B1  3000               	movlw	0
  4439  15B2  00B5               	movwf	___fleq@ff2+3
  4440  15B3  3000               	movlw	0
  4441  15B4  00B4               	movwf	___fleq@ff2+2
  4442  15B5  3000               	movlw	0
  4443  15B6  00B3               	movwf	___fleq@ff2+1
  4444  15B7  3000               	movlw	0
  4445  15B8  00B2               	movwf	___fleq@ff2
  4446  15B9  160A  158A  2296  160A  118A  	fcall	___fleq
  4447  15BE  1C03               	btfss	3,0
  4448  15BF  2DC1               	goto	u4411
  4449  15C0  2DC2               	goto	u4410
  4450  15C1                     u4411:	
  4451  15C1  2DCD               	goto	l3271
  4452  15C2                     u4410:	
  4453  15C2                     l3267:	
  4454  15C2  303F               	movlw	63
  4455  15C3  1683               	bsf	3,5	;RP0=1, select bank1
  4456  15C4  1303               	bcf	3,6	;RP1=0, select bank1
  4457  15C5  00D4               	movwf	(?_exp+3)^(0+128)
  4458  15C6  3080               	movlw	128
  4459  15C7  00D3               	movwf	(?_exp+2)^(0+128)
  4460  15C8  3000               	movlw	0
  4461  15C9  00D2               	movwf	(?_exp+1)^(0+128)
  4462  15CA  3000               	movlw	0
  4463  15CB  00D1               	movwf	?_exp^(0+128)
  4464  15CC  2FFF               	goto	l735
  4465  15CD                     l3271:	
  4466  15CD  3044               	movlw	68
  4467  15CE  1283               	bcf	3,5	;RP0=0, select bank0
  4468  15CF  1303               	bcf	3,6	;RP1=0, select bank0
  4469  15D0  00A3               	movwf	___flge@ff1+3
  4470  15D1  3031               	movlw	49
  4471  15D2  00A2               	movwf	___flge@ff1+2
  4472  15D3  3072               	movlw	114
  4473  15D4  00A1               	movwf	___flge@ff1+1
  4474  15D5  3018               	movlw	24
  4475  15D6  00A0               	movwf	___flge@ff1
  4476  15D7  1683               	bsf	3,5	;RP0=1, select bank1
  4477  15D8  1303               	bcf	3,6	;RP1=0, select bank1
  4478  15D9  0854               	movf	(exp@x+3)^(0+128),w
  4479  15DA  1283               	bcf	3,5	;RP0=0, select bank0
  4480  15DB  1303               	bcf	3,6	;RP1=0, select bank0
  4481  15DC  00A7               	movwf	___flge@ff2+3
  4482  15DD  1683               	bsf	3,5	;RP0=1, select bank1
  4483  15DE  1303               	bcf	3,6	;RP1=0, select bank1
  4484  15DF  0853               	movf	(exp@x+2)^(0+128),w
  4485  15E0  1283               	bcf	3,5	;RP0=0, select bank0
  4486  15E1  1303               	bcf	3,6	;RP1=0, select bank0
  4487  15E2  00A6               	movwf	___flge@ff2+2
  4488  15E3  1683               	bsf	3,5	;RP0=1, select bank1
  4489  15E4  1303               	bcf	3,6	;RP1=0, select bank1
  4490  15E5  0852               	movf	(exp@x+1)^(0+128),w
  4491  15E6  1283               	bcf	3,5	;RP0=0, select bank0
  4492  15E7  1303               	bcf	3,6	;RP1=0, select bank0
  4493  15E8  00A5               	movwf	___flge@ff2+1
  4494  15E9  1683               	bsf	3,5	;RP0=1, select bank1
  4495  15EA  1303               	bcf	3,6	;RP1=0, select bank1
  4496  15EB  0851               	movf	exp@x^(0+128),w
  4497  15EC  1283               	bcf	3,5	;RP0=0, select bank0
  4498  15ED  1303               	bcf	3,6	;RP1=0, select bank0
  4499  15EE  00A4               	movwf	___flge@ff2
  4500  15EF  160A  158A  24F8  160A  118A  	fcall	___flge
  4501  15F4  1803               	btfsc	3,0
  4502  15F5  2DF7               	goto	u4421
  4503  15F6  2DF8               	goto	u4420
  4504  15F7                     u4421:	
  4505  15F7  2E09               	goto	l3277
  4506  15F8                     u4420:	
  4507  15F8                     l3273:	
  4508  15F8  3022               	movlw	34
  4509  15F9  1683               	bsf	3,5	;RP0=1, select bank3
  4510  15FA  1703               	bsf	3,6	;RP1=1, select bank3
  4511  15FB  00D2               	movwf	_errno^(0+384)
  4512  15FC  3000               	movlw	0
  4513  15FD  00D3               	movwf	(_errno^(0+384)+1)
  4514  15FE  307F               	movlw	127
  4515  15FF  1683               	bsf	3,5	;RP0=1, select bank1
  4516  1600  1303               	bcf	3,6	;RP1=0, select bank1
  4517  1601  00D4               	movwf	(?_exp+3)^(0+128)
  4518  1602  307F               	movlw	127
  4519  1603  00D3               	movwf	(?_exp+2)^(0+128)
  4520  1604  30FF               	movlw	255
  4521  1605  00D2               	movwf	(?_exp+1)^(0+128)
  4522  1606  30FF               	movlw	255
  4523  1607  00D1               	movwf	?_exp^(0+128)
  4524  1608  2FFF               	goto	l735
  4525  1609                     l3277:	
  4526  1609  1683               	bsf	3,5	;RP0=1, select bank1
  4527  160A  1303               	bcf	3,6	;RP1=0, select bank1
  4528  160B  0854               	movf	(exp@x+3)^(0+128),w
  4529  160C  1283               	bcf	3,5	;RP0=0, select bank0
  4530  160D  1303               	bcf	3,6	;RP1=0, select bank0
  4531  160E  00A3               	movwf	___flge@ff1+3
  4532  160F  1683               	bsf	3,5	;RP0=1, select bank1
  4533  1610  1303               	bcf	3,6	;RP1=0, select bank1
  4534  1611  0853               	movf	(exp@x+2)^(0+128),w
  4535  1612  1283               	bcf	3,5	;RP0=0, select bank0
  4536  1613  1303               	bcf	3,6	;RP1=0, select bank0
  4537  1614  00A2               	movwf	___flge@ff1+2
  4538  1615  1683               	bsf	3,5	;RP0=1, select bank1
  4539  1616  1303               	bcf	3,6	;RP1=0, select bank1
  4540  1617  0852               	movf	(exp@x+1)^(0+128),w
  4541  1618  1283               	bcf	3,5	;RP0=0, select bank0
  4542  1619  1303               	bcf	3,6	;RP1=0, select bank0
  4543  161A  00A1               	movwf	___flge@ff1+1
  4544  161B  1683               	bsf	3,5	;RP0=1, select bank1
  4545  161C  1303               	bcf	3,6	;RP1=0, select bank1
  4546  161D  0851               	movf	exp@x^(0+128),w
  4547  161E  1283               	bcf	3,5	;RP0=0, select bank0
  4548  161F  1303               	bcf	3,6	;RP1=0, select bank0
  4549  1620  00A0               	movwf	___flge@ff1
  4550  1621  30C4               	movlw	196
  4551  1622  00A7               	movwf	___flge@ff2+3
  4552  1623  303A               	movlw	58
  4553  1624  00A6               	movwf	___flge@ff2+2
  4554  1625  3048               	movlw	72
  4555  1626  00A5               	movwf	___flge@ff2+1
  4556  1627  3087               	movlw	135
  4557  1628  00A4               	movwf	___flge@ff2
  4558  1629  160A  158A  24F8  160A  118A  	fcall	___flge
  4559  162E  1803               	btfsc	3,0
  4560  162F  2E31               	goto	u4431
  4561  1630  2E32               	goto	u4430
  4562  1631                     u4431:	
  4563  1631  2E43               	goto	l3283
  4564  1632                     u4430:	
  4565  1632                     l3279:	
  4566  1632  3022               	movlw	34
  4567  1633  1683               	bsf	3,5	;RP0=1, select bank3
  4568  1634  1703               	bsf	3,6	;RP1=1, select bank3
  4569  1635  00D2               	movwf	_errno^(0+384)
  4570  1636  3000               	movlw	0
  4571  1637  00D3               	movwf	(_errno^(0+384)+1)
  4572  1638  3000               	movlw	0
  4573  1639  1683               	bsf	3,5	;RP0=1, select bank1
  4574  163A  1303               	bcf	3,6	;RP1=0, select bank1
  4575  163B  00D4               	movwf	(?_exp+3)^(0+128)
  4576  163C  3000               	movlw	0
  4577  163D  00D3               	movwf	(?_exp+2)^(0+128)
  4578  163E  3000               	movlw	0
  4579  163F  00D2               	movwf	(?_exp+1)^(0+128)
  4580  1640  3000               	movlw	0
  4581  1641  00D1               	movwf	?_exp^(0+128)
  4582  1642  2FFF               	goto	l735
  4583  1643                     l3283:	
  4584  1643  1683               	bsf	3,5	;RP0=1, select bank1
  4585  1644  1303               	bcf	3,6	;RP1=0, select bank1
  4586  1645  0854               	movf	(exp@x+3)^(0+128),w
  4587  1646  1283               	bcf	3,5	;RP0=0, select bank0
  4588  1647  1303               	bcf	3,6	;RP1=0, select bank0
  4589  1648  00A3               	movwf	___flge@ff1+3
  4590  1649  1683               	bsf	3,5	;RP0=1, select bank1
  4591  164A  1303               	bcf	3,6	;RP1=0, select bank1
  4592  164B  0853               	movf	(exp@x+2)^(0+128),w
  4593  164C  1283               	bcf	3,5	;RP0=0, select bank0
  4594  164D  1303               	bcf	3,6	;RP1=0, select bank0
  4595  164E  00A2               	movwf	___flge@ff1+2
  4596  164F  1683               	bsf	3,5	;RP0=1, select bank1
  4597  1650  1303               	bcf	3,6	;RP1=0, select bank1
  4598  1651  0852               	movf	(exp@x+1)^(0+128),w
  4599  1652  1283               	bcf	3,5	;RP0=0, select bank0
  4600  1653  1303               	bcf	3,6	;RP1=0, select bank0
  4601  1654  00A1               	movwf	___flge@ff1+1
  4602  1655  1683               	bsf	3,5	;RP0=1, select bank1
  4603  1656  1303               	bcf	3,6	;RP1=0, select bank1
  4604  1657  0851               	movf	exp@x^(0+128),w
  4605  1658  1283               	bcf	3,5	;RP0=0, select bank0
  4606  1659  1303               	bcf	3,6	;RP1=0, select bank0
  4607  165A  00A0               	movwf	___flge@ff1
  4608  165B  3000               	movlw	0
  4609  165C  00A7               	movwf	___flge@ff2+3
  4610  165D  3000               	movlw	0
  4611  165E  00A6               	movwf	___flge@ff2+2
  4612  165F  3000               	movlw	0
  4613  1660  00A5               	movwf	___flge@ff2+1
  4614  1661  3000               	movlw	0
  4615  1662  00A4               	movwf	___flge@ff2
  4616  1663  160A  158A  24F8  160A  118A  	fcall	___flge
  4617  1668  1C03               	btfss	3,0
  4618  1669  2E6B               	goto	u4441
  4619  166A  2E6D               	goto	u4440
  4620  166B                     u4441:	
  4621  166B  3001               	movlw	1
  4622  166C  2E6E               	goto	u4450
  4623  166D                     u4440:	
  4624  166D  3000               	movlw	0
  4625  166E                     u4450:	
  4626  166E  1683               	bsf	3,5	;RP0=1, select bank1
  4627  166F  1303               	bcf	3,6	;RP1=0, select bank1
  4628  1670  00D5               	movwf	??_exp^(0+128)
  4629  1671  0855               	movf	??_exp^(0+128),w
  4630  1672  00DC               	movwf	exp@sign^(0+128)
  4631  1673                     l3285:	
  4632  1673  085C               	movf	exp@sign^(0+128),w
  4633  1674  1903               	btfsc	3,2
  4634  1675  2E77               	goto	u4461
  4635  1676  2E78               	goto	u4460
  4636  1677                     u4461:	
  4637  1677  2EAB               	goto	l3289
  4638  1678                     u4460:	
  4639  1678                     l3287:	
  4640  1678  0854               	movf	(exp@x+3)^(0+128),w
  4641  1679  1283               	bcf	3,5	;RP0=0, select bank0
  4642  167A  1303               	bcf	3,6	;RP1=0, select bank0
  4643  167B  00A3               	movwf	___flneg@f1+3
  4644  167C  1683               	bsf	3,5	;RP0=1, select bank1
  4645  167D  1303               	bcf	3,6	;RP1=0, select bank1
  4646  167E  0853               	movf	(exp@x+2)^(0+128),w
  4647  167F  1283               	bcf	3,5	;RP0=0, select bank0
  4648  1680  1303               	bcf	3,6	;RP1=0, select bank0
  4649  1681  00A2               	movwf	___flneg@f1+2
  4650  1682  1683               	bsf	3,5	;RP0=1, select bank1
  4651  1683  1303               	bcf	3,6	;RP1=0, select bank1
  4652  1684  0852               	movf	(exp@x+1)^(0+128),w
  4653  1685  1283               	bcf	3,5	;RP0=0, select bank0
  4654  1686  1303               	bcf	3,6	;RP1=0, select bank0
  4655  1687  00A1               	movwf	___flneg@f1+1
  4656  1688  1683               	bsf	3,5	;RP0=1, select bank1
  4657  1689  1303               	bcf	3,6	;RP1=0, select bank1
  4658  168A  0851               	movf	exp@x^(0+128),w
  4659  168B  1283               	bcf	3,5	;RP0=0, select bank0
  4660  168C  1303               	bcf	3,6	;RP1=0, select bank0
  4661  168D  00A0               	movwf	___flneg@f1
  4662  168E  160A  158A  2131  160A  118A  	fcall	___flneg
  4663  1693  1283               	bcf	3,5	;RP0=0, select bank0
  4664  1694  1303               	bcf	3,6	;RP1=0, select bank0
  4665  1695  0823               	movf	?___flneg+3,w
  4666  1696  1683               	bsf	3,5	;RP0=1, select bank1
  4667  1697  1303               	bcf	3,6	;RP1=0, select bank1
  4668  1698  00D4               	movwf	(exp@x+3)^(0+128)
  4669  1699  1283               	bcf	3,5	;RP0=0, select bank0
  4670  169A  1303               	bcf	3,6	;RP1=0, select bank0
  4671  169B  0822               	movf	?___flneg+2,w
  4672  169C  1683               	bsf	3,5	;RP0=1, select bank1
  4673  169D  1303               	bcf	3,6	;RP1=0, select bank1
  4674  169E  00D3               	movwf	(exp@x+2)^(0+128)
  4675  169F  1283               	bcf	3,5	;RP0=0, select bank0
  4676  16A0  1303               	bcf	3,6	;RP1=0, select bank0
  4677  16A1  0821               	movf	?___flneg+1,w
  4678  16A2  1683               	bsf	3,5	;RP0=1, select bank1
  4679  16A3  1303               	bcf	3,6	;RP1=0, select bank1
  4680  16A4  00D2               	movwf	(exp@x+1)^(0+128)
  4681  16A5  1283               	bcf	3,5	;RP0=0, select bank0
  4682  16A6  1303               	bcf	3,6	;RP1=0, select bank0
  4683  16A7  0820               	movf	?___flneg,w
  4684  16A8  1683               	bsf	3,5	;RP0=1, select bank1
  4685  16A9  1303               	bcf	3,6	;RP1=0, select bank1
  4686  16AA  00D1               	movwf	exp@x^(0+128)
  4687  16AB                     l3289:	
  4688  16AB  303F               	movlw	63
  4689  16AC  1283               	bcf	3,5	;RP0=0, select bank0
  4690  16AD  1303               	bcf	3,6	;RP1=0, select bank0
  4691  16AE  00C4               	movwf	___flmul@b+3
  4692  16AF  30B8               	movlw	184
  4693  16B0  00C3               	movwf	___flmul@b+2
  4694  16B1  30AA               	movlw	170
  4695  16B2  00C2               	movwf	___flmul@b+1
  4696  16B3  303B               	movlw	59
  4697  16B4  00C1               	movwf	___flmul@b
  4698  16B5  1683               	bsf	3,5	;RP0=1, select bank1
  4699  16B6  1303               	bcf	3,6	;RP1=0, select bank1
  4700  16B7  0854               	movf	(exp@x+3)^(0+128),w
  4701  16B8  1283               	bcf	3,5	;RP0=0, select bank0
  4702  16B9  1303               	bcf	3,6	;RP1=0, select bank0
  4703  16BA  00C8               	movwf	___flmul@a+3
  4704  16BB  1683               	bsf	3,5	;RP0=1, select bank1
  4705  16BC  1303               	bcf	3,6	;RP1=0, select bank1
  4706  16BD  0853               	movf	(exp@x+2)^(0+128),w
  4707  16BE  1283               	bcf	3,5	;RP0=0, select bank0
  4708  16BF  1303               	bcf	3,6	;RP1=0, select bank0
  4709  16C0  00C7               	movwf	___flmul@a+2
  4710  16C1  1683               	bsf	3,5	;RP0=1, select bank1
  4711  16C2  1303               	bcf	3,6	;RP1=0, select bank1
  4712  16C3  0852               	movf	(exp@x+1)^(0+128),w
  4713  16C4  1283               	bcf	3,5	;RP0=0, select bank0
  4714  16C5  1303               	bcf	3,6	;RP1=0, select bank0
  4715  16C6  00C6               	movwf	___flmul@a+1
  4716  16C7  1683               	bsf	3,5	;RP0=1, select bank1
  4717  16C8  1303               	bcf	3,6	;RP1=0, select bank1
  4718  16C9  0851               	movf	exp@x^(0+128),w
  4719  16CA  1283               	bcf	3,5	;RP0=0, select bank0
  4720  16CB  1303               	bcf	3,6	;RP1=0, select bank0
  4721  16CC  00C5               	movwf	___flmul@a
  4722  16CD  120A  118A  2495  160A  118A  	fcall	___flmul
  4723  16D2  1283               	bcf	3,5	;RP0=0, select bank0
  4724  16D3  1303               	bcf	3,6	;RP1=0, select bank0
  4725  16D4  0844               	movf	?___flmul+3,w
  4726  16D5  1683               	bsf	3,5	;RP0=1, select bank1
  4727  16D6  1303               	bcf	3,6	;RP1=0, select bank1
  4728  16D7  00D4               	movwf	(exp@x+3)^(0+128)
  4729  16D8  1283               	bcf	3,5	;RP0=0, select bank0
  4730  16D9  1303               	bcf	3,6	;RP1=0, select bank0
  4731  16DA  0843               	movf	?___flmul+2,w
  4732  16DB  1683               	bsf	3,5	;RP0=1, select bank1
  4733  16DC  1303               	bcf	3,6	;RP1=0, select bank1
  4734  16DD  00D3               	movwf	(exp@x+2)^(0+128)
  4735  16DE  1283               	bcf	3,5	;RP0=0, select bank0
  4736  16DF  1303               	bcf	3,6	;RP1=0, select bank0
  4737  16E0  0842               	movf	?___flmul+1,w
  4738  16E1  1683               	bsf	3,5	;RP0=1, select bank1
  4739  16E2  1303               	bcf	3,6	;RP1=0, select bank1
  4740  16E3  00D2               	movwf	(exp@x+1)^(0+128)
  4741  16E4  1283               	bcf	3,5	;RP0=0, select bank0
  4742  16E5  1303               	bcf	3,6	;RP1=0, select bank0
  4743  16E6  0841               	movf	?___flmul,w
  4744  16E7  1683               	bsf	3,5	;RP0=1, select bank1
  4745  16E8  1303               	bcf	3,6	;RP1=0, select bank1
  4746  16E9  00D1               	movwf	exp@x^(0+128)
  4747  16EA                     l3291:	
  4748  16EA  0854               	movf	(exp@x+3)^(0+128),w
  4749  16EB  00C7               	movwf	(floor@x+3)^(0+128)
  4750  16EC  0853               	movf	(exp@x+2)^(0+128),w
  4751  16ED  00C6               	movwf	(floor@x+2)^(0+128)
  4752  16EE  0852               	movf	(exp@x+1)^(0+128),w
  4753  16EF  00C5               	movwf	(floor@x+1)^(0+128)
  4754  16F0  0851               	movf	exp@x^(0+128),w
  4755  16F1  00C4               	movwf	floor@x^(0+128)
  4756  16F2  160A  118A  2095  160A  118A  	fcall	_floor
  4757  16F7  1683               	bsf	3,5	;RP0=1, select bank1
  4758  16F8  1303               	bcf	3,6	;RP1=0, select bank1
  4759  16F9  0847               	movf	(?_floor+3)^(0+128),w
  4760  16FA  00D9               	movwf	(_exp$934+3)^(0+128)
  4761  16FB  0846               	movf	(?_floor+2)^(0+128),w
  4762  16FC  00D8               	movwf	(_exp$934+2)^(0+128)
  4763  16FD  0845               	movf	(?_floor+1)^(0+128),w
  4764  16FE  00D7               	movwf	(_exp$934+1)^(0+128)
  4765  16FF  0844               	movf	?_floor^(0+128),w
  4766  1700  00D6               	movwf	_exp$934^(0+128)
  4767  1701                     l3293:	
  4768  1701  0859               	movf	(_exp$934+3)^(0+128),w
  4769  1702  00BC               	movwf	(___fltol@f1+3)^(0+128)
  4770  1703  0858               	movf	(_exp$934+2)^(0+128),w
  4771  1704  00BB               	movwf	(___fltol@f1+2)^(0+128)
  4772  1705  0857               	movf	(_exp$934+1)^(0+128),w
  4773  1706  00BA               	movwf	(___fltol@f1+1)^(0+128)
  4774  1707  0856               	movf	_exp$934^(0+128),w
  4775  1708  00B9               	movwf	___fltol@f1^(0+128)
  4776  1709  160A  118A  2019  160A  118A  	fcall	___fltol
  4777  170E  1683               	bsf	3,5	;RP0=1, select bank1
  4778  170F  1303               	bcf	3,6	;RP1=0, select bank1
  4779  1710  083A               	movf	(?___fltol+1)^(0+128),w
  4780  1711  00DB               	movwf	(exp@exponent+1)^(0+128)
  4781  1712  0839               	movf	?___fltol^(0+128),w
  4782  1713  00DA               	movwf	exp@exponent^(0+128)
  4783  1714                     l3295:	
  4784  1714  085A               	movf	exp@exponent^(0+128),w
  4785  1715  1283               	bcf	3,5	;RP0=0, select bank0
  4786  1716  1303               	bcf	3,6	;RP1=0, select bank0
  4787  1717  00A0               	movwf	___xxtofl@val
  4788  1718  1683               	bsf	3,5	;RP0=1, select bank1
  4789  1719  1303               	bcf	3,6	;RP1=0, select bank1
  4790  171A  085B               	movf	(exp@exponent+1)^(0+128),w
  4791  171B  1283               	bcf	3,5	;RP0=0, select bank0
  4792  171C  1303               	bcf	3,6	;RP1=0, select bank0
  4793  171D  00A1               	movwf	___xxtofl@val+1
  4794  171E  3000               	movlw	0
  4795  171F  1BA1               	btfsc	___xxtofl@val+1,7
  4796  1720  30FF               	movlw	255
  4797  1721  00A2               	movwf	___xxtofl@val+2
  4798  1722  00A3               	movwf	___xxtofl@val+3
  4799  1723  3001               	movlw	1
  4800  1724  160A  158A  259C  160A  118A  	fcall	___xxtofl
  4801  1729  1283               	bcf	3,5	;RP0=0, select bank0
  4802  172A  1303               	bcf	3,6	;RP1=0, select bank0
  4803  172B  0823               	movf	?___xxtofl+3,w
  4804  172C  1683               	bsf	3,5	;RP0=1, select bank1
  4805  172D  1303               	bcf	3,6	;RP1=0, select bank1
  4806  172E  00BC               	movwf	(___flsub@a+3)^(0+128)
  4807  172F  1283               	bcf	3,5	;RP0=0, select bank0
  4808  1730  1303               	bcf	3,6	;RP1=0, select bank0
  4809  1731  0822               	movf	?___xxtofl+2,w
  4810  1732  1683               	bsf	3,5	;RP0=1, select bank1
  4811  1733  1303               	bcf	3,6	;RP1=0, select bank1
  4812  1734  00BB               	movwf	(___flsub@a+2)^(0+128)
  4813  1735  1283               	bcf	3,5	;RP0=0, select bank0
  4814  1736  1303               	bcf	3,6	;RP1=0, select bank0
  4815  1737  0821               	movf	?___xxtofl+1,w
  4816  1738  1683               	bsf	3,5	;RP0=1, select bank1
  4817  1739  1303               	bcf	3,6	;RP1=0, select bank1
  4818  173A  00BA               	movwf	(___flsub@a+1)^(0+128)
  4819  173B  1283               	bcf	3,5	;RP0=0, select bank0
  4820  173C  1303               	bcf	3,6	;RP1=0, select bank0
  4821  173D  0820               	movf	?___xxtofl,w
  4822  173E  1683               	bsf	3,5	;RP0=1, select bank1
  4823  173F  1303               	bcf	3,6	;RP1=0, select bank1
  4824  1740  00B9               	movwf	___flsub@a^(0+128)
  4825  1741  0854               	movf	(exp@x+3)^(0+128),w
  4826  1742  00C0               	movwf	(___flsub@b+3)^(0+128)
  4827  1743  0853               	movf	(exp@x+2)^(0+128),w
  4828  1744  00BF               	movwf	(___flsub@b+2)^(0+128)
  4829  1745  0852               	movf	(exp@x+1)^(0+128),w
  4830  1746  00BE               	movwf	(___flsub@b+1)^(0+128)
  4831  1747  0851               	movf	exp@x^(0+128),w
  4832  1748  00BD               	movwf	___flsub@b^(0+128)
  4833  1749  160A  158A  2246  160A  118A  	fcall	___flsub
  4834  174E  1683               	bsf	3,5	;RP0=1, select bank1
  4835  174F  1303               	bcf	3,6	;RP1=0, select bank1
  4836  1750  083C               	movf	(?___flsub+3)^(0+128),w
  4837  1751  00D4               	movwf	(exp@x+3)^(0+128)
  4838  1752  083B               	movf	(?___flsub+2)^(0+128),w
  4839  1753  00D3               	movwf	(exp@x+2)^(0+128)
  4840  1754  083A               	movf	(?___flsub+1)^(0+128),w
  4841  1755  00D2               	movwf	(exp@x+1)^(0+128)
  4842  1756  0839               	movf	?___flsub^(0+128),w
  4843  1757  00D1               	movwf	exp@x^(0+128)
  4844  1758                     l3297:	
  4845  1758  0854               	movf	(exp@x+3)^(0+128),w
  4846  1759  00BC               	movwf	(eval_poly@x+3)^(0+128)
  4847  175A  0853               	movf	(exp@x+2)^(0+128),w
  4848  175B  00BB               	movwf	(eval_poly@x+2)^(0+128)
  4849  175C  0852               	movf	(exp@x+1)^(0+128),w
  4850  175D  00BA               	movwf	(eval_poly@x+1)^(0+128)
  4851  175E  0851               	movf	exp@x^(0+128),w
  4852  175F  00B9               	movwf	eval_poly@x^(0+128)
  4853  1760  3001               	movlw	(low ((exp@coeff-__stringbase)| (0+32768)))& (0+255)
  4854  1761  00D5               	movwf	??_exp^(0+128)
  4855  1762  0855               	movf	??_exp^(0+128),w
  4856  1763  00BD               	movwf	eval_poly@d^(0+128)
  4857  1764  3009               	movlw	9
  4858  1765  00BE               	movwf	eval_poly@n^(0+128)
  4859  1766  3000               	movlw	0
  4860  1767  00BF               	movwf	(eval_poly@n^(0+128)+1)
  4861  1768  160A  158A  2726  160A  118A  	fcall	_eval_poly
  4862  176D  1683               	bsf	3,5	;RP0=1, select bank1
  4863  176E  1303               	bcf	3,6	;RP1=0, select bank1
  4864  176F  083C               	movf	(?_eval_poly+3)^(0+128),w
  4865  1770  00CC               	movwf	(ldexp@value+3)^(0+128)
  4866  1771  083B               	movf	(?_eval_poly+2)^(0+128),w
  4867  1772  00CB               	movwf	(ldexp@value+2)^(0+128)
  4868  1773  083A               	movf	(?_eval_poly+1)^(0+128),w
  4869  1774  00CA               	movwf	(ldexp@value+1)^(0+128)
  4870  1775  0839               	movf	?_eval_poly^(0+128),w
  4871  1776  00C9               	movwf	ldexp@value^(0+128)
  4872  1777  085B               	movf	(exp@exponent+1)^(0+128),w
  4873  1778  00CE               	movwf	(ldexp@newexp+1)^(0+128)
  4874  1779  085A               	movf	exp@exponent^(0+128),w
  4875  177A  00CD               	movwf	ldexp@newexp^(0+128)
  4876  177B  160A  158A  2658  160A  118A  	fcall	_ldexp
  4877  1780  1683               	bsf	3,5	;RP0=1, select bank1
  4878  1781  1303               	bcf	3,6	;RP1=0, select bank1
  4879  1782  084C               	movf	(?_ldexp+3)^(0+128),w
  4880  1783  00D4               	movwf	(exp@x+3)^(0+128)
  4881  1784  084B               	movf	(?_ldexp+2)^(0+128),w
  4882  1785  00D3               	movwf	(exp@x+2)^(0+128)
  4883  1786  084A               	movf	(?_ldexp+1)^(0+128),w
  4884  1787  00D2               	movwf	(exp@x+1)^(0+128)
  4885  1788  0849               	movf	?_ldexp^(0+128),w
  4886  1789  00D1               	movwf	exp@x^(0+128)
  4887  178A                     l3299:	
  4888  178A  085C               	movf	exp@sign^(0+128),w
  4889  178B  1903               	btfsc	3,2
  4890  178C  2F8E               	goto	u4471
  4891  178D  2F8F               	goto	u4470
  4892  178E                     u4471:	
  4893  178E  2FFF               	goto	l739
  4894  178F                     u4470:	
  4895  178F                     l3301:	
  4896  178F  0854               	movf	(exp@x+3)^(0+128),w
  4897  1790  1283               	bcf	3,5	;RP0=0, select bank0
  4898  1791  1303               	bcf	3,6	;RP1=0, select bank0
  4899  1792  00B1               	movwf	___fleq@ff1+3
  4900  1793  1683               	bsf	3,5	;RP0=1, select bank1
  4901  1794  1303               	bcf	3,6	;RP1=0, select bank1
  4902  1795  0853               	movf	(exp@x+2)^(0+128),w
  4903  1796  1283               	bcf	3,5	;RP0=0, select bank0
  4904  1797  1303               	bcf	3,6	;RP1=0, select bank0
  4905  1798  00B0               	movwf	___fleq@ff1+2
  4906  1799  1683               	bsf	3,5	;RP0=1, select bank1
  4907  179A  1303               	bcf	3,6	;RP1=0, select bank1
  4908  179B  0852               	movf	(exp@x+1)^(0+128),w
  4909  179C  1283               	bcf	3,5	;RP0=0, select bank0
  4910  179D  1303               	bcf	3,6	;RP1=0, select bank0
  4911  179E  00AF               	movwf	___fleq@ff1+1
  4912  179F  1683               	bsf	3,5	;RP0=1, select bank1
  4913  17A0  1303               	bcf	3,6	;RP1=0, select bank1
  4914  17A1  0851               	movf	exp@x^(0+128),w
  4915  17A2  1283               	bcf	3,5	;RP0=0, select bank0
  4916  17A3  1303               	bcf	3,6	;RP1=0, select bank0
  4917  17A4  00AE               	movwf	___fleq@ff1
  4918  17A5  307F               	movlw	127
  4919  17A6  00B5               	movwf	___fleq@ff2+3
  4920  17A7  307F               	movlw	127
  4921  17A8  00B4               	movwf	___fleq@ff2+2
  4922  17A9  30FF               	movlw	255
  4923  17AA  00B3               	movwf	___fleq@ff2+1
  4924  17AB  30FF               	movlw	255
  4925  17AC  00B2               	movwf	___fleq@ff2
  4926  17AD  160A  158A  2296  160A  118A  	fcall	___fleq
  4927  17B2  1C03               	btfss	3,0
  4928  17B3  2FB5               	goto	u4481
  4929  17B4  2FB6               	goto	u4480
  4930  17B5                     u4481:	
  4931  17B5  2FC1               	goto	l3307
  4932  17B6                     u4480:	
  4933  17B6                     l3303:	
  4934  17B6  3000               	movlw	0
  4935  17B7  1683               	bsf	3,5	;RP0=1, select bank1
  4936  17B8  1303               	bcf	3,6	;RP1=0, select bank1
  4937  17B9  00D4               	movwf	(?_exp+3)^(0+128)
  4938  17BA  3000               	movlw	0
  4939  17BB  00D3               	movwf	(?_exp+2)^(0+128)
  4940  17BC  3000               	movlw	0
  4941  17BD  00D2               	movwf	(?_exp+1)^(0+128)
  4942  17BE  3000               	movlw	0
  4943  17BF  00D1               	movwf	?_exp^(0+128)
  4944  17C0  2FFF               	goto	l735
  4945  17C1                     l3307:	
  4946  17C1  1683               	bsf	3,5	;RP0=1, select bank1
  4947  17C2  1303               	bcf	3,6	;RP1=0, select bank1
  4948  17C3  0854               	movf	(exp@x+3)^(0+128),w
  4949  17C4  1283               	bcf	3,5	;RP0=0, select bank0
  4950  17C5  1303               	bcf	3,6	;RP1=0, select bank0
  4951  17C6  00DE               	movwf	___fldiv@a+3
  4952  17C7  1683               	bsf	3,5	;RP0=1, select bank1
  4953  17C8  1303               	bcf	3,6	;RP1=0, select bank1
  4954  17C9  0853               	movf	(exp@x+2)^(0+128),w
  4955  17CA  1283               	bcf	3,5	;RP0=0, select bank0
  4956  17CB  1303               	bcf	3,6	;RP1=0, select bank0
  4957  17CC  00DD               	movwf	___fldiv@a+2
  4958  17CD  1683               	bsf	3,5	;RP0=1, select bank1
  4959  17CE  1303               	bcf	3,6	;RP1=0, select bank1
  4960  17CF  0852               	movf	(exp@x+1)^(0+128),w
  4961  17D0  1283               	bcf	3,5	;RP0=0, select bank0
  4962  17D1  1303               	bcf	3,6	;RP1=0, select bank0
  4963  17D2  00DC               	movwf	___fldiv@a+1
  4964  17D3  1683               	bsf	3,5	;RP0=1, select bank1
  4965  17D4  1303               	bcf	3,6	;RP1=0, select bank1
  4966  17D5  0851               	movf	exp@x^(0+128),w
  4967  17D6  1283               	bcf	3,5	;RP0=0, select bank0
  4968  17D7  1303               	bcf	3,6	;RP1=0, select bank0
  4969  17D8  00DB               	movwf	___fldiv@a
  4970  17D9  303F               	movlw	63
  4971  17DA  00E2               	movwf	___fldiv@b+3
  4972  17DB  3080               	movlw	128
  4973  17DC  00E1               	movwf	___fldiv@b+2
  4974  17DD  3000               	movlw	0
  4975  17DE  00E0               	movwf	___fldiv@b+1
  4976  17DF  3000               	movlw	0
  4977  17E0  00DF               	movwf	___fldiv@b
  4978  17E1  120A  158A  21DC  160A  118A  	fcall	___fldiv
  4979  17E6  1283               	bcf	3,5	;RP0=0, select bank0
  4980  17E7  1303               	bcf	3,6	;RP1=0, select bank0
  4981  17E8  085E               	movf	?___fldiv+3,w
  4982  17E9  1683               	bsf	3,5	;RP0=1, select bank1
  4983  17EA  1303               	bcf	3,6	;RP1=0, select bank1
  4984  17EB  00D4               	movwf	(?_exp+3)^(0+128)
  4985  17EC  1283               	bcf	3,5	;RP0=0, select bank0
  4986  17ED  1303               	bcf	3,6	;RP1=0, select bank0
  4987  17EE  085D               	movf	?___fldiv+2,w
  4988  17EF  1683               	bsf	3,5	;RP0=1, select bank1
  4989  17F0  1303               	bcf	3,6	;RP1=0, select bank1
  4990  17F1  00D3               	movwf	(?_exp+2)^(0+128)
  4991  17F2  1283               	bcf	3,5	;RP0=0, select bank0
  4992  17F3  1303               	bcf	3,6	;RP1=0, select bank0
  4993  17F4  085C               	movf	?___fldiv+1,w
  4994  17F5  1683               	bsf	3,5	;RP0=1, select bank1
  4995  17F6  1303               	bcf	3,6	;RP1=0, select bank1
  4996  17F7  00D2               	movwf	(?_exp+1)^(0+128)
  4997  17F8  1283               	bcf	3,5	;RP0=0, select bank0
  4998  17F9  1303               	bcf	3,6	;RP1=0, select bank0
  4999  17FA  085B               	movf	?___fldiv,w
  5000  17FB  1683               	bsf	3,5	;RP0=1, select bank1
  5001  17FC  1303               	bcf	3,6	;RP1=0, select bank1
  5002  17FD  00D1               	movwf	?_exp^(0+128)
  5003  17FE  2FFF               	goto	l735
  5004  17FF                     l739:	
  5005  17FF                     l735:	
  5006  17FF  0008               	return
  5007  1800                     __end_of_exp:	
  5008                           
  5009                           	psect	text10
  5010  1E58                     __ptext10:	
  5011 ;; *************** function _ldexp *****************
  5012 ;; Defined at:
  5013 ;;		line 277 in file "C:\Program Files (x86)\Microchip\xc8\v2.10\pic\sources\c90\common\frexp.c"
  5014 ;; Parameters:    Size  Location     Type
  5015 ;;  value           4   41[BANK1 ] unsigned char 
  5016 ;;  newexp          2   45[BANK1 ] int 
  5017 ;; Auto vars:     Size  Location     Type
  5018 ;;		None
  5019 ;; Return value:  Size  Location     Type
  5020 ;;                  4   41[BANK1 ] int 
  5021 ;; Registers used:
  5022 ;;		wreg, status,2, status,0, btemp+1, pclath, cstack
  5023 ;; Tracked objects:
  5024 ;;		On entry : 0/0
  5025 ;;		On exit  : 0/0
  5026 ;;		Unchanged: 0/0
  5027 ;; Data sizes:     COMMON   BANK0   BANK1   BANK3   BANK2
  5028 ;;      Params:         0       0       6       0       0
  5029 ;;      Locals:         0       0       0       0       0
  5030 ;;      Temps:          0       0       2       0       0
  5031 ;;      Totals:         0       0       8       0       0
  5032 ;;Total ram usage:        8 bytes
  5033 ;; Hardware stack levels used:    1
  5034 ;; Hardware stack levels required when called:    3
  5035 ;; This function calls:
  5036 ;;		___fleq
  5037 ;;		___flge
  5038 ;; This function is called by:
  5039 ;;		_exp
  5040 ;; This function uses a non-reentrant model
  5041 ;;
  5042                           
  5043                           
  5044                           ;psect for function _ldexp
  5045  1E58                     _ldexp:	
  5046  1E58                     l2745:	
  5047                           ;incstack = 0
  5048                           ; Regs used in _ldexp: [wreg+status,2+status,0+btemp+1+pclath+cstack]
  5049                           
  5050  1E58  1683               	bsf	3,5	;RP0=1, select bank1
  5051  1E59  1303               	bcf	3,6	;RP1=0, select bank1
  5052  1E5A  084C               	movf	(ldexp@value+3)^(0+128),w
  5053  1E5B  1283               	bcf	3,5	;RP0=0, select bank0
  5054  1E5C  1303               	bcf	3,6	;RP1=0, select bank0
  5055  1E5D  00B1               	movwf	___fleq@ff1+3
  5056  1E5E  1683               	bsf	3,5	;RP0=1, select bank1
  5057  1E5F  1303               	bcf	3,6	;RP1=0, select bank1
  5058  1E60  084B               	movf	(ldexp@value+2)^(0+128),w
  5059  1E61  1283               	bcf	3,5	;RP0=0, select bank0
  5060  1E62  1303               	bcf	3,6	;RP1=0, select bank0
  5061  1E63  00B0               	movwf	___fleq@ff1+2
  5062  1E64  1683               	bsf	3,5	;RP0=1, select bank1
  5063  1E65  1303               	bcf	3,6	;RP1=0, select bank1
  5064  1E66  084A               	movf	(ldexp@value+1)^(0+128),w
  5065  1E67  1283               	bcf	3,5	;RP0=0, select bank0
  5066  1E68  1303               	bcf	3,6	;RP1=0, select bank0
  5067  1E69  00AF               	movwf	___fleq@ff1+1
  5068  1E6A  1683               	bsf	3,5	;RP0=1, select bank1
  5069  1E6B  1303               	bcf	3,6	;RP1=0, select bank1
  5070  1E6C  0849               	movf	ldexp@value^(0+128),w
  5071  1E6D  1283               	bcf	3,5	;RP0=0, select bank0
  5072  1E6E  1303               	bcf	3,6	;RP1=0, select bank0
  5073  1E6F  00AE               	movwf	___fleq@ff1
  5074  1E70  3000               	movlw	0
  5075  1E71  00B5               	movwf	___fleq@ff2+3
  5076  1E72  3000               	movlw	0
  5077  1E73  00B4               	movwf	___fleq@ff2+2
  5078  1E74  3000               	movlw	0
  5079  1E75  00B3               	movwf	___fleq@ff2+1
  5080  1E76  3000               	movlw	0
  5081  1E77  00B2               	movwf	___fleq@ff2
  5082  1E78  160A  158A  2296  160A  158A  	fcall	___fleq
  5083  1E7D  1C03               	btfss	3,0
  5084  1E7E  2E80               	goto	u3791
  5085  1E7F  2E81               	goto	u3790
  5086  1E80                     u3791:	
  5087  1E80  2E8C               	goto	l2751
  5088  1E81                     u3790:	
  5089  1E81                     l2747:	
  5090  1E81  3000               	movlw	0
  5091  1E82  1683               	bsf	3,5	;RP0=1, select bank1
  5092  1E83  1303               	bcf	3,6	;RP1=0, select bank1
  5093  1E84  00CC               	movwf	(?_ldexp+3)^(0+128)
  5094  1E85  3000               	movlw	0
  5095  1E86  00CB               	movwf	(?_ldexp+2)^(0+128)
  5096  1E87  3000               	movlw	0
  5097  1E88  00CA               	movwf	(?_ldexp+1)^(0+128)
  5098  1E89  3000               	movlw	0
  5099  1E8A  00C9               	movwf	?_ldexp^(0+128)
  5100  1E8B  2F25               	goto	l759
  5101  1E8C                     l2751:	
  5102  1E8C  1683               	bsf	3,5	;RP0=1, select bank1
  5103  1E8D  1303               	bcf	3,6	;RP1=0, select bank1
  5104  1E8E  084C               	movf	(ldexp@value^(0+128)+3),w
  5105  1E8F  397F               	andlw	127
  5106  1E90  00CF               	movwf	??_ldexp^(0+128)
  5107  1E91  01D0               	clrf	(??_ldexp^(0+128)+1)
  5108  1E92  1003               	clrc
  5109  1E93  0DCF               	rlf	??_ldexp^(0+128),f
  5110  1E94  0DD0               	rlf	(??_ldexp^(0+128)+1),f
  5111  1E95  084F               	movf	??_ldexp^(0+128),w
  5112  1E96  07CD               	addwf	ldexp@newexp^(0+128),f
  5113  1E97  1803               	skipnc
  5114  1E98  0ACE               	incf	(ldexp@newexp+1)^(0+128),f
  5115  1E99  0850               	movf	(??_ldexp+1)^(0+128),w
  5116  1E9A  07CE               	addwf	(ldexp@newexp+1)^(0+128),f
  5117  1E9B  0D4B               	rlf	(ldexp@value^(0+128)+2),w
  5118  1E9C  0D4B               	rlf	(ldexp@value^(0+128)+2),w
  5119  1E9D  3901               	andlw	1
  5120  1E9E  00CF               	movwf	??_ldexp^(0+128)
  5121  1E9F  01D0               	clrf	(??_ldexp^(0+128)+1)
  5122  1EA0  084F               	movf	??_ldexp^(0+128),w
  5123  1EA1  07CD               	addwf	ldexp@newexp^(0+128),f
  5124  1EA2  1803               	skipnc
  5125  1EA3  0ACE               	incf	(ldexp@newexp+1)^(0+128),f
  5126  1EA4  0850               	movf	(??_ldexp+1)^(0+128),w
  5127  1EA5  07CE               	addwf	(ldexp@newexp+1)^(0+128),f
  5128  1EA6                     l2753:	
  5129  1EA6  1FCE               	btfss	(ldexp@newexp+1)^(0+128),7
  5130  1EA7  2EA9               	goto	u3801
  5131  1EA8  2EAA               	goto	u3800
  5132  1EA9                     u3801:	
  5133  1EA9  2EBB               	goto	l2761
  5134  1EAA                     u3800:	
  5135  1EAA                     l2755:	
  5136  1EAA  3022               	movlw	34
  5137  1EAB  1683               	bsf	3,5	;RP0=1, select bank3
  5138  1EAC  1703               	bsf	3,6	;RP1=1, select bank3
  5139  1EAD  00D2               	movwf	_errno^(0+384)
  5140  1EAE  3000               	movlw	0
  5141  1EAF  00D3               	movwf	(_errno^(0+384)+1)
  5142  1EB0  3000               	movlw	0
  5143  1EB1  1683               	bsf	3,5	;RP0=1, select bank1
  5144  1EB2  1303               	bcf	3,6	;RP1=0, select bank1
  5145  1EB3  00CC               	movwf	(?_ldexp+3)^(0+128)
  5146  1EB4  3000               	movlw	0
  5147  1EB5  00CB               	movwf	(?_ldexp+2)^(0+128)
  5148  1EB6  3000               	movlw	0
  5149  1EB7  00CA               	movwf	(?_ldexp+1)^(0+128)
  5150  1EB8  3000               	movlw	0
  5151  1EB9  00C9               	movwf	?_ldexp^(0+128)
  5152  1EBA  2F25               	goto	l759
  5153  1EBB                     l2761:	
  5154  1EBB  084E               	movf	(ldexp@newexp+1)^(0+128),w
  5155  1EBC  3A80               	xorlw	128
  5156  1EBD  00FF               	movwf	btemp+1
  5157  1EBE  3081               	movlw	129
  5158  1EBF  027F               	subwf	btemp+1,w
  5159  1EC0  1D03               	skipz
  5160  1EC1  2EC4               	goto	u3815
  5161  1EC2  3000               	movlw	0
  5162  1EC3  024D               	subwf	ldexp@newexp^(0+128),w
  5163  1EC4                     u3815:	
  5164  1EC4  1C03               	skipc
  5165  1EC5  2EC7               	goto	u3811
  5166  1EC6  2EC8               	goto	u3810
  5167  1EC7                     u3811:	
  5168  1EC7  2F0D               	goto	l2777
  5169  1EC8                     u3810:	
  5170  1EC8                     l2763:	
  5171  1EC8  3022               	movlw	34
  5172  1EC9  1683               	bsf	3,5	;RP0=1, select bank3
  5173  1ECA  1703               	bsf	3,6	;RP1=1, select bank3
  5174  1ECB  00D2               	movwf	_errno^(0+384)
  5175  1ECC  3000               	movlw	0
  5176  1ECD  00D3               	movwf	(_errno^(0+384)+1)
  5177  1ECE                     l2765:	
  5178  1ECE  1683               	bsf	3,5	;RP0=1, select bank1
  5179  1ECF  1303               	bcf	3,6	;RP1=0, select bank1
  5180  1ED0  084C               	movf	(ldexp@value+3)^(0+128),w
  5181  1ED1  1283               	bcf	3,5	;RP0=0, select bank0
  5182  1ED2  1303               	bcf	3,6	;RP1=0, select bank0
  5183  1ED3  00A3               	movwf	___flge@ff1+3
  5184  1ED4  1683               	bsf	3,5	;RP0=1, select bank1
  5185  1ED5  1303               	bcf	3,6	;RP1=0, select bank1
  5186  1ED6  084B               	movf	(ldexp@value+2)^(0+128),w
  5187  1ED7  1283               	bcf	3,5	;RP0=0, select bank0
  5188  1ED8  1303               	bcf	3,6	;RP1=0, select bank0
  5189  1ED9  00A2               	movwf	___flge@ff1+2
  5190  1EDA  1683               	bsf	3,5	;RP0=1, select bank1
  5191  1EDB  1303               	bcf	3,6	;RP1=0, select bank1
  5192  1EDC  084A               	movf	(ldexp@value+1)^(0+128),w
  5193  1EDD  1283               	bcf	3,5	;RP0=0, select bank0
  5194  1EDE  1303               	bcf	3,6	;RP1=0, select bank0
  5195  1EDF  00A1               	movwf	___flge@ff1+1
  5196  1EE0  1683               	bsf	3,5	;RP0=1, select bank1
  5197  1EE1  1303               	bcf	3,6	;RP1=0, select bank1
  5198  1EE2  0849               	movf	ldexp@value^(0+128),w
  5199  1EE3  1283               	bcf	3,5	;RP0=0, select bank0
  5200  1EE4  1303               	bcf	3,6	;RP1=0, select bank0
  5201  1EE5  00A0               	movwf	___flge@ff1
  5202  1EE6  3000               	movlw	0
  5203  1EE7  00A7               	movwf	___flge@ff2+3
  5204  1EE8  3000               	movlw	0
  5205  1EE9  00A6               	movwf	___flge@ff2+2
  5206  1EEA  3000               	movlw	0
  5207  1EEB  00A5               	movwf	___flge@ff2+1
  5208  1EEC  3000               	movlw	0
  5209  1EED  00A4               	movwf	___flge@ff2
  5210  1EEE  160A  158A  24F8  160A  158A  	fcall	___flge
  5211  1EF3  1803               	btfsc	3,0
  5212  1EF4  2EF6               	goto	u3821
  5213  1EF5  2EF7               	goto	u3820
  5214  1EF6                     u3821:	
  5215  1EF6  2F02               	goto	l2773
  5216  1EF7                     u3820:	
  5217  1EF7                     l2767:	
  5218  1EF7  30FF               	movlw	255
  5219  1EF8  1683               	bsf	3,5	;RP0=1, select bank1
  5220  1EF9  1303               	bcf	3,6	;RP1=0, select bank1
  5221  1EFA  00CC               	movwf	(?_ldexp+3)^(0+128)
  5222  1EFB  307F               	movlw	127
  5223  1EFC  00CB               	movwf	(?_ldexp+2)^(0+128)
  5224  1EFD  30FF               	movlw	255
  5225  1EFE  00CA               	movwf	(?_ldexp+1)^(0+128)
  5226  1EFF  30FF               	movlw	255
  5227  1F00  00C9               	movwf	?_ldexp^(0+128)
  5228  1F01  2F25               	goto	l759
  5229  1F02                     l2773:	
  5230  1F02  307F               	movlw	127
  5231  1F03  1683               	bsf	3,5	;RP0=1, select bank1
  5232  1F04  1303               	bcf	3,6	;RP1=0, select bank1
  5233  1F05  00CC               	movwf	(?_ldexp+3)^(0+128)
  5234  1F06  307F               	movlw	127
  5235  1F07  00CB               	movwf	(?_ldexp+2)^(0+128)
  5236  1F08  30FF               	movlw	255
  5237  1F09  00CA               	movwf	(?_ldexp+1)^(0+128)
  5238  1F0A  30FF               	movlw	255
  5239  1F0B  00C9               	movwf	?_ldexp^(0+128)
  5240  1F0C  2F25               	goto	l759
  5241  1F0D                     l2777:	
  5242  1F0D  1683               	bsf	3,5	;RP0=1, select bank1
  5243  1F0E  1303               	bcf	3,6	;RP1=0, select bank1
  5244  1F0F  084E               	movf	(ldexp@newexp+1)^(0+128),w
  5245  1F10  00D0               	movwf	(??_ldexp^(0+128)+1)
  5246  1F11  084D               	movf	ldexp@newexp^(0+128),w
  5247  1F12  00CF               	movwf	??_ldexp^(0+128)
  5248  1F13  0D50               	rlf	(??_ldexp^(0+128)+1),w
  5249  1F14  0CD0               	rrf	(??_ldexp^(0+128)+1),f
  5250  1F15  0CCF               	rrf	??_ldexp^(0+128),f
  5251  1F16  084C               	movf	(ldexp@value^(0+128)+3),w
  5252  1F17  064F               	xorwf	??_ldexp^(0+128),w
  5253  1F18  3980               	andlw	-128
  5254  1F19  064F               	xorwf	??_ldexp^(0+128),w
  5255  1F1A  00CC               	movwf	(ldexp@value^(0+128)+3)
  5256  1F1B  084D               	movf	ldexp@newexp^(0+128),w
  5257  1F1C  3901               	andlw	1
  5258  1F1D  00CF               	movwf	??_ldexp^(0+128)
  5259  1F1E  0CCF               	rrf	??_ldexp^(0+128),f
  5260  1F1F  0CCF               	rrf	??_ldexp^(0+128),f
  5261  1F20  084B               	movf	(ldexp@value^(0+128)+2),w
  5262  1F21  064F               	xorwf	??_ldexp^(0+128),w
  5263  1F22  397F               	andlw	-129
  5264  1F23  064F               	xorwf	??_ldexp^(0+128),w
  5265  1F24  00CB               	movwf	(ldexp@value^(0+128)+2)
  5266  1F25                     l2779:	
  5267  1F25                     l759:	
  5268  1F25  0008               	return
  5269  1F26                     __end_of_ldexp:	
  5270                           
  5271                           	psect	text11
  5272  1095                     __ptext11:	
  5273 ;; *************** function _floor *****************
  5274 ;; Defined at:
  5275 ;;		line 13 in file "C:\Program Files (x86)\Microchip\xc8\v2.10\pic\sources\c90\common\floor.c"
  5276 ;; Parameters:    Size  Location     Type
  5277 ;;  x               4   36[BANK1 ] int 
  5278 ;; Auto vars:     Size  Location     Type
  5279 ;;  i               4   41[BANK1 ] int 
  5280 ;;  expon           2   45[BANK1 ] int 
  5281 ;; Return value:  Size  Location     Type
  5282 ;;                  4   36[BANK1 ] int 
  5283 ;; Registers used:
  5284 ;;		wreg, fsr0l, fsr0h, status,2, status,0, btemp+1, pclath, cstack
  5285 ;; Tracked objects:
  5286 ;;		On entry : 0/0
  5287 ;;		On exit  : 0/0
  5288 ;;		Unchanged: 0/0
  5289 ;; Data sizes:     COMMON   BANK0   BANK1   BANK3   BANK2
  5290 ;;      Params:         0       0       4       0       0
  5291 ;;      Locals:         0       0       6       0       0
  5292 ;;      Temps:          0       0       1       0       0
  5293 ;;      Totals:         0       0      11       0       0
  5294 ;;Total ram usage:       11 bytes
  5295 ;; Hardware stack levels used:    1
  5296 ;; Hardware stack levels required when called:    4
  5297 ;; This function calls:
  5298 ;;		___fladd
  5299 ;;		___flge
  5300 ;;		___fltol
  5301 ;;		___xxtofl
  5302 ;;		_frexp
  5303 ;; This function is called by:
  5304 ;;		_exp
  5305 ;; This function uses a non-reentrant model
  5306 ;;
  5307                           
  5308                           
  5309                           ;psect for function _floor
  5310  1095                     _floor:	
  5311  1095                     l2707:	
  5312                           ;incstack = 0
  5313                           ; Regs used in _floor: [wreg-fsr0h+status,2+status,0+btemp+1+pclath+cstack]
  5314                           
  5315  1095  1683               	bsf	3,5	;RP0=1, select bank1
  5316  1096  1303               	bcf	3,6	;RP1=0, select bank1
  5317  1097  0847               	movf	(floor@x+3)^(0+128),w
  5318  1098  1283               	bcf	3,5	;RP0=0, select bank0
  5319  1099  1303               	bcf	3,6	;RP1=0, select bank0
  5320  109A  00BD               	movwf	frexp@value+3
  5321  109B  1683               	bsf	3,5	;RP0=1, select bank1
  5322  109C  1303               	bcf	3,6	;RP1=0, select bank1
  5323  109D  0846               	movf	(floor@x+2)^(0+128),w
  5324  109E  1283               	bcf	3,5	;RP0=0, select bank0
  5325  109F  1303               	bcf	3,6	;RP1=0, select bank0
  5326  10A0  00BC               	movwf	frexp@value+2
  5327  10A1  1683               	bsf	3,5	;RP0=1, select bank1
  5328  10A2  1303               	bcf	3,6	;RP1=0, select bank1
  5329  10A3  0845               	movf	(floor@x+1)^(0+128),w
  5330  10A4  1283               	bcf	3,5	;RP0=0, select bank0
  5331  10A5  1303               	bcf	3,6	;RP1=0, select bank0
  5332  10A6  00BB               	movwf	frexp@value+1
  5333  10A7  1683               	bsf	3,5	;RP0=1, select bank1
  5334  10A8  1303               	bcf	3,6	;RP1=0, select bank1
  5335  10A9  0844               	movf	floor@x^(0+128),w
  5336  10AA  1283               	bcf	3,5	;RP0=0, select bank0
  5337  10AB  1303               	bcf	3,6	;RP1=0, select bank0
  5338  10AC  00BA               	movwf	frexp@value
  5339  10AD  30CD               	movlw	(low (floor@expon| 0))& (0+255)
  5340  10AE  1683               	bsf	3,5	;RP0=1, select bank1
  5341  10AF  1303               	bcf	3,6	;RP1=0, select bank1
  5342  10B0  00C8               	movwf	??_floor^(0+128)
  5343  10B1  0848               	movf	??_floor^(0+128),w
  5344  10B2  1283               	bcf	3,5	;RP0=0, select bank0
  5345  10B3  1303               	bcf	3,6	;RP1=0, select bank0
  5346  10B4  00BE               	movwf	frexp@eptr
  5347  10B5  160A  158A  2396  160A  118A  	fcall	_frexp
  5348  10BA                     l2709:	
  5349  10BA  1683               	bsf	3,5	;RP0=1, select bank1
  5350  10BB  1303               	bcf	3,6	;RP1=0, select bank1
  5351  10BC  1FCE               	btfss	(floor@expon+1)^(0+128),7
  5352  10BD  28BF               	goto	u3721
  5353  10BE  28C0               	goto	u3720
  5354  10BF                     u3721:	
  5355  10BF  28FD               	goto	l2721
  5356  10C0                     u3720:	
  5357  10C0                     l2711:	
  5358  10C0  0847               	movf	(floor@x+3)^(0+128),w
  5359  10C1  1283               	bcf	3,5	;RP0=0, select bank0
  5360  10C2  1303               	bcf	3,6	;RP1=0, select bank0
  5361  10C3  00A3               	movwf	___flge@ff1+3
  5362  10C4  1683               	bsf	3,5	;RP0=1, select bank1
  5363  10C5  1303               	bcf	3,6	;RP1=0, select bank1
  5364  10C6  0846               	movf	(floor@x+2)^(0+128),w
  5365  10C7  1283               	bcf	3,5	;RP0=0, select bank0
  5366  10C8  1303               	bcf	3,6	;RP1=0, select bank0
  5367  10C9  00A2               	movwf	___flge@ff1+2
  5368  10CA  1683               	bsf	3,5	;RP0=1, select bank1
  5369  10CB  1303               	bcf	3,6	;RP1=0, select bank1
  5370  10CC  0845               	movf	(floor@x+1)^(0+128),w
  5371  10CD  1283               	bcf	3,5	;RP0=0, select bank0
  5372  10CE  1303               	bcf	3,6	;RP1=0, select bank0
  5373  10CF  00A1               	movwf	___flge@ff1+1
  5374  10D0  1683               	bsf	3,5	;RP0=1, select bank1
  5375  10D1  1303               	bcf	3,6	;RP1=0, select bank1
  5376  10D2  0844               	movf	floor@x^(0+128),w
  5377  10D3  1283               	bcf	3,5	;RP0=0, select bank0
  5378  10D4  1303               	bcf	3,6	;RP1=0, select bank0
  5379  10D5  00A0               	movwf	___flge@ff1
  5380  10D6  3000               	movlw	0
  5381  10D7  00A7               	movwf	___flge@ff2+3
  5382  10D8  3000               	movlw	0
  5383  10D9  00A6               	movwf	___flge@ff2+2
  5384  10DA  3000               	movlw	0
  5385  10DB  00A5               	movwf	___flge@ff2+1
  5386  10DC  3000               	movlw	0
  5387  10DD  00A4               	movwf	___flge@ff2
  5388  10DE  160A  158A  24F8  160A  118A  	fcall	___flge
  5389  10E3  1803               	btfsc	3,0
  5390  10E4  28E6               	goto	u3731
  5391  10E5  28E7               	goto	u3730
  5392  10E6                     u3731:	
  5393  10E6  28F2               	goto	l2717
  5394  10E7                     u3730:	
  5395  10E7                     l2713:	
  5396  10E7  30BF               	movlw	191
  5397  10E8  1683               	bsf	3,5	;RP0=1, select bank1
  5398  10E9  1303               	bcf	3,6	;RP1=0, select bank1
  5399  10EA  00C7               	movwf	(?_floor+3)^(0+128)
  5400  10EB  3080               	movlw	128
  5401  10EC  00C6               	movwf	(?_floor+2)^(0+128)
  5402  10ED  3000               	movlw	0
  5403  10EE  00C5               	movwf	(?_floor+1)^(0+128)
  5404  10EF  3000               	movlw	0
  5405  10F0  00C4               	movwf	?_floor^(0+128)
  5406  10F1  29CB               	goto	l747
  5407  10F2                     l2717:	
  5408  10F2  3000               	movlw	0
  5409  10F3  1683               	bsf	3,5	;RP0=1, select bank1
  5410  10F4  1303               	bcf	3,6	;RP1=0, select bank1
  5411  10F5  00C7               	movwf	(?_floor+3)^(0+128)
  5412  10F6  3000               	movlw	0
  5413  10F7  00C6               	movwf	(?_floor+2)^(0+128)
  5414  10F8  3000               	movlw	0
  5415  10F9  00C5               	movwf	(?_floor+1)^(0+128)
  5416  10FA  3000               	movlw	0
  5417  10FB  00C4               	movwf	?_floor^(0+128)
  5418  10FC  29CB               	goto	l747
  5419  10FD                     l2721:	
  5420  10FD  3000               	movlw	0
  5421  10FE  024E               	subwf	(floor@expon+1)^(0+128),w
  5422  10FF  301D               	movlw	29
  5423  1100  1903               	skipnz
  5424  1101  024D               	subwf	floor@expon^(0+128),w
  5425  1102  1C03               	skipc
  5426  1103  2905               	goto	u3741
  5427  1104  2906               	goto	u3740
  5428  1105                     u3741:	
  5429  1105  2907               	goto	l2725
  5430  1106                     u3740:	
  5431  1106                     l2723:	
  5432  1106  29CB               	goto	l747
  5433  1107                     l2725:	
  5434  1107  0847               	movf	(floor@x+3)^(0+128),w
  5435  1108  00BC               	movwf	(___fltol@f1+3)^(0+128)
  5436  1109  0846               	movf	(floor@x+2)^(0+128),w
  5437  110A  00BB               	movwf	(___fltol@f1+2)^(0+128)
  5438  110B  0845               	movf	(floor@x+1)^(0+128),w
  5439  110C  00BA               	movwf	(___fltol@f1+1)^(0+128)
  5440  110D  0844               	movf	floor@x^(0+128),w
  5441  110E  00B9               	movwf	___fltol@f1^(0+128)
  5442  110F  160A  118A  2019  160A  118A  	fcall	___fltol
  5443  1114  1683               	bsf	3,5	;RP0=1, select bank1
  5444  1115  1303               	bcf	3,6	;RP1=0, select bank1
  5445  1116  083C               	movf	(?___fltol+3)^(0+128),w
  5446  1117  1283               	bcf	3,5	;RP0=0, select bank0
  5447  1118  1303               	bcf	3,6	;RP1=0, select bank0
  5448  1119  00A3               	movwf	___xxtofl@val+3
  5449  111A  1683               	bsf	3,5	;RP0=1, select bank1
  5450  111B  1303               	bcf	3,6	;RP1=0, select bank1
  5451  111C  083B               	movf	(?___fltol+2)^(0+128),w
  5452  111D  1283               	bcf	3,5	;RP0=0, select bank0
  5453  111E  1303               	bcf	3,6	;RP1=0, select bank0
  5454  111F  00A2               	movwf	___xxtofl@val+2
  5455  1120  1683               	bsf	3,5	;RP0=1, select bank1
  5456  1121  1303               	bcf	3,6	;RP1=0, select bank1
  5457  1122  083A               	movf	(?___fltol+1)^(0+128),w
  5458  1123  1283               	bcf	3,5	;RP0=0, select bank0
  5459  1124  1303               	bcf	3,6	;RP1=0, select bank0
  5460  1125  00A1               	movwf	___xxtofl@val+1
  5461  1126  1683               	bsf	3,5	;RP0=1, select bank1
  5462  1127  1303               	bcf	3,6	;RP1=0, select bank1
  5463  1128  0839               	movf	?___fltol^(0+128),w
  5464  1129  1283               	bcf	3,5	;RP0=0, select bank0
  5465  112A  1303               	bcf	3,6	;RP1=0, select bank0
  5466  112B  00A0               	movwf	___xxtofl@val
  5467  112C  3001               	movlw	1
  5468  112D  160A  158A  259C  160A  118A  	fcall	___xxtofl
  5469  1132  1283               	bcf	3,5	;RP0=0, select bank0
  5470  1133  1303               	bcf	3,6	;RP1=0, select bank0
  5471  1134  0823               	movf	?___xxtofl+3,w
  5472  1135  1683               	bsf	3,5	;RP0=1, select bank1
  5473  1136  1303               	bcf	3,6	;RP1=0, select bank1
  5474  1137  00CC               	movwf	(floor@i+3)^(0+128)
  5475  1138  1283               	bcf	3,5	;RP0=0, select bank0
  5476  1139  1303               	bcf	3,6	;RP1=0, select bank0
  5477  113A  0822               	movf	?___xxtofl+2,w
  5478  113B  1683               	bsf	3,5	;RP0=1, select bank1
  5479  113C  1303               	bcf	3,6	;RP1=0, select bank1
  5480  113D  00CB               	movwf	(floor@i+2)^(0+128)
  5481  113E  1283               	bcf	3,5	;RP0=0, select bank0
  5482  113F  1303               	bcf	3,6	;RP1=0, select bank0
  5483  1140  0821               	movf	?___xxtofl+1,w
  5484  1141  1683               	bsf	3,5	;RP0=1, select bank1
  5485  1142  1303               	bcf	3,6	;RP1=0, select bank1
  5486  1143  00CA               	movwf	(floor@i+1)^(0+128)
  5487  1144  1283               	bcf	3,5	;RP0=0, select bank0
  5488  1145  1303               	bcf	3,6	;RP1=0, select bank0
  5489  1146  0820               	movf	?___xxtofl,w
  5490  1147  1683               	bsf	3,5	;RP0=1, select bank1
  5491  1148  1303               	bcf	3,6	;RP1=0, select bank1
  5492  1149  00C9               	movwf	floor@i^(0+128)
  5493  114A  0847               	movf	(floor@x+3)^(0+128),w
  5494  114B  1283               	bcf	3,5	;RP0=0, select bank0
  5495  114C  1303               	bcf	3,6	;RP1=0, select bank0
  5496  114D  00A3               	movwf	___flge@ff1+3
  5497  114E  1683               	bsf	3,5	;RP0=1, select bank1
  5498  114F  1303               	bcf	3,6	;RP1=0, select bank1
  5499  1150  0846               	movf	(floor@x+2)^(0+128),w
  5500  1151  1283               	bcf	3,5	;RP0=0, select bank0
  5501  1152  1303               	bcf	3,6	;RP1=0, select bank0
  5502  1153  00A2               	movwf	___flge@ff1+2
  5503  1154  1683               	bsf	3,5	;RP0=1, select bank1
  5504  1155  1303               	bcf	3,6	;RP1=0, select bank1
  5505  1156  0845               	movf	(floor@x+1)^(0+128),w
  5506  1157  1283               	bcf	3,5	;RP0=0, select bank0
  5507  1158  1303               	bcf	3,6	;RP1=0, select bank0
  5508  1159  00A1               	movwf	___flge@ff1+1
  5509  115A  1683               	bsf	3,5	;RP0=1, select bank1
  5510  115B  1303               	bcf	3,6	;RP1=0, select bank1
  5511  115C  0844               	movf	floor@x^(0+128),w
  5512  115D  1283               	bcf	3,5	;RP0=0, select bank0
  5513  115E  1303               	bcf	3,6	;RP1=0, select bank0
  5514  115F  00A0               	movwf	___flge@ff1
  5515  1160  1683               	bsf	3,5	;RP0=1, select bank1
  5516  1161  1303               	bcf	3,6	;RP1=0, select bank1
  5517  1162  084C               	movf	(floor@i+3)^(0+128),w
  5518  1163  1283               	bcf	3,5	;RP0=0, select bank0
  5519  1164  1303               	bcf	3,6	;RP1=0, select bank0
  5520  1165  00A7               	movwf	___flge@ff2+3
  5521  1166  1683               	bsf	3,5	;RP0=1, select bank1
  5522  1167  1303               	bcf	3,6	;RP1=0, select bank1
  5523  1168  084B               	movf	(floor@i+2)^(0+128),w
  5524  1169  1283               	bcf	3,5	;RP0=0, select bank0
  5525  116A  1303               	bcf	3,6	;RP1=0, select bank0
  5526  116B  00A6               	movwf	___flge@ff2+2
  5527  116C  1683               	bsf	3,5	;RP0=1, select bank1
  5528  116D  1303               	bcf	3,6	;RP1=0, select bank1
  5529  116E  084A               	movf	(floor@i+1)^(0+128),w
  5530  116F  1283               	bcf	3,5	;RP0=0, select bank0
  5531  1170  1303               	bcf	3,6	;RP1=0, select bank0
  5532  1171  00A5               	movwf	___flge@ff2+1
  5533  1172  1683               	bsf	3,5	;RP0=1, select bank1
  5534  1173  1303               	bcf	3,6	;RP1=0, select bank1
  5535  1174  0849               	movf	floor@i^(0+128),w
  5536  1175  1283               	bcf	3,5	;RP0=0, select bank0
  5537  1176  1303               	bcf	3,6	;RP1=0, select bank0
  5538  1177  00A4               	movwf	___flge@ff2
  5539  1178  160A  158A  24F8  160A  118A  	fcall	___flge
  5540  117D  1803               	btfsc	3,0
  5541  117E  2980               	goto	u3751
  5542  117F  2981               	goto	u3750
  5543  1180                     u3751:	
  5544  1180  29C1               	goto	l2731
  5545  1181                     u3750:	
  5546  1181                     l2727:	
  5547  1181  30BF               	movlw	191
  5548  1182  1283               	bcf	3,5	;RP0=0, select bank0
  5549  1183  1303               	bcf	3,6	;RP1=0, select bank0
  5550  1184  00EB               	movwf	___fladd@b+3
  5551  1185  3080               	movlw	128
  5552  1186  00EA               	movwf	___fladd@b+2
  5553  1187  3000               	movlw	0
  5554  1188  00E9               	movwf	___fladd@b+1
  5555  1189  3000               	movlw	0
  5556  118A  00E8               	movwf	___fladd@b
  5557  118B  1683               	bsf	3,5	;RP0=1, select bank1
  5558  118C  1303               	bcf	3,6	;RP1=0, select bank1
  5559  118D  084C               	movf	(floor@i+3)^(0+128),w
  5560  118E  1283               	bcf	3,5	;RP0=0, select bank0
  5561  118F  1303               	bcf	3,6	;RP1=0, select bank0
  5562  1190  00EF               	movwf	___fladd@a+3
  5563  1191  1683               	bsf	3,5	;RP0=1, select bank1
  5564  1192  1303               	bcf	3,6	;RP1=0, select bank1
  5565  1193  084B               	movf	(floor@i+2)^(0+128),w
  5566  1194  1283               	bcf	3,5	;RP0=0, select bank0
  5567  1195  1303               	bcf	3,6	;RP1=0, select bank0
  5568  1196  00EE               	movwf	___fladd@a+2
  5569  1197  1683               	bsf	3,5	;RP0=1, select bank1
  5570  1198  1303               	bcf	3,6	;RP1=0, select bank1
  5571  1199  084A               	movf	(floor@i+1)^(0+128),w
  5572  119A  1283               	bcf	3,5	;RP0=0, select bank0
  5573  119B  1303               	bcf	3,6	;RP1=0, select bank0
  5574  119C  00ED               	movwf	___fladd@a+1
  5575  119D  1683               	bsf	3,5	;RP0=1, select bank1
  5576  119E  1303               	bcf	3,6	;RP1=0, select bank1
  5577  119F  0849               	movf	floor@i^(0+128),w
  5578  11A0  1283               	bcf	3,5	;RP0=0, select bank0
  5579  11A1  1303               	bcf	3,6	;RP1=0, select bank0
  5580  11A2  00EC               	movwf	___fladd@a
  5581  11A3  120A  158A  247C  160A  118A  	fcall	___fladd
  5582  11A8  1283               	bcf	3,5	;RP0=0, select bank0
  5583  11A9  1303               	bcf	3,6	;RP1=0, select bank0
  5584  11AA  086B               	movf	?___fladd+3,w
  5585  11AB  1683               	bsf	3,5	;RP0=1, select bank1
  5586  11AC  1303               	bcf	3,6	;RP1=0, select bank1
  5587  11AD  00C7               	movwf	(?_floor+3)^(0+128)
  5588  11AE  1283               	bcf	3,5	;RP0=0, select bank0
  5589  11AF  1303               	bcf	3,6	;RP1=0, select bank0
  5590  11B0  086A               	movf	?___fladd+2,w
  5591  11B1  1683               	bsf	3,5	;RP0=1, select bank1
  5592  11B2  1303               	bcf	3,6	;RP1=0, select bank1
  5593  11B3  00C6               	movwf	(?_floor+2)^(0+128)
  5594  11B4  1283               	bcf	3,5	;RP0=0, select bank0
  5595  11B5  1303               	bcf	3,6	;RP1=0, select bank0
  5596  11B6  0869               	movf	?___fladd+1,w
  5597  11B7  1683               	bsf	3,5	;RP0=1, select bank1
  5598  11B8  1303               	bcf	3,6	;RP1=0, select bank1
  5599  11B9  00C5               	movwf	(?_floor+1)^(0+128)
  5600  11BA  1283               	bcf	3,5	;RP0=0, select bank0
  5601  11BB  1303               	bcf	3,6	;RP1=0, select bank0
  5602  11BC  0868               	movf	?___fladd,w
  5603  11BD  1683               	bsf	3,5	;RP0=1, select bank1
  5604  11BE  1303               	bcf	3,6	;RP1=0, select bank1
  5605  11BF  00C4               	movwf	?_floor^(0+128)
  5606  11C0  29CB               	goto	l747
  5607  11C1                     l2731:	
  5608  11C1  1683               	bsf	3,5	;RP0=1, select bank1
  5609  11C2  1303               	bcf	3,6	;RP1=0, select bank1
  5610  11C3  084C               	movf	(floor@i+3)^(0+128),w
  5611  11C4  00C7               	movwf	(?_floor+3)^(0+128)
  5612  11C5  084B               	movf	(floor@i+2)^(0+128),w
  5613  11C6  00C6               	movwf	(?_floor+2)^(0+128)
  5614  11C7  084A               	movf	(floor@i+1)^(0+128),w
  5615  11C8  00C5               	movwf	(?_floor+1)^(0+128)
  5616  11C9  0849               	movf	floor@i^(0+128),w
  5617  11CA  00C4               	movwf	?_floor^(0+128)
  5618  11CB                     l747:	
  5619  11CB  0008               	return
  5620  11CC                     __end_of_floor:	
  5621                           
  5622                           	psect	text12
  5623  1B96                     __ptext12:	
  5624 ;; *************** function _frexp *****************
  5625 ;; Defined at:
  5626 ;;		line 254 in file "C:\Program Files (x86)\Microchip\xc8\v2.10\pic\sources\c90\common\frexp.c"
  5627 ;; Parameters:    Size  Location     Type
  5628 ;;  value           4   26[BANK0 ] int 
  5629 ;;  eptr            1   30[BANK0 ] PTR int 
  5630 ;;		 -> log@exponent(2), floor@expon(2), 
  5631 ;; Auto vars:     Size  Location     Type
  5632 ;;		None
  5633 ;; Return value:  Size  Location     Type
  5634 ;;                  4   26[BANK0 ] PTR int 
  5635 ;; Registers used:
  5636 ;;		wreg, fsr0l, fsr0h, status,2, status,0, btemp+1, pclath, cstack
  5637 ;; Tracked objects:
  5638 ;;		On entry : 0/0
  5639 ;;		On exit  : 0/0
  5640 ;;		Unchanged: 0/0
  5641 ;; Data sizes:     COMMON   BANK0   BANK1   BANK3   BANK2
  5642 ;;      Params:         0       5       0       0       0
  5643 ;;      Locals:         0       0       0       0       0
  5644 ;;      Temps:          0       2       0       0       0
  5645 ;;      Totals:         0       7       0       0       0
  5646 ;;Total ram usage:        7 bytes
  5647 ;; Hardware stack levels used:    1
  5648 ;; Hardware stack levels required when called:    3
  5649 ;; This function calls:
  5650 ;;		___fleq
  5651 ;; This function is called by:
  5652 ;;		_floor
  5653 ;;		_log
  5654 ;; This function uses a non-reentrant model
  5655 ;;
  5656                           
  5657                           
  5658                           ;psect for function _frexp
  5659  1B96                     _frexp:	
  5660  1B96                     l2531:	
  5661                           ;incstack = 0
  5662                           ; Regs used in _frexp: [wreg-fsr0h+status,2+status,0+btemp+1+pclath+cstack]
  5663                           
  5664  1B96  1283               	bcf	3,5	;RP0=0, select bank0
  5665  1B97  1303               	bcf	3,6	;RP1=0, select bank0
  5666  1B98  083D               	movf	frexp@value+3,w
  5667  1B99  00B1               	movwf	___fleq@ff1+3
  5668  1B9A  083C               	movf	frexp@value+2,w
  5669  1B9B  00B0               	movwf	___fleq@ff1+2
  5670  1B9C  083B               	movf	frexp@value+1,w
  5671  1B9D  00AF               	movwf	___fleq@ff1+1
  5672  1B9E  083A               	movf	frexp@value,w
  5673  1B9F  00AE               	movwf	___fleq@ff1
  5674  1BA0  3000               	movlw	0
  5675  1BA1  00B5               	movwf	___fleq@ff2+3
  5676  1BA2  3000               	movlw	0
  5677  1BA3  00B4               	movwf	___fleq@ff2+2
  5678  1BA4  3000               	movlw	0
  5679  1BA5  00B3               	movwf	___fleq@ff2+1
  5680  1BA6  3000               	movlw	0
  5681  1BA7  00B2               	movwf	___fleq@ff2
  5682  1BA8  160A  158A  2296  160A  158A  	fcall	___fleq
  5683  1BAD  1C03               	btfss	3,0
  5684  1BAE  2BB0               	goto	u3401
  5685  1BAF  2BB1               	goto	u3400
  5686  1BB0                     u3401:	
  5687  1BB0  2BC2               	goto	l2539
  5688  1BB1                     u3400:	
  5689  1BB1                     l2533:	
  5690  1BB1  1283               	bcf	3,5	;RP0=0, select bank0
  5691  1BB2  1303               	bcf	3,6	;RP1=0, select bank0
  5692  1BB3  083E               	movf	frexp@eptr,w
  5693  1BB4  0084               	movwf	4
  5694  1BB5  1383               	bcf	3,7	;select IRP bank0
  5695  1BB6  0180               	clrf	0
  5696  1BB7  0A84               	incf	4,f
  5697  1BB8  0180               	clrf	0
  5698  1BB9                     l2535:	
  5699  1BB9  3000               	movlw	0
  5700  1BBA  00BD               	movwf	?_frexp+3
  5701  1BBB  3000               	movlw	0
  5702  1BBC  00BC               	movwf	?_frexp+2
  5703  1BBD  3000               	movlw	0
  5704  1BBE  00BB               	movwf	?_frexp+1
  5705  1BBF  3000               	movlw	0
  5706  1BC0  00BA               	movwf	?_frexp
  5707  1BC1  2BF1               	goto	l755
  5708  1BC2                     l2539:	
  5709  1BC2  1283               	bcf	3,5	;RP0=0, select bank0
  5710  1BC3  1303               	bcf	3,6	;RP1=0, select bank0
  5711  1BC4  083D               	movf	frexp@value+3,w
  5712  1BC5  397F               	andlw	127
  5713  1BC6  00BF               	movwf	??_frexp
  5714  1BC7  01C0               	clrf	??_frexp+1
  5715  1BC8  1003               	clrc
  5716  1BC9  0DBF               	rlf	??_frexp,f
  5717  1BCA  0DC0               	rlf	??_frexp+1,f
  5718  1BCB  083E               	movf	frexp@eptr,w
  5719  1BCC  0084               	movwf	4
  5720  1BCD  083F               	movf	??_frexp,w
  5721  1BCE  1383               	bcf	3,7	;select IRP bank0
  5722  1BCF  0080               	movwf	0
  5723  1BD0  0A84               	incf	4,f
  5724  1BD1  0840               	movf	??_frexp+1,w
  5725  1BD2  0080               	movwf	0
  5726  1BD3  0D3C               	rlf	frexp@value+2,w
  5727  1BD4  0D3C               	rlf	frexp@value+2,w
  5728  1BD5  3901               	andlw	1
  5729  1BD6  00BF               	movwf	??_frexp
  5730  1BD7  01C0               	clrf	??_frexp+1
  5731  1BD8  083E               	movf	frexp@eptr,w
  5732  1BD9  0084               	movwf	4
  5733  1BDA  083F               	movf	??_frexp,w
  5734  1BDB  0480               	iorwf	0,f
  5735  1BDC  0A84               	incf	4,f
  5736  1BDD  0840               	movf	??_frexp+1,w
  5737  1BDE  0480               	iorwf	0,f
  5738  1BDF                     l2541:	
  5739  1BDF  083E               	movf	frexp@eptr,w
  5740  1BE0  0084               	movwf	4
  5741  1BE1  3082               	movlw	130
  5742  1BE2  0780               	addwf	0,f
  5743  1BE3  0F84               	incfsz	4,f
  5744  1BE4  0800               	movf	0,w
  5745  1BE5  1803               	skipnc
  5746  1BE6  0A00               	incf	0,w
  5747  1BE7  00FF               	movwf	btemp+1
  5748  1BE8  30FF               	movlw	255
  5749  1BE9  077F               	addwf	btemp+1,w
  5750  1BEA  0080               	movwf	0
  5751  1BEB  0384               	decf	4,f
  5752  1BEC                     l2543:	
  5753  1BEC  083D               	movf	frexp@value+3,w
  5754  1BED  3980               	andlw	-128
  5755  1BEE  383F               	iorlw	63
  5756  1BEF  00BD               	movwf	frexp@value+3
  5757  1BF0                     l2545:	
  5758  1BF0  13BC               	bcf	frexp@value+2,7
  5759  1BF1                     l2547:	
  5760  1BF1                     l755:	
  5761  1BF1  0008               	return
  5762  1BF2                     __end_of_frexp:	
  5763                           
  5764                           	psect	text13
  5765  1A96                     __ptext13:	
  5766 ;; *************** function ___fleq *****************
  5767 ;; Defined at:
  5768 ;;		line 4 in file "C:\Program Files (x86)\Microchip\xc8\v2.10\pic\sources\c90\common\fleq.c"
  5769 ;; Parameters:    Size  Location     Type
  5770 ;;  ff1             4   14[BANK0 ] PTR int 
  5771 ;;  ff2             4   18[BANK0 ] PTR int 
  5772 ;; Auto vars:     Size  Location     Type
  5773 ;;		None
  5774 ;; Return value:  Size  Location     Type
  5775 ;;		None               void
  5776 ;; Registers used:
  5777 ;;		wreg, status,2, status,0
  5778 ;; Tracked objects:
  5779 ;;		On entry : 0/0
  5780 ;;		On exit  : 0/0
  5781 ;;		Unchanged: 0/0
  5782 ;; Data sizes:     COMMON   BANK0   BANK1   BANK3   BANK2
  5783 ;;      Params:         0       8       0       0       0
  5784 ;;      Locals:         0       0       0       0       0
  5785 ;;      Temps:          0       4       0       0       0
  5786 ;;      Totals:         0      12       0       0       0
  5787 ;;Total ram usage:       12 bytes
  5788 ;; Hardware stack levels used:    1
  5789 ;; Hardware stack levels required when called:    2
  5790 ;; This function calls:
  5791 ;;		Nothing
  5792 ;; This function is called by:
  5793 ;;		_pow
  5794 ;;		_exp
  5795 ;;		_frexp
  5796 ;;		_ldexp
  5797 ;;		_log
  5798 ;; This function uses a non-reentrant model
  5799 ;;
  5800                           
  5801                           
  5802                           ;psect for function ___fleq
  5803  1A96                     ___fleq:	
  5804  1A96                     l2071:	
  5805                           ;incstack = 0
  5806                           ; Regs used in ___fleq: [wreg+status,2+status,0]
  5807                           
  5808  1A96  3000               	movlw	0
  5809  1A97  1283               	bcf	3,5	;RP0=0, select bank0
  5810  1A98  1303               	bcf	3,6	;RP1=0, select bank0
  5811  1A99  052E               	andwf	___fleq@ff1,w
  5812  1A9A  00B6               	movwf	??___fleq
  5813  1A9B  3000               	movlw	0
  5814  1A9C  052F               	andwf	___fleq@ff1+1,w
  5815  1A9D  00B7               	movwf	??___fleq+1
  5816  1A9E  3080               	movlw	128
  5817  1A9F  0530               	andwf	___fleq@ff1+2,w
  5818  1AA0  00B8               	movwf	??___fleq+2
  5819  1AA1  307F               	movlw	127
  5820  1AA2  0531               	andwf	___fleq@ff1+3,w
  5821  1AA3  00B9               	movwf	??___fleq+3
  5822  1AA4  0839               	movf	??___fleq+3,w
  5823  1AA5  0438               	iorwf	??___fleq+2,w
  5824  1AA6  0437               	iorwf	??___fleq+1,w
  5825  1AA7  0436               	iorwf	??___fleq,w
  5826  1AA8  1D03               	skipz
  5827  1AA9  2AAB               	goto	u2201
  5828  1AAA  2AAC               	goto	u2200
  5829  1AAB                     u2201:	
  5830  1AAB  2AB4               	goto	l425
  5831  1AAC                     u2200:	
  5832  1AAC                     l2073:	
  5833  1AAC  3000               	movlw	0
  5834  1AAD  00B1               	movwf	___fleq@ff1+3
  5835  1AAE  3000               	movlw	0
  5836  1AAF  00B0               	movwf	___fleq@ff1+2
  5837  1AB0  3000               	movlw	0
  5838  1AB1  00AF               	movwf	___fleq@ff1+1
  5839  1AB2  3000               	movlw	0
  5840  1AB3  00AE               	movwf	___fleq@ff1
  5841  1AB4                     l425:	
  5842  1AB4  3000               	movlw	0
  5843  1AB5  0532               	andwf	___fleq@ff2,w
  5844  1AB6  00B6               	movwf	??___fleq
  5845  1AB7  3000               	movlw	0
  5846  1AB8  0533               	andwf	___fleq@ff2+1,w
  5847  1AB9  00B7               	movwf	??___fleq+1
  5848  1ABA  3080               	movlw	128
  5849  1ABB  0534               	andwf	___fleq@ff2+2,w
  5850  1ABC  00B8               	movwf	??___fleq+2
  5851  1ABD  307F               	movlw	127
  5852  1ABE  0535               	andwf	___fleq@ff2+3,w
  5853  1ABF  00B9               	movwf	??___fleq+3
  5854  1AC0  0839               	movf	??___fleq+3,w
  5855  1AC1  0438               	iorwf	??___fleq+2,w
  5856  1AC2  0437               	iorwf	??___fleq+1,w
  5857  1AC3  0436               	iorwf	??___fleq,w
  5858  1AC4  1D03               	skipz
  5859  1AC5  2AC7               	goto	u2211
  5860  1AC6  2AC8               	goto	u2210
  5861  1AC7                     u2211:	
  5862  1AC7  2AD0               	goto	l426
  5863  1AC8                     u2210:	
  5864  1AC8                     l2075:	
  5865  1AC8  3000               	movlw	0
  5866  1AC9  00B5               	movwf	___fleq@ff2+3
  5867  1ACA  3000               	movlw	0
  5868  1ACB  00B4               	movwf	___fleq@ff2+2
  5869  1ACC  3000               	movlw	0
  5870  1ACD  00B3               	movwf	___fleq@ff2+1
  5871  1ACE  3000               	movlw	0
  5872  1ACF  00B2               	movwf	___fleq@ff2
  5873  1AD0                     l426:	
  5874  1AD0  0835               	movf	___fleq@ff2+3,w
  5875  1AD1  0631               	xorwf	___fleq@ff1+3,w
  5876  1AD2  1D03               	skipz
  5877  1AD3  2ADE               	goto	u2225
  5878  1AD4  0834               	movf	___fleq@ff2+2,w
  5879  1AD5  0630               	xorwf	___fleq@ff1+2,w
  5880  1AD6  1D03               	skipz
  5881  1AD7  2ADE               	goto	u2225
  5882  1AD8  0833               	movf	___fleq@ff2+1,w
  5883  1AD9  062F               	xorwf	___fleq@ff1+1,w
  5884  1ADA  1D03               	skipz
  5885  1ADB  2ADE               	goto	u2225
  5886  1ADC  0832               	movf	___fleq@ff2,w
  5887  1ADD  062E               	xorwf	___fleq@ff1,w
  5888  1ADE                     u2225:	
  5889  1ADE  1903               	skipnz
  5890  1ADF  2AE1               	goto	u2221
  5891  1AE0  2AE2               	goto	u2220
  5892  1AE1                     u2221:	
  5893  1AE1  2AE4               	goto	l2079
  5894  1AE2                     u2220:	
  5895  1AE2                     l2077:	
  5896  1AE2  1003               	clrc
  5897  1AE3  2AE5               	goto	l427
  5898  1AE4                     l2079:	
  5899  1AE4  1403               	setc
  5900  1AE5                     l427:	
  5901  1AE5  0008               	return
  5902  1AE6                     __end_of___fleq:	
  5903                           
  5904                           	psect	text14
  5905  1D9C                     __ptext14:	
  5906 ;; *************** function ___xxtofl *****************
  5907 ;; Defined at:
  5908 ;;		line 10 in file "C:\Program Files (x86)\Microchip\xc8\v2.10\pic\sources\c90\common\xxtofl.c"
  5909 ;; Parameters:    Size  Location     Type
  5910 ;;  sign            1    wreg     unsigned char 
  5911 ;;  val             4    0[BANK0 ] long 
  5912 ;; Auto vars:     Size  Location     Type
  5913 ;;  sign            1    8[BANK0 ] unsigned char 
  5914 ;;  arg             4   10[BANK0 ] unsigned long 
  5915 ;;  exp             1    9[BANK0 ] unsigned char 
  5916 ;; Return value:  Size  Location     Type
  5917 ;;                  4    0[BANK0 ] unsigned char 
  5918 ;; Registers used:
  5919 ;;		wreg, status,2, status,0
  5920 ;; Tracked objects:
  5921 ;;		On entry : 0/0
  5922 ;;		On exit  : 0/0
  5923 ;;		Unchanged: 0/0
  5924 ;; Data sizes:     COMMON   BANK0   BANK1   BANK3   BANK2
  5925 ;;      Params:         0       4       0       0       0
  5926 ;;      Locals:         0       6       0       0       0
  5927 ;;      Temps:          0       4       0       0       0
  5928 ;;      Totals:         0      14       0       0       0
  5929 ;;Total ram usage:       14 bytes
  5930 ;; Hardware stack levels used:    1
  5931 ;; Hardware stack levels required when called:    2
  5932 ;; This function calls:
  5933 ;;		Nothing
  5934 ;; This function is called by:
  5935 ;;		_main
  5936 ;;		_ftoa
  5937 ;;		_pow
  5938 ;;		_exp
  5939 ;;		_floor
  5940 ;;		_log
  5941 ;; This function uses a non-reentrant model
  5942 ;;
  5943                           
  5944                           
  5945                           ;psect for function ___xxtofl
  5946  1D9C                     ___xxtofl:	
  5947                           
  5948                           ;incstack = 0
  5949                           ; Regs used in ___xxtofl: [wreg+status,2+status,0]
  5950                           ;___xxtofl@sign stored from wreg
  5951  1D9C  1283               	bcf	3,5	;RP0=0, select bank0
  5952  1D9D  1303               	bcf	3,6	;RP1=0, select bank0
  5953  1D9E  00A8               	movwf	___xxtofl@sign
  5954  1D9F                     l2487:	
  5955  1D9F  0828               	movf	___xxtofl@sign,w
  5956  1DA0  1903               	btfsc	3,2
  5957  1DA1  2DA3               	goto	u3261
  5958  1DA2  2DA4               	goto	u3260
  5959  1DA3                     u3261:	
  5960  1DA3  2DB8               	goto	l2493
  5961  1DA4                     u3260:	
  5962  1DA4                     l2489:	
  5963  1DA4  1FA3               	btfss	___xxtofl@val+3,7
  5964  1DA5  2DA7               	goto	u3271
  5965  1DA6  2DA8               	goto	u3270
  5966  1DA7                     u3271:	
  5967  1DA7  2DB8               	goto	l2493
  5968  1DA8                     u3270:	
  5969  1DA8                     l2491:	
  5970  1DA8  0920               	comf	___xxtofl@val,w
  5971  1DA9  00AA               	movwf	___xxtofl@arg
  5972  1DAA  0921               	comf	___xxtofl@val+1,w
  5973  1DAB  00AB               	movwf	___xxtofl@arg+1
  5974  1DAC  0922               	comf	___xxtofl@val+2,w
  5975  1DAD  00AC               	movwf	___xxtofl@arg+2
  5976  1DAE  0923               	comf	___xxtofl@val+3,w
  5977  1DAF  00AD               	movwf	___xxtofl@arg+3
  5978  1DB0  0AAA               	incf	___xxtofl@arg,f
  5979  1DB1  1903               	skipnz
  5980  1DB2  0AAB               	incf	___xxtofl@arg+1,f
  5981  1DB3  1903               	skipnz
  5982  1DB4  0AAC               	incf	___xxtofl@arg+2,f
  5983  1DB5  1903               	skipnz
  5984  1DB6  0AAD               	incf	___xxtofl@arg+3,f
  5985  1DB7  2DC0               	goto	l683
  5986  1DB8                     l2493:	
  5987  1DB8  0823               	movf	___xxtofl@val+3,w
  5988  1DB9  00AD               	movwf	___xxtofl@arg+3
  5989  1DBA  0822               	movf	___xxtofl@val+2,w
  5990  1DBB  00AC               	movwf	___xxtofl@arg+2
  5991  1DBC  0821               	movf	___xxtofl@val+1,w
  5992  1DBD  00AB               	movwf	___xxtofl@arg+1
  5993  1DBE  0820               	movf	___xxtofl@val,w
  5994  1DBF  00AA               	movwf	___xxtofl@arg
  5995  1DC0                     l683:	
  5996  1DC0  0823               	movf	___xxtofl@val+3,w
  5997  1DC1  0422               	iorwf	___xxtofl@val+2,w
  5998  1DC2  0421               	iorwf	___xxtofl@val+1,w
  5999  1DC3  0420               	iorwf	___xxtofl@val,w
  6000  1DC4  1D03               	skipz
  6001  1DC5  2DC7               	goto	u3281
  6002  1DC6  2DC8               	goto	u3280
  6003  1DC7                     u3281:	
  6004  1DC7  2DD1               	goto	l2499
  6005  1DC8                     u3280:	
  6006  1DC8                     l2495:	
  6007  1DC8  3000               	movlw	0
  6008  1DC9  00A3               	movwf	?___xxtofl+3
  6009  1DCA  3000               	movlw	0
  6010  1DCB  00A2               	movwf	?___xxtofl+2
  6011  1DCC  3000               	movlw	0
  6012  1DCD  00A1               	movwf	?___xxtofl+1
  6013  1DCE  3000               	movlw	0
  6014  1DCF  00A0               	movwf	?___xxtofl
  6015  1DD0  2E57               	goto	l685
  6016  1DD1                     l2499:	
  6017  1DD1  3096               	movlw	150
  6018  1DD2  00A4               	movwf	??___xxtofl
  6019  1DD3  0824               	movf	??___xxtofl,w
  6020  1DD4  00A9               	movwf	___xxtofl@exp
  6021  1DD5  2DE3               	goto	l2503
  6022  1DD6                     l2501:	
  6023  1DD6  3001               	movlw	1
  6024  1DD7  00A4               	movwf	??___xxtofl
  6025  1DD8  0824               	movf	??___xxtofl,w
  6026  1DD9  07A9               	addwf	___xxtofl@exp,f
  6027  1DDA  3001               	movlw	1
  6028  1DDB                     u3295:	
  6029  1DDB  1003               	clrc
  6030  1DDC  0CAD               	rrf	___xxtofl@arg+3,f
  6031  1DDD  0CAC               	rrf	___xxtofl@arg+2,f
  6032  1DDE  0CAB               	rrf	___xxtofl@arg+1,f
  6033  1DDF  0CAA               	rrf	___xxtofl@arg,f
  6034  1DE0  3EFF               	addlw	-1
  6035  1DE1  1D03               	skipz
  6036  1DE2  2DDB               	goto	u3295
  6037  1DE3                     l2503:	
  6038  1DE3  30FE               	movlw	254
  6039  1DE4  052D               	andwf	___xxtofl@arg+3,w
  6040  1DE5  1D03               	btfss	3,2
  6041  1DE6  2DE8               	goto	u3301
  6042  1DE7  2DE9               	goto	u3300
  6043  1DE8                     u3301:	
  6044  1DE8  2DD6               	goto	l2501
  6045  1DE9                     u3300:	
  6046  1DE9  2E05               	goto	l689
  6047  1DEA                     l2505:	
  6048  1DEA  3001               	movlw	1
  6049  1DEB  00A4               	movwf	??___xxtofl
  6050  1DEC  0824               	movf	??___xxtofl,w
  6051  1DED  07A9               	addwf	___xxtofl@exp,f
  6052  1DEE                     l2507:	
  6053  1DEE  3001               	movlw	1
  6054  1DEF  07AA               	addwf	___xxtofl@arg,f
  6055  1DF0  3000               	movlw	0
  6056  1DF1  1803               	skipnc
  6057  1DF2  3001               	movlw	1
  6058  1DF3  07AB               	addwf	___xxtofl@arg+1,f
  6059  1DF4  3000               	movlw	0
  6060  1DF5  1803               	skipnc
  6061  1DF6  3001               	movlw	1
  6062  1DF7  07AC               	addwf	___xxtofl@arg+2,f
  6063  1DF8  3000               	movlw	0
  6064  1DF9  1803               	skipnc
  6065  1DFA  3001               	movlw	1
  6066  1DFB  07AD               	addwf	___xxtofl@arg+3,f
  6067  1DFC                     l2509:	
  6068  1DFC  3001               	movlw	1
  6069  1DFD                     u3315:	
  6070  1DFD  1003               	clrc
  6071  1DFE  0CAD               	rrf	___xxtofl@arg+3,f
  6072  1DFF  0CAC               	rrf	___xxtofl@arg+2,f
  6073  1E00  0CAB               	rrf	___xxtofl@arg+1,f
  6074  1E01  0CAA               	rrf	___xxtofl@arg,f
  6075  1E02  3EFF               	addlw	-1
  6076  1E03  1D03               	skipz
  6077  1E04  2DFD               	goto	u3315
  6078  1E05                     l689:	
  6079  1E05  30FF               	movlw	255
  6080  1E06  052D               	andwf	___xxtofl@arg+3,w
  6081  1E07  1D03               	btfss	3,2
  6082  1E08  2E0A               	goto	u3321
  6083  1E09  2E0B               	goto	u3320
  6084  1E0A                     u3321:	
  6085  1E0A  2DEA               	goto	l2505
  6086  1E0B                     u3320:	
  6087  1E0B  2E17               	goto	l2513
  6088  1E0C                     l2511:	
  6089  1E0C  3001               	movlw	1
  6090  1E0D  02A9               	subwf	___xxtofl@exp,f
  6091  1E0E  3001               	movlw	1
  6092  1E0F  00A4               	movwf	??___xxtofl
  6093  1E10                     u3335:	
  6094  1E10  1003               	clrc
  6095  1E11  0DAA               	rlf	___xxtofl@arg,f
  6096  1E12  0DAB               	rlf	___xxtofl@arg+1,f
  6097  1E13  0DAC               	rlf	___xxtofl@arg+2,f
  6098  1E14  0DAD               	rlf	___xxtofl@arg+3,f
  6099  1E15  0BA4               	decfsz	??___xxtofl,f
  6100  1E16  2E10               	goto	u3335
  6101  1E17                     l2513:	
  6102  1E17  1BAC               	btfsc	___xxtofl@arg+2,7
  6103  1E18  2E1A               	goto	u3341
  6104  1E19  2E1B               	goto	u3340
  6105  1E1A                     u3341:	
  6106  1E1A  2E21               	goto	l696
  6107  1E1B                     u3340:	
  6108  1E1B                     l2515:	
  6109  1E1B  3002               	movlw	2
  6110  1E1C  0229               	subwf	___xxtofl@exp,w
  6111  1E1D  1803               	skipnc
  6112  1E1E  2E20               	goto	u3351
  6113  1E1F  2E21               	goto	u3350
  6114  1E20                     u3351:	
  6115  1E20  2E0C               	goto	l2511
  6116  1E21                     u3350:	
  6117  1E21                     l696:	
  6118  1E21  1829               	btfsc	___xxtofl@exp,0
  6119  1E22  2E24               	goto	u3361
  6120  1E23  2E25               	goto	u3360
  6121  1E24                     u3361:	
  6122  1E24  2E2D               	goto	l697
  6123  1E25                     u3360:	
  6124  1E25                     l2517:	
  6125  1E25  30FF               	movlw	255
  6126  1E26  05AA               	andwf	___xxtofl@arg,f
  6127  1E27  30FF               	movlw	255
  6128  1E28  05AB               	andwf	___xxtofl@arg+1,f
  6129  1E29  307F               	movlw	127
  6130  1E2A  05AC               	andwf	___xxtofl@arg+2,f
  6131  1E2B  30FF               	movlw	255
  6132  1E2C  05AD               	andwf	___xxtofl@arg+3,f
  6133  1E2D                     l697:	
  6134  1E2D  1003               	clrc
  6135  1E2E  0CA9               	rrf	___xxtofl@exp,f
  6136  1E2F                     l2519:	
  6137  1E2F  0829               	movf	___xxtofl@exp,w
  6138  1E30  00A4               	movwf	??___xxtofl
  6139  1E31  01A5               	clrf	??___xxtofl+1
  6140  1E32  01A6               	clrf	??___xxtofl+2
  6141  1E33  01A7               	clrf	??___xxtofl+3
  6142  1E34  3018               	movlw	24
  6143  1E35                     u3375:	
  6144  1E35  1003               	clrc
  6145  1E36  0DA4               	rlf	??___xxtofl,f
  6146  1E37  0DA5               	rlf	??___xxtofl+1,f
  6147  1E38  0DA6               	rlf	??___xxtofl+2,f
  6148  1E39  0DA7               	rlf	??___xxtofl+3,f
  6149  1E3A                     u3370:	
  6150  1E3A  3EFF               	addlw	-1
  6151  1E3B  1D03               	skipz
  6152  1E3C  2E35               	goto	u3375
  6153  1E3D  0824               	movf	??___xxtofl,w
  6154  1E3E  04AA               	iorwf	___xxtofl@arg,f
  6155  1E3F  0825               	movf	??___xxtofl+1,w
  6156  1E40  04AB               	iorwf	___xxtofl@arg+1,f
  6157  1E41  0826               	movf	??___xxtofl+2,w
  6158  1E42  04AC               	iorwf	___xxtofl@arg+2,f
  6159  1E43  0827               	movf	??___xxtofl+3,w
  6160  1E44  04AD               	iorwf	___xxtofl@arg+3,f
  6161  1E45                     l2521:	
  6162  1E45  0828               	movf	___xxtofl@sign,w
  6163  1E46  1903               	btfsc	3,2
  6164  1E47  2E49               	goto	u3381
  6165  1E48  2E4A               	goto	u3380
  6166  1E49                     u3381:	
  6167  1E49  2E4F               	goto	l2527
  6168  1E4A                     u3380:	
  6169  1E4A                     l2523:	
  6170  1E4A  1FA3               	btfss	___xxtofl@val+3,7
  6171  1E4B  2E4D               	goto	u3391
  6172  1E4C  2E4E               	goto	u3390
  6173  1E4D                     u3391:	
  6174  1E4D  2E4F               	goto	l2527
  6175  1E4E                     u3390:	
  6176  1E4E                     l2525:	
  6177  1E4E  17AD               	bsf	___xxtofl@arg+3,7
  6178  1E4F                     l2527:	
  6179  1E4F  082D               	movf	___xxtofl@arg+3,w
  6180  1E50  00A3               	movwf	?___xxtofl+3
  6181  1E51  082C               	movf	___xxtofl@arg+2,w
  6182  1E52  00A2               	movwf	?___xxtofl+2
  6183  1E53  082B               	movf	___xxtofl@arg+1,w
  6184  1E54  00A1               	movwf	?___xxtofl+1
  6185  1E55  082A               	movf	___xxtofl@arg,w
  6186  1E56  00A0               	movwf	?___xxtofl
  6187  1E57                     l685:	
  6188  1E57  0008               	return
  6189  1E58                     __end_of___xxtofl:	
  6190                           
  6191                           	psect	text15
  6192  1019                     __ptext15:	
  6193 ;; *************** function ___fltol *****************
  6194 ;; Defined at:
  6195 ;;		line 43 in file "C:\Program Files (x86)\Microchip\xc8\v2.10\pic\sources\c90\common\fltol.c"
  6196 ;; Parameters:    Size  Location     Type
  6197 ;;  f1              4   25[BANK1 ] unsigned char 
  6198 ;; Auto vars:     Size  Location     Type
  6199 ;;  exp1            1   35[BANK1 ] unsigned char 
  6200 ;;  sign1           1   34[BANK1 ] unsigned char 
  6201 ;; Return value:  Size  Location     Type
  6202 ;;                  4   25[BANK1 ] long 
  6203 ;; Registers used:
  6204 ;;		wreg, status,2, status,0
  6205 ;; Tracked objects:
  6206 ;;		On entry : 0/0
  6207 ;;		On exit  : 0/0
  6208 ;;		Unchanged: 0/0
  6209 ;; Data sizes:     COMMON   BANK0   BANK1   BANK3   BANK2
  6210 ;;      Params:         0       0       4       0       0
  6211 ;;      Locals:         0       0       2       0       0
  6212 ;;      Temps:          0       0       5       0       0
  6213 ;;      Totals:         0       0      11       0       0
  6214 ;;Total ram usage:       11 bytes
  6215 ;; Hardware stack levels used:    1
  6216 ;; Hardware stack levels required when called:    2
  6217 ;; This function calls:
  6218 ;;		Nothing
  6219 ;; This function is called by:
  6220 ;;		_main
  6221 ;;		_ftoa
  6222 ;;		_pow
  6223 ;;		_exp
  6224 ;;		_floor
  6225 ;; This function uses a non-reentrant model
  6226 ;;
  6227                           
  6228                           
  6229                           ;psect for function ___fltol
  6230  1019                     ___fltol:	
  6231  1019                     l2117:	
  6232                           ;incstack = 0
  6233                           ; Regs used in ___fltol: [wreg+status,2+status,0]
  6234                           
  6235  1019  1003               	clrc
  6236  101A  1683               	bsf	3,5	;RP0=1, select bank1
  6237  101B  1303               	bcf	3,6	;RP1=0, select bank1
  6238  101C  0D3B               	rlf	(___fltol@f1+2)^(0+128),w
  6239  101D  0D3C               	rlf	(___fltol@f1+3)^(0+128),w
  6240  101E  00BD               	movwf	??___fltol^(0+128)
  6241  101F  083D               	movf	??___fltol^(0+128),w
  6242  1020  00C3               	movwf	___fltol@exp1^(0+128)
  6243  1021  0843               	movf	___fltol@exp1^(0+128),w
  6244  1022  1D03               	btfss	3,2
  6245  1023  2825               	goto	u2331
  6246  1024  2826               	goto	u2330
  6247  1025                     u2331:	
  6248  1025  282F               	goto	l2123
  6249  1026                     u2330:	
  6250  1026                     l2119:	
  6251  1026  3000               	movlw	0
  6252  1027  00BC               	movwf	(?___fltol+3)^(0+128)
  6253  1028  3000               	movlw	0
  6254  1029  00BB               	movwf	(?___fltol+2)^(0+128)
  6255  102A  3000               	movlw	0
  6256  102B  00BA               	movwf	(?___fltol+1)^(0+128)
  6257  102C  3000               	movlw	0
  6258  102D  00B9               	movwf	?___fltol^(0+128)
  6259  102E  2894               	goto	l442
  6260  102F                     l2123:	
  6261  102F  0839               	movf	___fltol@f1^(0+128),w
  6262  1030  00BD               	movwf	??___fltol^(0+128)
  6263  1031  083A               	movf	(___fltol@f1+1)^(0+128),w
  6264  1032  00BE               	movwf	(??___fltol^(0+128)+1)
  6265  1033  083B               	movf	(___fltol@f1+2)^(0+128),w
  6266  1034  00BF               	movwf	(??___fltol^(0+128)+2)
  6267  1035  083C               	movf	(___fltol@f1+3)^(0+128),w
  6268  1036  00C0               	movwf	(??___fltol^(0+128)+3)
  6269  1037  301F               	movlw	31
  6270  1038                     u2345:	
  6271  1038  1003               	clrc
  6272  1039  0CC0               	rrf	(??___fltol^(0+128)+3),f
  6273  103A  0CBF               	rrf	(??___fltol^(0+128)+2),f
  6274  103B  0CBE               	rrf	(??___fltol^(0+128)+1),f
  6275  103C  0CBD               	rrf	??___fltol^(0+128),f
  6276  103D                     u2340:	
  6277  103D  3EFF               	addlw	-1
  6278  103E  1D03               	skipz
  6279  103F  2838               	goto	u2345
  6280  1040  083D               	movf	??___fltol^(0+128),w
  6281  1041  00C1               	movwf	(??___fltol+4)^(0+128)
  6282  1042  0841               	movf	(??___fltol+4)^(0+128),w
  6283  1043  00C2               	movwf	___fltol@sign1^(0+128)
  6284  1044                     l2125:	
  6285  1044  17BB               	bsf	(___fltol@f1^(0+128)+2),7
  6286  1045                     l2127:	
  6287  1045  30FF               	movlw	255
  6288  1046  05B9               	andwf	___fltol@f1^(0+128),f
  6289  1047  30FF               	movlw	255
  6290  1048  05BA               	andwf	(___fltol@f1+1)^(0+128),f
  6291  1049  30FF               	movlw	255
  6292  104A  05BB               	andwf	(___fltol@f1+2)^(0+128),f
  6293  104B  3000               	movlw	0
  6294  104C  05BC               	andwf	(___fltol@f1+3)^(0+128),f
  6295  104D                     l2129:	
  6296  104D  3096               	movlw	150
  6297  104E  02C3               	subwf	___fltol@exp1^(0+128),f
  6298  104F                     l2131:	
  6299  104F  1FC3               	btfss	___fltol@exp1^(0+128),7
  6300  1050  2852               	goto	u2351
  6301  1051  2853               	goto	u2350
  6302  1052                     u2351:	
  6303  1052  286D               	goto	l2141
  6304  1053                     u2350:	
  6305  1053                     l2133:	
  6306  1053  0843               	movf	___fltol@exp1^(0+128),w
  6307  1054  3A80               	xorlw	128
  6308  1055  3E97               	addlw	151
  6309  1056  1803               	skipnc
  6310  1057  2859               	goto	u2361
  6311  1058  285A               	goto	u2360
  6312  1059                     u2361:	
  6313  1059  285B               	goto	l2139
  6314  105A                     u2360:	
  6315  105A  2826               	goto	l2119
  6316  105B                     l2139:	
  6317  105B  3001               	movlw	1
  6318  105C                     u2375:	
  6319  105C  1003               	clrc
  6320  105D  0CBC               	rrf	(___fltol@f1+3)^(0+128),f
  6321  105E  0CBB               	rrf	(___fltol@f1+2)^(0+128),f
  6322  105F  0CBA               	rrf	(___fltol@f1+1)^(0+128),f
  6323  1060  0CB9               	rrf	___fltol@f1^(0+128),f
  6324  1061  3EFF               	addlw	-1
  6325  1062  1D03               	skipz
  6326  1063  285C               	goto	u2375
  6327  1064  3001               	movlw	1
  6328  1065  00BD               	movwf	??___fltol^(0+128)
  6329  1066  083D               	movf	??___fltol^(0+128),w
  6330  1067  07C3               	addwf	___fltol@exp1^(0+128),f
  6331  1068  1D03               	btfss	3,2
  6332  1069  286B               	goto	u2381
  6333  106A  286C               	goto	u2380
  6334  106B                     u2381:	
  6335  106B  285B               	goto	l2139
  6336  106C                     u2380:	
  6337  106C  2884               	goto	l2149
  6338  106D                     l2141:	
  6339  106D  3020               	movlw	32
  6340  106E  0243               	subwf	___fltol@exp1^(0+128),w
  6341  106F  1C03               	skipc
  6342  1070  2872               	goto	u2391
  6343  1071  2873               	goto	u2390
  6344  1072                     u2391:	
  6345  1072  287F               	goto	l449
  6346  1073                     u2390:	
  6347  1073  2826               	goto	l2119
  6348  1074                     l2147:	
  6349  1074  3001               	movlw	1
  6350  1075  00BD               	movwf	??___fltol^(0+128)
  6351  1076                     u2405:	
  6352  1076  1003               	clrc
  6353  1077  0DB9               	rlf	___fltol@f1^(0+128),f
  6354  1078  0DBA               	rlf	(___fltol@f1+1)^(0+128),f
  6355  1079  0DBB               	rlf	(___fltol@f1+2)^(0+128),f
  6356  107A  0DBC               	rlf	(___fltol@f1+3)^(0+128),f
  6357  107B  0BBD               	decfsz	??___fltol^(0+128),f
  6358  107C  2876               	goto	u2405
  6359  107D  3001               	movlw	1
  6360  107E  02C3               	subwf	___fltol@exp1^(0+128),f
  6361  107F                     l449:	
  6362  107F  0843               	movf	___fltol@exp1^(0+128),w
  6363  1080  1D03               	btfss	3,2
  6364  1081  2883               	goto	u2411
  6365  1082  2884               	goto	u2410
  6366  1083                     u2411:	
  6367  1083  2874               	goto	l2147
  6368  1084                     u2410:	
  6369  1084                     l2149:	
  6370  1084  0842               	movf	___fltol@sign1^(0+128),w
  6371  1085  1903               	btfsc	3,2
  6372  1086  2888               	goto	u2421
  6373  1087  2889               	goto	u2420
  6374  1088                     u2421:	
  6375  1088  2894               	goto	l452
  6376  1089                     u2420:	
  6377  1089                     l2151:	
  6378  1089  09B9               	comf	___fltol@f1^(0+128),f
  6379  108A  09BA               	comf	(___fltol@f1+1)^(0+128),f
  6380  108B  09BB               	comf	(___fltol@f1+2)^(0+128),f
  6381  108C  09BC               	comf	(___fltol@f1+3)^(0+128),f
  6382  108D  0AB9               	incf	___fltol@f1^(0+128),f
  6383  108E  1903               	skipnz
  6384  108F  0ABA               	incf	(___fltol@f1+1)^(0+128),f
  6385  1090  1903               	skipnz
  6386  1091  0ABB               	incf	(___fltol@f1+2)^(0+128),f
  6387  1092  1903               	skipnz
  6388  1093  0ABC               	incf	(___fltol@f1+3)^(0+128),f
  6389  1094                     l452:	
  6390  1094                     l442:	
  6391  1094  0008               	return
  6392  1095                     __end_of___fltol:	
  6393                           
  6394                           	psect	text16
  6395  1CF8                     __ptext16:	
  6396 ;; *************** function ___flge *****************
  6397 ;; Defined at:
  6398 ;;		line 4 in file "C:\Program Files (x86)\Microchip\xc8\v2.10\pic\sources\c90\common\flge.c"
  6399 ;; Parameters:    Size  Location     Type
  6400 ;;  ff1             4    0[BANK0 ] long 
  6401 ;;  ff2             4    4[BANK0 ] long 
  6402 ;; Auto vars:     Size  Location     Type
  6403 ;;		None
  6404 ;; Return value:  Size  Location     Type
  6405 ;;		None               void
  6406 ;; Registers used:
  6407 ;;		wreg, status,2, status,0
  6408 ;; Tracked objects:
  6409 ;;		On entry : 0/0
  6410 ;;		On exit  : 0/0
  6411 ;;		Unchanged: 0/0
  6412 ;; Data sizes:     COMMON   BANK0   BANK1   BANK3   BANK2
  6413 ;;      Params:         0       8       0       0       0
  6414 ;;      Locals:         0       0       0       0       0
  6415 ;;      Temps:          0       4       0       0       0
  6416 ;;      Totals:         0      12       0       0       0
  6417 ;;Total ram usage:       12 bytes
  6418 ;; Hardware stack levels used:    1
  6419 ;; Hardware stack levels required when called:    2
  6420 ;; This function calls:
  6421 ;;		Nothing
  6422 ;; This function is called by:
  6423 ;;		_main
  6424 ;;		_pow
  6425 ;;		_exp
  6426 ;;		_floor
  6427 ;;		_ldexp
  6428 ;;		_log
  6429 ;; This function uses a non-reentrant model
  6430 ;;
  6431                           
  6432                           
  6433                           ;psect for function ___flge
  6434  1CF8                     ___flge:	
  6435  1CF8                     l2097:	
  6436                           ;incstack = 0
  6437                           ; Regs used in ___flge: [wreg+status,2+status,0]
  6438                           
  6439  1CF8  3000               	movlw	0
  6440  1CF9  1283               	bcf	3,5	;RP0=0, select bank0
  6441  1CFA  1303               	bcf	3,6	;RP1=0, select bank0
  6442  1CFB  0520               	andwf	___flge@ff1,w
  6443  1CFC  00A8               	movwf	??___flge
  6444  1CFD  3000               	movlw	0
  6445  1CFE  0521               	andwf	___flge@ff1+1,w
  6446  1CFF  00A9               	movwf	??___flge+1
  6447  1D00  3080               	movlw	128
  6448  1D01  0522               	andwf	___flge@ff1+2,w
  6449  1D02  00AA               	movwf	??___flge+2
  6450  1D03  307F               	movlw	127
  6451  1D04  0523               	andwf	___flge@ff1+3,w
  6452  1D05  00AB               	movwf	??___flge+3
  6453  1D06  082B               	movf	??___flge+3,w
  6454  1D07  042A               	iorwf	??___flge+2,w
  6455  1D08  0429               	iorwf	??___flge+1,w
  6456  1D09  0428               	iorwf	??___flge,w
  6457  1D0A  1D03               	skipz
  6458  1D0B  2D0D               	goto	u2261
  6459  1D0C  2D0E               	goto	u2260
  6460  1D0D                     u2261:	
  6461  1D0D  2D16               	goto	l430
  6462  1D0E                     u2260:	
  6463  1D0E                     l2099:	
  6464  1D0E  3000               	movlw	0
  6465  1D0F  00A3               	movwf	___flge@ff1+3
  6466  1D10  3000               	movlw	0
  6467  1D11  00A2               	movwf	___flge@ff1+2
  6468  1D12  3000               	movlw	0
  6469  1D13  00A1               	movwf	___flge@ff1+1
  6470  1D14  3000               	movlw	0
  6471  1D15  00A0               	movwf	___flge@ff1
  6472  1D16                     l430:	
  6473  1D16  3000               	movlw	0
  6474  1D17  0524               	andwf	___flge@ff2,w
  6475  1D18  00A8               	movwf	??___flge
  6476  1D19  3000               	movlw	0
  6477  1D1A  0525               	andwf	___flge@ff2+1,w
  6478  1D1B  00A9               	movwf	??___flge+1
  6479  1D1C  3080               	movlw	128
  6480  1D1D  0526               	andwf	___flge@ff2+2,w
  6481  1D1E  00AA               	movwf	??___flge+2
  6482  1D1F  307F               	movlw	127
  6483  1D20  0527               	andwf	___flge@ff2+3,w
  6484  1D21  00AB               	movwf	??___flge+3
  6485  1D22  082B               	movf	??___flge+3,w
  6486  1D23  042A               	iorwf	??___flge+2,w
  6487  1D24  0429               	iorwf	??___flge+1,w
  6488  1D25  0428               	iorwf	??___flge,w
  6489  1D26  1D03               	skipz
  6490  1D27  2D29               	goto	u2271
  6491  1D28  2D2A               	goto	u2270
  6492  1D29                     u2271:	
  6493  1D29  2D32               	goto	l2103
  6494  1D2A                     u2270:	
  6495  1D2A                     l2101:	
  6496  1D2A  3000               	movlw	0
  6497  1D2B  00A7               	movwf	___flge@ff2+3
  6498  1D2C  3000               	movlw	0
  6499  1D2D  00A6               	movwf	___flge@ff2+2
  6500  1D2E  3000               	movlw	0
  6501  1D2F  00A5               	movwf	___flge@ff2+1
  6502  1D30  3000               	movlw	0
  6503  1D31  00A4               	movwf	___flge@ff2
  6504  1D32                     l2103:	
  6505  1D32  1FA3               	btfss	___flge@ff1+3,7
  6506  1D33  2D35               	goto	u2281
  6507  1D34  2D36               	goto	u2280
  6508  1D35                     u2281:	
  6509  1D35  2D5A               	goto	l2107
  6510  1D36                     u2280:	
  6511  1D36                     l2105:	
  6512  1D36  3000               	movlw	0
  6513  1D37  00A8               	movwf	??___flge
  6514  1D38  3000               	movlw	0
  6515  1D39  00A9               	movwf	??___flge+1
  6516  1D3A  3000               	movlw	0
  6517  1D3B  00AA               	movwf	??___flge+2
  6518  1D3C  3080               	movlw	128
  6519  1D3D  00AB               	movwf	??___flge+3
  6520  1D3E  0820               	movf	___flge@ff1,w
  6521  1D3F  02A8               	subwf	??___flge,f
  6522  1D40  0821               	movf	___flge@ff1+1,w
  6523  1D41  1C03               	skipc
  6524  1D42  0F21               	incfsz	___flge@ff1+1,w
  6525  1D43  2D45               	goto	u2291
  6526  1D44  2D46               	goto	u2292
  6527  1D45                     u2291:	
  6528  1D45  02A9               	subwf	??___flge+1,f
  6529  1D46                     u2292:	
  6530  1D46  0822               	movf	___flge@ff1+2,w
  6531  1D47  1C03               	skipc
  6532  1D48  0F22               	incfsz	___flge@ff1+2,w
  6533  1D49  2D4B               	goto	u2293
  6534  1D4A  2D4C               	goto	u2294
  6535  1D4B                     u2293:	
  6536  1D4B  02AA               	subwf	??___flge+2,f
  6537  1D4C                     u2294:	
  6538  1D4C  0823               	movf	___flge@ff1+3,w
  6539  1D4D  1C03               	skipc
  6540  1D4E  0F23               	incfsz	___flge@ff1+3,w
  6541  1D4F  2D51               	goto	u2295
  6542  1D50  2D52               	goto	u2296
  6543  1D51                     u2295:	
  6544  1D51  02AB               	subwf	??___flge+3,f
  6545  1D52                     u2296:	
  6546  1D52  082B               	movf	??___flge+3,w
  6547  1D53  00A3               	movwf	___flge@ff1+3
  6548  1D54  082A               	movf	??___flge+2,w
  6549  1D55  00A2               	movwf	___flge@ff1+2
  6550  1D56  0829               	movf	??___flge+1,w
  6551  1D57  00A1               	movwf	___flge@ff1+1
  6552  1D58  0828               	movf	??___flge,w
  6553  1D59  00A0               	movwf	___flge@ff1
  6554  1D5A                     l2107:	
  6555  1D5A  1FA7               	btfss	___flge@ff2+3,7
  6556  1D5B  2D5D               	goto	u2301
  6557  1D5C  2D5E               	goto	u2300
  6558  1D5D                     u2301:	
  6559  1D5D  2D82               	goto	l433
  6560  1D5E                     u2300:	
  6561  1D5E                     l2109:	
  6562  1D5E  3000               	movlw	0
  6563  1D5F  00A8               	movwf	??___flge
  6564  1D60  3000               	movlw	0
  6565  1D61  00A9               	movwf	??___flge+1
  6566  1D62  3000               	movlw	0
  6567  1D63  00AA               	movwf	??___flge+2
  6568  1D64  3080               	movlw	128
  6569  1D65  00AB               	movwf	??___flge+3
  6570  1D66  0824               	movf	___flge@ff2,w
  6571  1D67  02A8               	subwf	??___flge,f
  6572  1D68  0825               	movf	___flge@ff2+1,w
  6573  1D69  1C03               	skipc
  6574  1D6A  0F25               	incfsz	___flge@ff2+1,w
  6575  1D6B  2D6D               	goto	u2311
  6576  1D6C  2D6E               	goto	u2312
  6577  1D6D                     u2311:	
  6578  1D6D  02A9               	subwf	??___flge+1,f
  6579  1D6E                     u2312:	
  6580  1D6E  0826               	movf	___flge@ff2+2,w
  6581  1D6F  1C03               	skipc
  6582  1D70  0F26               	incfsz	___flge@ff2+2,w
  6583  1D71  2D73               	goto	u2313
  6584  1D72  2D74               	goto	u2314
  6585  1D73                     u2313:	
  6586  1D73  02AA               	subwf	??___flge+2,f
  6587  1D74                     u2314:	
  6588  1D74  0827               	movf	___flge@ff2+3,w
  6589  1D75  1C03               	skipc
  6590  1D76  0F27               	incfsz	___flge@ff2+3,w
  6591  1D77  2D79               	goto	u2315
  6592  1D78  2D7A               	goto	u2316
  6593  1D79                     u2315:	
  6594  1D79  02AB               	subwf	??___flge+3,f
  6595  1D7A                     u2316:	
  6596  1D7A  082B               	movf	??___flge+3,w
  6597  1D7B  00A7               	movwf	___flge@ff2+3
  6598  1D7C  082A               	movf	??___flge+2,w
  6599  1D7D  00A6               	movwf	___flge@ff2+2
  6600  1D7E  0829               	movf	??___flge+1,w
  6601  1D7F  00A5               	movwf	___flge@ff2+1
  6602  1D80  0828               	movf	??___flge,w
  6603  1D81  00A4               	movwf	___flge@ff2
  6604  1D82                     l433:	
  6605  1D82  3080               	movlw	128
  6606  1D83  06A3               	xorwf	___flge@ff1+3,f
  6607  1D84  3080               	movlw	128
  6608  1D85  06A7               	xorwf	___flge@ff2+3,f
  6609  1D86  0827               	movf	___flge@ff2+3,w
  6610  1D87  0223               	subwf	___flge@ff1+3,w
  6611  1D88  1D03               	skipz
  6612  1D89  2D94               	goto	u2325
  6613  1D8A  0826               	movf	___flge@ff2+2,w
  6614  1D8B  0222               	subwf	___flge@ff1+2,w
  6615  1D8C  1D03               	skipz
  6616  1D8D  2D94               	goto	u2325
  6617  1D8E  0825               	movf	___flge@ff2+1,w
  6618  1D8F  0221               	subwf	___flge@ff1+1,w
  6619  1D90  1D03               	skipz
  6620  1D91  2D94               	goto	u2325
  6621  1D92  0824               	movf	___flge@ff2,w
  6622  1D93  0220               	subwf	___flge@ff1,w
  6623  1D94                     u2325:	
  6624  1D94  1803               	skipnc
  6625  1D95  2D97               	goto	u2321
  6626  1D96  2D98               	goto	u2320
  6627  1D97                     u2321:	
  6628  1D97  2D9A               	goto	l2113
  6629  1D98                     u2320:	
  6630  1D98                     l2111:	
  6631  1D98  1003               	clrc
  6632  1D99  2D9B               	goto	l434
  6633  1D9A                     l2113:	
  6634  1D9A  1403               	setc
  6635  1D9B                     l434:	
  6636  1D9B  0008               	return
  6637  1D9C                     __end_of___flge:	
  6638                           
  6639                           	psect	text17
  6640  1F26                     __ptext17:	
  6641 ;; *************** function _eval_poly *****************
  6642 ;; Defined at:
  6643 ;;		line 4 in file "C:\Program Files (x86)\Microchip\xc8\v2.10\pic\sources\c90\common\evalpoly.c"
  6644 ;; Parameters:    Size  Location     Type
  6645 ;;  x               4   25[BANK1 ] long 
  6646 ;;  d               1   29[BANK1 ] PTR const 
  6647 ;;		 -> log@coeff(36), exp@coeff(40), 
  6648 ;;  n               2   30[BANK1 ] int 
  6649 ;; Auto vars:     Size  Location     Type
  6650 ;;  res             4   37[BANK1 ] int 
  6651 ;; Return value:  Size  Location     Type
  6652 ;;                  4   25[BANK1 ] int 
  6653 ;; Registers used:
  6654 ;;		wreg, fsr0l, fsr0h, status,2, status,0, btemp+1, pclath, cstack
  6655 ;; Tracked objects:
  6656 ;;		On entry : 0/0
  6657 ;;		On exit  : 0/0
  6658 ;;		Unchanged: 0/0
  6659 ;; Data sizes:     COMMON   BANK0   BANK1   BANK3   BANK2
  6660 ;;      Params:         0       0       7       0       0
  6661 ;;      Locals:         0       0       4       0       0
  6662 ;;      Temps:          0       0       5       0       0
  6663 ;;      Totals:         0       0      16       0       0
  6664 ;;Total ram usage:       16 bytes
  6665 ;; Hardware stack levels used:    1
  6666 ;; Hardware stack levels required when called:    4
  6667 ;; This function calls:
  6668 ;;		___fladd
  6669 ;;		___flmul
  6670 ;; This function is called by:
  6671 ;;		_exp
  6672 ;;		_log
  6673 ;; This function uses a non-reentrant model
  6674 ;;
  6675                           
  6676                           
  6677                           ;psect for function _eval_poly
  6678  1F26                     _eval_poly:	
  6679  1F26                     l2735:	
  6680                           ;incstack = 0
  6681 ;; using string table level
  6682                           ; Regs used in _eval_poly: [wreg-fsr0h+status,2+status,0+btemp+1+pclath+cstack]
  6683                           
  6684  1F26  1683               	bsf	3,5	;RP0=1, select bank1
  6685  1F27  1303               	bcf	3,6	;RP1=0, select bank1
  6686  1F28  083E               	movf	eval_poly@n^(0+128),w
  6687  1F29  00C0               	movwf	??_eval_poly^(0+128)
  6688  1F2A  3001               	movlw	1
  6689  1F2B                     u3765:	
  6690  1F2B  1003               	clrc
  6691  1F2C  0DC0               	rlf	??_eval_poly^(0+128),f
  6692  1F2D  3EFF               	addlw	-1
  6693  1F2E  1D03               	skipz
  6694  1F2F  2F2B               	goto	u3765
  6695  1F30  1003               	clrc
  6696  1F31  0D40               	rlf	??_eval_poly^(0+128),w
  6697  1F32  073D               	addwf	eval_poly@d^(0+128),w
  6698  1F33  0084               	movwf	4
  6699  1F34  160A  158A  200A  160A  158A  	fcall	stringdir
  6700  1F39  00C1               	movwf	(??_eval_poly+1)^(0+128)
  6701  1F3A  160A  158A  200A  160A  158A  	fcall	stringdir
  6702  1F3F  00C2               	movwf	((??_eval_poly+1)^(0+128)+1)
  6703  1F40  160A  158A  200A  160A  158A  	fcall	stringdir
  6704  1F45  00C3               	movwf	((??_eval_poly+1)^(0+128)+2)
  6705  1F46  160A  158A  200A  160A  158A  	fcall	stringdir
  6706  1F4B  00C4               	movwf	((??_eval_poly+1)^(0+128)+3)
  6707  1F4C  0844               	movf	(??_eval_poly+4)^(0+128),w
  6708  1F4D  00C8               	movwf	(eval_poly@res+3)^(0+128)
  6709  1F4E  0843               	movf	(??_eval_poly+3)^(0+128),w
  6710  1F4F  00C7               	movwf	(eval_poly@res+2)^(0+128)
  6711  1F50  0842               	movf	(??_eval_poly+2)^(0+128),w
  6712  1F51  00C6               	movwf	(eval_poly@res+1)^(0+128)
  6713  1F52  0841               	movf	(??_eval_poly+1)^(0+128),w
  6714  1F53  00C5               	movwf	eval_poly@res^(0+128)
  6715  1F54  2FF1               	goto	l2739
  6716  1F55                     l2737:	
  6717  1F55  30FF               	movlw	255
  6718  1F56  07BE               	addwf	eval_poly@n^(0+128),f
  6719  1F57  1803               	skipnc
  6720  1F58  0ABF               	incf	(eval_poly@n+1)^(0+128),f
  6721  1F59  30FF               	movlw	255
  6722  1F5A  07BF               	addwf	(eval_poly@n+1)^(0+128),f
  6723  1F5B  083E               	movf	eval_poly@n^(0+128),w
  6724  1F5C  00C0               	movwf	??_eval_poly^(0+128)
  6725  1F5D  3001               	movlw	1
  6726  1F5E                     u3775:	
  6727  1F5E  1003               	clrc
  6728  1F5F  0DC0               	rlf	??_eval_poly^(0+128),f
  6729  1F60  3EFF               	addlw	-1
  6730  1F61  1D03               	skipz
  6731  1F62  2F5E               	goto	u3775
  6732  1F63  1003               	clrc
  6733  1F64  0D40               	rlf	??_eval_poly^(0+128),w
  6734  1F65  073D               	addwf	eval_poly@d^(0+128),w
  6735  1F66  0084               	movwf	4
  6736  1F67  160A  158A  200A  160A  158A  	fcall	stringdir
  6737  1F6C  00C1               	movwf	(??_eval_poly+1)^(0+128)
  6738  1F6D  160A  158A  200A  160A  158A  	fcall	stringdir
  6739  1F72  00C2               	movwf	((??_eval_poly+1)^(0+128)+1)
  6740  1F73  160A  158A  200A  160A  158A  	fcall	stringdir
  6741  1F78  00C3               	movwf	((??_eval_poly+1)^(0+128)+2)
  6742  1F79  160A  158A  200A  160A  158A  	fcall	stringdir
  6743  1F7E  00C4               	movwf	((??_eval_poly+1)^(0+128)+3)
  6744  1F7F  0844               	movf	(??_eval_poly+4)^(0+128),w
  6745  1F80  1283               	bcf	3,5	;RP0=0, select bank0
  6746  1F81  1303               	bcf	3,6	;RP1=0, select bank0
  6747  1F82  00EB               	movwf	___fladd@b+3
  6748  1F83  1683               	bsf	3,5	;RP0=1, select bank1
  6749  1F84  1303               	bcf	3,6	;RP1=0, select bank1
  6750  1F85  0843               	movf	(??_eval_poly+3)^(0+128),w
  6751  1F86  1283               	bcf	3,5	;RP0=0, select bank0
  6752  1F87  1303               	bcf	3,6	;RP1=0, select bank0
  6753  1F88  00EA               	movwf	___fladd@b+2
  6754  1F89  1683               	bsf	3,5	;RP0=1, select bank1
  6755  1F8A  1303               	bcf	3,6	;RP1=0, select bank1
  6756  1F8B  0842               	movf	(??_eval_poly+2)^(0+128),w
  6757  1F8C  1283               	bcf	3,5	;RP0=0, select bank0
  6758  1F8D  1303               	bcf	3,6	;RP1=0, select bank0
  6759  1F8E  00E9               	movwf	___fladd@b+1
  6760  1F8F  1683               	bsf	3,5	;RP0=1, select bank1
  6761  1F90  1303               	bcf	3,6	;RP1=0, select bank1
  6762  1F91  0841               	movf	(??_eval_poly+1)^(0+128),w
  6763  1F92  1283               	bcf	3,5	;RP0=0, select bank0
  6764  1F93  1303               	bcf	3,6	;RP1=0, select bank0
  6765  1F94  00E8               	movwf	___fladd@b
  6766  1F95  1683               	bsf	3,5	;RP0=1, select bank1
  6767  1F96  1303               	bcf	3,6	;RP1=0, select bank1
  6768  1F97  0848               	movf	(eval_poly@res+3)^(0+128),w
  6769  1F98  1283               	bcf	3,5	;RP0=0, select bank0
  6770  1F99  1303               	bcf	3,6	;RP1=0, select bank0
  6771  1F9A  00C4               	movwf	___flmul@b+3
  6772  1F9B  1683               	bsf	3,5	;RP0=1, select bank1
  6773  1F9C  1303               	bcf	3,6	;RP1=0, select bank1
  6774  1F9D  0847               	movf	(eval_poly@res+2)^(0+128),w
  6775  1F9E  1283               	bcf	3,5	;RP0=0, select bank0
  6776  1F9F  1303               	bcf	3,6	;RP1=0, select bank0
  6777  1FA0  00C3               	movwf	___flmul@b+2
  6778  1FA1  1683               	bsf	3,5	;RP0=1, select bank1
  6779  1FA2  1303               	bcf	3,6	;RP1=0, select bank1
  6780  1FA3  0846               	movf	(eval_poly@res+1)^(0+128),w
  6781  1FA4  1283               	bcf	3,5	;RP0=0, select bank0
  6782  1FA5  1303               	bcf	3,6	;RP1=0, select bank0
  6783  1FA6  00C2               	movwf	___flmul@b+1
  6784  1FA7  1683               	bsf	3,5	;RP0=1, select bank1
  6785  1FA8  1303               	bcf	3,6	;RP1=0, select bank1
  6786  1FA9  0845               	movf	eval_poly@res^(0+128),w
  6787  1FAA  1283               	bcf	3,5	;RP0=0, select bank0
  6788  1FAB  1303               	bcf	3,6	;RP1=0, select bank0
  6789  1FAC  00C1               	movwf	___flmul@b
  6790  1FAD  1683               	bsf	3,5	;RP0=1, select bank1
  6791  1FAE  1303               	bcf	3,6	;RP1=0, select bank1
  6792  1FAF  083C               	movf	(eval_poly@x+3)^(0+128),w
  6793  1FB0  1283               	bcf	3,5	;RP0=0, select bank0
  6794  1FB1  1303               	bcf	3,6	;RP1=0, select bank0
  6795  1FB2  00C8               	movwf	___flmul@a+3
  6796  1FB3  1683               	bsf	3,5	;RP0=1, select bank1
  6797  1FB4  1303               	bcf	3,6	;RP1=0, select bank1
  6798  1FB5  083B               	movf	(eval_poly@x+2)^(0+128),w
  6799  1FB6  1283               	bcf	3,5	;RP0=0, select bank0
  6800  1FB7  1303               	bcf	3,6	;RP1=0, select bank0
  6801  1FB8  00C7               	movwf	___flmul@a+2
  6802  1FB9  1683               	bsf	3,5	;RP0=1, select bank1
  6803  1FBA  1303               	bcf	3,6	;RP1=0, select bank1
  6804  1FBB  083A               	movf	(eval_poly@x+1)^(0+128),w
  6805  1FBC  1283               	bcf	3,5	;RP0=0, select bank0
  6806  1FBD  1303               	bcf	3,6	;RP1=0, select bank0
  6807  1FBE  00C6               	movwf	___flmul@a+1
  6808  1FBF  1683               	bsf	3,5	;RP0=1, select bank1
  6809  1FC0  1303               	bcf	3,6	;RP1=0, select bank1
  6810  1FC1  0839               	movf	eval_poly@x^(0+128),w
  6811  1FC2  1283               	bcf	3,5	;RP0=0, select bank0
  6812  1FC3  1303               	bcf	3,6	;RP1=0, select bank0
  6813  1FC4  00C5               	movwf	___flmul@a
  6814  1FC5  120A  118A  2495  160A  158A  	fcall	___flmul
  6815  1FCA  1283               	bcf	3,5	;RP0=0, select bank0
  6816  1FCB  1303               	bcf	3,6	;RP1=0, select bank0
  6817  1FCC  0844               	movf	?___flmul+3,w
  6818  1FCD  00EF               	movwf	___fladd@a+3
  6819  1FCE  0843               	movf	?___flmul+2,w
  6820  1FCF  00EE               	movwf	___fladd@a+2
  6821  1FD0  0842               	movf	?___flmul+1,w
  6822  1FD1  00ED               	movwf	___fladd@a+1
  6823  1FD2  0841               	movf	?___flmul,w
  6824  1FD3  00EC               	movwf	___fladd@a
  6825  1FD4  120A  158A  247C  160A  158A  	fcall	___fladd
  6826  1FD9  1283               	bcf	3,5	;RP0=0, select bank0
  6827  1FDA  1303               	bcf	3,6	;RP1=0, select bank0
  6828  1FDB  086B               	movf	?___fladd+3,w
  6829  1FDC  1683               	bsf	3,5	;RP0=1, select bank1
  6830  1FDD  1303               	bcf	3,6	;RP1=0, select bank1
  6831  1FDE  00C8               	movwf	(eval_poly@res+3)^(0+128)
  6832  1FDF  1283               	bcf	3,5	;RP0=0, select bank0
  6833  1FE0  1303               	bcf	3,6	;RP1=0, select bank0
  6834  1FE1  086A               	movf	?___fladd+2,w
  6835  1FE2  1683               	bsf	3,5	;RP0=1, select bank1
  6836  1FE3  1303               	bcf	3,6	;RP1=0, select bank1
  6837  1FE4  00C7               	movwf	(eval_poly@res+2)^(0+128)
  6838  1FE5  1283               	bcf	3,5	;RP0=0, select bank0
  6839  1FE6  1303               	bcf	3,6	;RP1=0, select bank0
  6840  1FE7  0869               	movf	?___fladd+1,w
  6841  1FE8  1683               	bsf	3,5	;RP0=1, select bank1
  6842  1FE9  1303               	bcf	3,6	;RP1=0, select bank1
  6843  1FEA  00C6               	movwf	(eval_poly@res+1)^(0+128)
  6844  1FEB  1283               	bcf	3,5	;RP0=0, select bank0
  6845  1FEC  1303               	bcf	3,6	;RP1=0, select bank0
  6846  1FED  0868               	movf	?___fladd,w
  6847  1FEE  1683               	bsf	3,5	;RP0=1, select bank1
  6848  1FEF  1303               	bcf	3,6	;RP1=0, select bank1
  6849  1FF0  00C5               	movwf	eval_poly@res^(0+128)
  6850  1FF1                     l2739:	
  6851  1FF1  083E               	movf	eval_poly@n^(0+128),w
  6852  1FF2  043F               	iorwf	(eval_poly@n+1)^(0+128),w
  6853  1FF3  1D03               	btfss	3,2
  6854  1FF4  2FF6               	goto	u3781
  6855  1FF5  2FF7               	goto	u3780
  6856  1FF6                     u3781:	
  6857  1FF6  2F55               	goto	l2737
  6858  1FF7                     u3780:	
  6859  1FF7                     l2741:	
  6860  1FF7  0848               	movf	(eval_poly@res+3)^(0+128),w
  6861  1FF8  00BC               	movwf	(?_eval_poly+3)^(0+128)
  6862  1FF9  0847               	movf	(eval_poly@res+2)^(0+128),w
  6863  1FFA  00BB               	movwf	(?_eval_poly+2)^(0+128)
  6864  1FFB  0846               	movf	(eval_poly@res+1)^(0+128),w
  6865  1FFC  00BA               	movwf	(?_eval_poly+1)^(0+128)
  6866  1FFD  0845               	movf	eval_poly@res^(0+128),w
  6867  1FFE  00B9               	movwf	?_eval_poly^(0+128)
  6868  1FFF                     l787:	
  6869  1FFF  0008               	return
  6870  2000                     __end_of_eval_poly:	
  6871                           
  6872                           	psect	text18
  6873  0495                     __ptext18:	
  6874 ;; *************** function ___flmul *****************
  6875 ;; Defined at:
  6876 ;;		line 8 in file "C:\Program Files (x86)\Microchip\xc8\v2.10\pic\sources\c90\common\sprcmul.c"
  6877 ;; Parameters:    Size  Location     Type
  6878 ;;  b               4   33[BANK0 ] int 
  6879 ;;  a               4   37[BANK0 ] int 
  6880 ;; Auto vars:     Size  Location     Type
  6881 ;;  prod            4   53[BANK0 ] struct .
  6882 ;;  grs             4   47[BANK0 ] unsigned long 
  6883 ;;  temp            2   57[BANK0 ] struct .
  6884 ;;  bexp            1   52[BANK0 ] unsigned char 
  6885 ;;  aexp            1   51[BANK0 ] unsigned char 
  6886 ;;  sign            1   46[BANK0 ] unsigned char 
  6887 ;; Return value:  Size  Location     Type
  6888 ;;                  4   33[BANK0 ] unsigned char 
  6889 ;; Registers used:
  6890 ;;		wreg, status,2, status,0, btemp+1, pclath, cstack
  6891 ;; Tracked objects:
  6892 ;;		On entry : 0/0
  6893 ;;		On exit  : 0/0
  6894 ;;		Unchanged: 0/0
  6895 ;; Data sizes:     COMMON   BANK0   BANK1   BANK3   BANK2
  6896 ;;      Params:         0       8       0       0       0
  6897 ;;      Locals:         0      13       0       0       0
  6898 ;;      Temps:          0       5       0       0       0
  6899 ;;      Totals:         0      26       0       0       0
  6900 ;;Total ram usage:       26 bytes
  6901 ;; Hardware stack levels used:    1
  6902 ;; Hardware stack levels required when called:    3
  6903 ;; This function calls:
  6904 ;;		__Umul8_16
  6905 ;; This function is called by:
  6906 ;;		_main
  6907 ;;		_ftoa
  6908 ;;		_pow
  6909 ;;		_exp
  6910 ;;		_log
  6911 ;;		_eval_poly
  6912 ;; This function uses a non-reentrant model
  6913 ;;
  6914                           
  6915                           
  6916                           ;psect for function ___flmul
  6917  0495                     ___flmul:	
  6918  0495                     l2347:	
  6919                           ;incstack = 0
  6920                           ; Regs used in ___flmul: [wreg+status,2+status,0+btemp+1+pclath+cstack]
  6921                           
  6922  0495  1283               	bcf	3,5	;RP0=0, select bank0
  6923  0496  1303               	bcf	3,6	;RP1=0, select bank0
  6924  0497  0844               	movf	___flmul@b+3,w
  6925  0498  3980               	andlw	128
  6926  0499  00C9               	movwf	??___flmul
  6927  049A  0849               	movf	??___flmul,w
  6928  049B  00CE               	movwf	___flmul@sign
  6929  049C                     l2349:	
  6930  049C  0844               	movf	___flmul@b+3,w
  6931  049D  00C9               	movwf	??___flmul
  6932  049E  0749               	addwf	??___flmul,w
  6933  049F  00CA               	movwf	??___flmul+1
  6934  04A0  084A               	movf	??___flmul+1,w
  6935  04A1  00D4               	movwf	___flmul@bexp
  6936  04A2                     l2351:	
  6937  04A2  1FC3               	btfss	___flmul@b+2,7
  6938  04A3  2CA5               	goto	u2891
  6939  04A4  2CA6               	goto	u2890
  6940  04A5                     u2891:	
  6941  04A5  2CA7               	goto	l2355
  6942  04A6                     u2890:	
  6943  04A6                     l2353:	
  6944  04A6  1454               	bsf	___flmul@bexp,0
  6945  04A7                     l2355:	
  6946  04A7  0854               	movf	___flmul@bexp,w
  6947  04A8  1903               	btfsc	3,2
  6948  04A9  2CAB               	goto	u2901
  6949  04AA  2CAC               	goto	u2900
  6950  04AB                     u2901:	
  6951  04AB  2CBB               	goto	l2363
  6952  04AC                     u2900:	
  6953  04AC                     l2357:	
  6954  04AC  0A54               	incf	___flmul@bexp,w
  6955  04AD  1D03               	btfss	3,2
  6956  04AE  2CB0               	goto	u2911
  6957  04AF  2CB1               	goto	u2910
  6958  04B0                     u2911:	
  6959  04B0  2CB9               	goto	l2361
  6960  04B1                     u2910:	
  6961  04B1                     l2359:	
  6962  04B1  3000               	movlw	0
  6963  04B2  00C4               	movwf	___flmul@b+3
  6964  04B3  3000               	movlw	0
  6965  04B4  00C3               	movwf	___flmul@b+2
  6966  04B5  3000               	movlw	0
  6967  04B6  00C2               	movwf	___flmul@b+1
  6968  04B7  3000               	movlw	0
  6969  04B8  00C1               	movwf	___flmul@b
  6970  04B9                     l2361:	
  6971  04B9  17C3               	bsf	___flmul@b+2,7
  6972  04BA  2CC3               	goto	l2365
  6973  04BB                     l2363:	
  6974  04BB  3000               	movlw	0
  6975  04BC  00C4               	movwf	___flmul@b+3
  6976  04BD  3000               	movlw	0
  6977  04BE  00C3               	movwf	___flmul@b+2
  6978  04BF  3000               	movlw	0
  6979  04C0  00C2               	movwf	___flmul@b+1
  6980  04C1  3000               	movlw	0
  6981  04C2  00C1               	movwf	___flmul@b
  6982  04C3                     l2365:	
  6983  04C3  0848               	movf	___flmul@a+3,w
  6984  04C4  3980               	andlw	128
  6985  04C5  00C9               	movwf	??___flmul
  6986  04C6  0849               	movf	??___flmul,w
  6987  04C7  06CE               	xorwf	___flmul@sign,f
  6988  04C8                     l2367:	
  6989  04C8  0848               	movf	___flmul@a+3,w
  6990  04C9  00C9               	movwf	??___flmul
  6991  04CA  0749               	addwf	??___flmul,w
  6992  04CB  00CA               	movwf	??___flmul+1
  6993  04CC  084A               	movf	??___flmul+1,w
  6994  04CD  00D3               	movwf	___flmul@aexp
  6995  04CE                     l2369:	
  6996  04CE  1FC7               	btfss	___flmul@a+2,7
  6997  04CF  2CD1               	goto	u2921
  6998  04D0  2CD2               	goto	u2920
  6999  04D1                     u2921:	
  7000  04D1  2CD3               	goto	l2373
  7001  04D2                     u2920:	
  7002  04D2                     l2371:	
  7003  04D2  1453               	bsf	___flmul@aexp,0
  7004  04D3                     l2373:	
  7005  04D3  0853               	movf	___flmul@aexp,w
  7006  04D4  1903               	btfsc	3,2
  7007  04D5  2CD7               	goto	u2931
  7008  04D6  2CD8               	goto	u2930
  7009  04D7                     u2931:	
  7010  04D7  2CE7               	goto	l2381
  7011  04D8                     u2930:	
  7012  04D8                     l2375:	
  7013  04D8  0A53               	incf	___flmul@aexp,w
  7014  04D9  1D03               	btfss	3,2
  7015  04DA  2CDC               	goto	u2941
  7016  04DB  2CDD               	goto	u2940
  7017  04DC                     u2941:	
  7018  04DC  2CE5               	goto	l2379
  7019  04DD                     u2940:	
  7020  04DD                     l2377:	
  7021  04DD  3000               	movlw	0
  7022  04DE  00C8               	movwf	___flmul@a+3
  7023  04DF  3000               	movlw	0
  7024  04E0  00C7               	movwf	___flmul@a+2
  7025  04E1  3000               	movlw	0
  7026  04E2  00C6               	movwf	___flmul@a+1
  7027  04E3  3000               	movlw	0
  7028  04E4  00C5               	movwf	___flmul@a
  7029  04E5                     l2379:	
  7030  04E5  17C7               	bsf	___flmul@a+2,7
  7031  04E6  2CEF               	goto	l2383
  7032  04E7                     l2381:	
  7033  04E7  3000               	movlw	0
  7034  04E8  00C8               	movwf	___flmul@a+3
  7035  04E9  3000               	movlw	0
  7036  04EA  00C7               	movwf	___flmul@a+2
  7037  04EB  3000               	movlw	0
  7038  04EC  00C6               	movwf	___flmul@a+1
  7039  04ED  3000               	movlw	0
  7040  04EE  00C5               	movwf	___flmul@a
  7041  04EF                     l2383:	
  7042  04EF  0853               	movf	___flmul@aexp,w
  7043  04F0  1903               	btfsc	3,2
  7044  04F1  2CF3               	goto	u2951
  7045  04F2  2CF4               	goto	u2950
  7046  04F3                     u2951:	
  7047  04F3  2CF9               	goto	l2387
  7048  04F4                     u2950:	
  7049  04F4                     l2385:	
  7050  04F4  0854               	movf	___flmul@bexp,w
  7051  04F5  1D03               	btfss	3,2
  7052  04F6  2CF8               	goto	u2961
  7053  04F7  2CF9               	goto	u2960
  7054  04F8                     u2961:	
  7055  04F8  2D02               	goto	l2391
  7056  04F9                     u2960:	
  7057  04F9                     l2387:	
  7058  04F9  3000               	movlw	0
  7059  04FA  00C4               	movwf	?___flmul+3
  7060  04FB  3000               	movlw	0
  7061  04FC  00C3               	movwf	?___flmul+2
  7062  04FD  3000               	movlw	0
  7063  04FE  00C2               	movwf	?___flmul+1
  7064  04FF  3000               	movlw	0
  7065  0500  00C1               	movwf	?___flmul
  7066  0501  2FF5               	goto	l645
  7067  0502                     l2391:	
  7068  0502  0841               	movf	___flmul@b,w
  7069  0503  00C9               	movwf	??___flmul
  7070  0504  0849               	movf	??___flmul,w
  7071  0505  00A0               	movwf	__Umul8_16@multiplicand
  7072  0506  0847               	movf	___flmul@a+2,w
  7073  0507  160A  158A  216E  120A  118A  	fcall	__Umul8_16
  7074  050C  1283               	bcf	3,5	;RP0=0, select bank0
  7075  050D  1303               	bcf	3,6	;RP1=0, select bank0
  7076  050E  0821               	movf	?__Umul8_16+1,w
  7077  050F  00DA               	movwf	___flmul@temp+1
  7078  0510  0820               	movf	?__Umul8_16,w
  7079  0511  00D9               	movwf	___flmul@temp
  7080  0512                     l2393:	
  7081  0512  0859               	movf	___flmul@temp,w
  7082  0513  00C9               	movwf	??___flmul
  7083  0514  01CA               	clrf	??___flmul+1
  7084  0515  01CB               	clrf	??___flmul+2
  7085  0516  01CC               	clrf	??___flmul+3
  7086  0517  084C               	movf	??___flmul+3,w
  7087  0518  00D2               	movwf	___flmul@grs+3
  7088  0519  084B               	movf	??___flmul+2,w
  7089  051A  00D1               	movwf	___flmul@grs+2
  7090  051B  084A               	movf	??___flmul+1,w
  7091  051C  00D0               	movwf	___flmul@grs+1
  7092  051D  0849               	movf	??___flmul,w
  7093  051E  00CF               	movwf	___flmul@grs
  7094  051F                     l2395:	
  7095  051F  085A               	movf	___flmul@temp+1,w
  7096  0520  00C9               	movwf	??___flmul
  7097  0521  01CA               	clrf	??___flmul+1
  7098  0522  01CB               	clrf	??___flmul+2
  7099  0523  01CC               	clrf	??___flmul+3
  7100  0524  084C               	movf	??___flmul+3,w
  7101  0525  00D8               	movwf	___flmul@prod+3
  7102  0526  084B               	movf	??___flmul+2,w
  7103  0527  00D7               	movwf	___flmul@prod+2
  7104  0528  084A               	movf	??___flmul+1,w
  7105  0529  00D6               	movwf	___flmul@prod+1
  7106  052A  0849               	movf	??___flmul,w
  7107  052B  00D5               	movwf	___flmul@prod
  7108  052C  0842               	movf	___flmul@b+1,w
  7109  052D  00C9               	movwf	??___flmul
  7110  052E  0849               	movf	??___flmul,w
  7111  052F  00A0               	movwf	__Umul8_16@multiplicand
  7112  0530  0846               	movf	___flmul@a+1,w
  7113  0531  160A  158A  216E  120A  118A  	fcall	__Umul8_16
  7114  0536  1283               	bcf	3,5	;RP0=0, select bank0
  7115  0537  1303               	bcf	3,6	;RP1=0, select bank0
  7116  0538  0821               	movf	?__Umul8_16+1,w
  7117  0539  00DA               	movwf	___flmul@temp+1
  7118  053A  0820               	movf	?__Umul8_16,w
  7119  053B  00D9               	movwf	___flmul@temp
  7120  053C                     l2397:	
  7121  053C  0859               	movf	___flmul@temp,w
  7122  053D  00C9               	movwf	??___flmul
  7123  053E  01CA               	clrf	??___flmul+1
  7124  053F  01CB               	clrf	??___flmul+2
  7125  0540  01CC               	clrf	??___flmul+3
  7126  0541  0849               	movf	??___flmul,w
  7127  0542  07CF               	addwf	___flmul@grs,f
  7128  0543  084A               	movf	??___flmul+1,w
  7129  0544  1103               	clrz
  7130  0545  1803               	skipnc
  7131  0546  3E01               	addlw	1
  7132  0547  1903               	skipnz
  7133  0548  2D4A               	goto	u2971
  7134  0549  07D0               	addwf	___flmul@grs+1,f
  7135  054A                     u2971:	
  7136  054A  084B               	movf	??___flmul+2,w
  7137  054B  1103               	clrz
  7138  054C  1803               	skipnc
  7139  054D  3E01               	addlw	1
  7140  054E  1903               	skipnz
  7141  054F  2D51               	goto	u2972
  7142  0550  07D1               	addwf	___flmul@grs+2,f
  7143  0551                     u2972:	
  7144  0551  084C               	movf	??___flmul+3,w
  7145  0552  1103               	clrz
  7146  0553  1803               	skipnc
  7147  0554  3E01               	addlw	1
  7148  0555  1903               	skipnz
  7149  0556  2D58               	goto	u2973
  7150  0557  07D2               	addwf	___flmul@grs+3,f
  7151  0558                     u2973:	
  7152  0558                     l2399:	
  7153  0558  085A               	movf	___flmul@temp+1,w
  7154  0559  00C9               	movwf	??___flmul
  7155  055A  01CA               	clrf	??___flmul+1
  7156  055B  01CB               	clrf	??___flmul+2
  7157  055C  01CC               	clrf	??___flmul+3
  7158  055D  0849               	movf	??___flmul,w
  7159  055E  07D5               	addwf	___flmul@prod,f
  7160  055F  084A               	movf	??___flmul+1,w
  7161  0560  1103               	clrz
  7162  0561  1803               	skipnc
  7163  0562  3E01               	addlw	1
  7164  0563  1903               	skipnz
  7165  0564  2D66               	goto	u2981
  7166  0565  07D6               	addwf	___flmul@prod+1,f
  7167  0566                     u2981:	
  7168  0566  084B               	movf	??___flmul+2,w
  7169  0567  1103               	clrz
  7170  0568  1803               	skipnc
  7171  0569  3E01               	addlw	1
  7172  056A  1903               	skipnz
  7173  056B  2D6D               	goto	u2982
  7174  056C  07D7               	addwf	___flmul@prod+2,f
  7175  056D                     u2982:	
  7176  056D  084C               	movf	??___flmul+3,w
  7177  056E  1103               	clrz
  7178  056F  1803               	skipnc
  7179  0570  3E01               	addlw	1
  7180  0571  1903               	skipnz
  7181  0572  2D74               	goto	u2983
  7182  0573  07D8               	addwf	___flmul@prod+3,f
  7183  0574                     u2983:	
  7184  0574  0843               	movf	___flmul@b+2,w
  7185  0575  00C9               	movwf	??___flmul
  7186  0576  0849               	movf	??___flmul,w
  7187  0577  00A0               	movwf	__Umul8_16@multiplicand
  7188  0578  0845               	movf	___flmul@a,w
  7189  0579  160A  158A  216E  120A  118A  	fcall	__Umul8_16
  7190  057E  1283               	bcf	3,5	;RP0=0, select bank0
  7191  057F  1303               	bcf	3,6	;RP1=0, select bank0
  7192  0580  0821               	movf	?__Umul8_16+1,w
  7193  0581  00DA               	movwf	___flmul@temp+1
  7194  0582  0820               	movf	?__Umul8_16,w
  7195  0583  00D9               	movwf	___flmul@temp
  7196  0584                     l2401:	
  7197  0584  0859               	movf	___flmul@temp,w
  7198  0585  00C9               	movwf	??___flmul
  7199  0586  01CA               	clrf	??___flmul+1
  7200  0587  01CB               	clrf	??___flmul+2
  7201  0588  01CC               	clrf	??___flmul+3
  7202  0589  0849               	movf	??___flmul,w
  7203  058A  07CF               	addwf	___flmul@grs,f
  7204  058B  084A               	movf	??___flmul+1,w
  7205  058C  1103               	clrz
  7206  058D  1803               	skipnc
  7207  058E  3E01               	addlw	1
  7208  058F  1903               	skipnz
  7209  0590  2D92               	goto	u2991
  7210  0591  07D0               	addwf	___flmul@grs+1,f
  7211  0592                     u2991:	
  7212  0592  084B               	movf	??___flmul+2,w
  7213  0593  1103               	clrz
  7214  0594  1803               	skipnc
  7215  0595  3E01               	addlw	1
  7216  0596  1903               	skipnz
  7217  0597  2D99               	goto	u2992
  7218  0598  07D1               	addwf	___flmul@grs+2,f
  7219  0599                     u2992:	
  7220  0599  084C               	movf	??___flmul+3,w
  7221  059A  1103               	clrz
  7222  059B  1803               	skipnc
  7223  059C  3E01               	addlw	1
  7224  059D  1903               	skipnz
  7225  059E  2DA0               	goto	u2993
  7226  059F  07D2               	addwf	___flmul@grs+3,f
  7227  05A0                     u2993:	
  7228  05A0                     l2403:	
  7229  05A0  085A               	movf	___flmul@temp+1,w
  7230  05A1  00C9               	movwf	??___flmul
  7231  05A2  01CA               	clrf	??___flmul+1
  7232  05A3  01CB               	clrf	??___flmul+2
  7233  05A4  01CC               	clrf	??___flmul+3
  7234  05A5  0849               	movf	??___flmul,w
  7235  05A6  07D5               	addwf	___flmul@prod,f
  7236  05A7  084A               	movf	??___flmul+1,w
  7237  05A8  1103               	clrz
  7238  05A9  1803               	skipnc
  7239  05AA  3E01               	addlw	1
  7240  05AB  1903               	skipnz
  7241  05AC  2DAE               	goto	u3001
  7242  05AD  07D6               	addwf	___flmul@prod+1,f
  7243  05AE                     u3001:	
  7244  05AE  084B               	movf	??___flmul+2,w
  7245  05AF  1103               	clrz
  7246  05B0  1803               	skipnc
  7247  05B1  3E01               	addlw	1
  7248  05B2  1903               	skipnz
  7249  05B3  2DB5               	goto	u3002
  7250  05B4  07D7               	addwf	___flmul@prod+2,f
  7251  05B5                     u3002:	
  7252  05B5  084C               	movf	??___flmul+3,w
  7253  05B6  1103               	clrz
  7254  05B7  1803               	skipnc
  7255  05B8  3E01               	addlw	1
  7256  05B9  1903               	skipnz
  7257  05BA  2DBC               	goto	u3003
  7258  05BB  07D8               	addwf	___flmul@prod+3,f
  7259  05BC                     u3003:	
  7260  05BC                     l2405:	
  7261  05BC  3008               	movlw	8
  7262  05BD  00C9               	movwf	??___flmul
  7263  05BE                     u3015:	
  7264  05BE  1003               	clrc
  7265  05BF  0DCF               	rlf	___flmul@grs,f
  7266  05C0  0DD0               	rlf	___flmul@grs+1,f
  7267  05C1  0DD1               	rlf	___flmul@grs+2,f
  7268  05C2  0DD2               	rlf	___flmul@grs+3,f
  7269  05C3  0BC9               	decfsz	??___flmul,f
  7270  05C4  2DBE               	goto	u3015
  7271  05C5                     l2407:	
  7272  05C5  0842               	movf	___flmul@b+1,w
  7273  05C6  00C9               	movwf	??___flmul
  7274  05C7  0849               	movf	??___flmul,w
  7275  05C8  00A0               	movwf	__Umul8_16@multiplicand
  7276  05C9  0845               	movf	___flmul@a,w
  7277  05CA  160A  158A  216E  120A  118A  	fcall	__Umul8_16
  7278  05CF  1283               	bcf	3,5	;RP0=0, select bank0
  7279  05D0  1303               	bcf	3,6	;RP1=0, select bank0
  7280  05D1  0821               	movf	?__Umul8_16+1,w
  7281  05D2  00DA               	movwf	___flmul@temp+1
  7282  05D3  0820               	movf	?__Umul8_16,w
  7283  05D4  00D9               	movwf	___flmul@temp
  7284  05D5                     l2409:	
  7285  05D5  0859               	movf	___flmul@temp,w
  7286  05D6  00C9               	movwf	??___flmul
  7287  05D7  085A               	movf	___flmul@temp+1,w
  7288  05D8  00CA               	movwf	??___flmul+1
  7289  05D9  01CB               	clrf	??___flmul+2
  7290  05DA  01CC               	clrf	??___flmul+3
  7291  05DB  0849               	movf	??___flmul,w
  7292  05DC  07CF               	addwf	___flmul@grs,f
  7293  05DD  084A               	movf	??___flmul+1,w
  7294  05DE  1103               	clrz
  7295  05DF  1803               	skipnc
  7296  05E0  3E01               	addlw	1
  7297  05E1  1903               	skipnz
  7298  05E2  2DE4               	goto	u3021
  7299  05E3  07D0               	addwf	___flmul@grs+1,f
  7300  05E4                     u3021:	
  7301  05E4  084B               	movf	??___flmul+2,w
  7302  05E5  1103               	clrz
  7303  05E6  1803               	skipnc
  7304  05E7  3E01               	addlw	1
  7305  05E8  1903               	skipnz
  7306  05E9  2DEB               	goto	u3022
  7307  05EA  07D1               	addwf	___flmul@grs+2,f
  7308  05EB                     u3022:	
  7309  05EB  084C               	movf	??___flmul+3,w
  7310  05EC  1103               	clrz
  7311  05ED  1803               	skipnc
  7312  05EE  3E01               	addlw	1
  7313  05EF  1903               	skipnz
  7314  05F0  2DF2               	goto	u3023
  7315  05F1  07D2               	addwf	___flmul@grs+3,f
  7316  05F2                     u3023:	
  7317  05F2                     l2411:	
  7318  05F2  0841               	movf	___flmul@b,w
  7319  05F3  00C9               	movwf	??___flmul
  7320  05F4  0849               	movf	??___flmul,w
  7321  05F5  00A0               	movwf	__Umul8_16@multiplicand
  7322  05F6  0846               	movf	___flmul@a+1,w
  7323  05F7  160A  158A  216E  120A  118A  	fcall	__Umul8_16
  7324  05FC  1283               	bcf	3,5	;RP0=0, select bank0
  7325  05FD  1303               	bcf	3,6	;RP1=0, select bank0
  7326  05FE  0821               	movf	?__Umul8_16+1,w
  7327  05FF  00DA               	movwf	___flmul@temp+1
  7328  0600  0820               	movf	?__Umul8_16,w
  7329  0601  00D9               	movwf	___flmul@temp
  7330  0602                     l2413:	
  7331  0602  0859               	movf	___flmul@temp,w
  7332  0603  00C9               	movwf	??___flmul
  7333  0604  085A               	movf	___flmul@temp+1,w
  7334  0605  00CA               	movwf	??___flmul+1
  7335  0606  01CB               	clrf	??___flmul+2
  7336  0607  01CC               	clrf	??___flmul+3
  7337  0608  0849               	movf	??___flmul,w
  7338  0609  07CF               	addwf	___flmul@grs,f
  7339  060A  084A               	movf	??___flmul+1,w
  7340  060B  1103               	clrz
  7341  060C  1803               	skipnc
  7342  060D  3E01               	addlw	1
  7343  060E  1903               	skipnz
  7344  060F  2E11               	goto	u3031
  7345  0610  07D0               	addwf	___flmul@grs+1,f
  7346  0611                     u3031:	
  7347  0611  084B               	movf	??___flmul+2,w
  7348  0612  1103               	clrz
  7349  0613  1803               	skipnc
  7350  0614  3E01               	addlw	1
  7351  0615  1903               	skipnz
  7352  0616  2E18               	goto	u3032
  7353  0617  07D1               	addwf	___flmul@grs+2,f
  7354  0618                     u3032:	
  7355  0618  084C               	movf	??___flmul+3,w
  7356  0619  1103               	clrz
  7357  061A  1803               	skipnc
  7358  061B  3E01               	addlw	1
  7359  061C  1903               	skipnz
  7360  061D  2E1F               	goto	u3033
  7361  061E  07D2               	addwf	___flmul@grs+3,f
  7362  061F                     u3033:	
  7363  061F                     l2415:	
  7364  061F  3008               	movlw	8
  7365  0620  00C9               	movwf	??___flmul
  7366  0621                     u3045:	
  7367  0621  1003               	clrc
  7368  0622  0DCF               	rlf	___flmul@grs,f
  7369  0623  0DD0               	rlf	___flmul@grs+1,f
  7370  0624  0DD1               	rlf	___flmul@grs+2,f
  7371  0625  0DD2               	rlf	___flmul@grs+3,f
  7372  0626  0BC9               	decfsz	??___flmul,f
  7373  0627  2E21               	goto	u3045
  7374  0628  0841               	movf	___flmul@b,w
  7375  0629  00C9               	movwf	??___flmul
  7376  062A  0849               	movf	??___flmul,w
  7377  062B  00A0               	movwf	__Umul8_16@multiplicand
  7378  062C  0845               	movf	___flmul@a,w
  7379  062D  160A  158A  216E  120A  118A  	fcall	__Umul8_16
  7380  0632  1283               	bcf	3,5	;RP0=0, select bank0
  7381  0633  1303               	bcf	3,6	;RP1=0, select bank0
  7382  0634  0821               	movf	?__Umul8_16+1,w
  7383  0635  00DA               	movwf	___flmul@temp+1
  7384  0636  0820               	movf	?__Umul8_16,w
  7385  0637  00D9               	movwf	___flmul@temp
  7386  0638                     l2417:	
  7387  0638  0859               	movf	___flmul@temp,w
  7388  0639  00C9               	movwf	??___flmul
  7389  063A  085A               	movf	___flmul@temp+1,w
  7390  063B  00CA               	movwf	??___flmul+1
  7391  063C  01CB               	clrf	??___flmul+2
  7392  063D  01CC               	clrf	??___flmul+3
  7393  063E  0849               	movf	??___flmul,w
  7394  063F  07CF               	addwf	___flmul@grs,f
  7395  0640  084A               	movf	??___flmul+1,w
  7396  0641  1103               	clrz
  7397  0642  1803               	skipnc
  7398  0643  3E01               	addlw	1
  7399  0644  1903               	skipnz
  7400  0645  2E47               	goto	u3051
  7401  0646  07D0               	addwf	___flmul@grs+1,f
  7402  0647                     u3051:	
  7403  0647  084B               	movf	??___flmul+2,w
  7404  0648  1103               	clrz
  7405  0649  1803               	skipnc
  7406  064A  3E01               	addlw	1
  7407  064B  1903               	skipnz
  7408  064C  2E4E               	goto	u3052
  7409  064D  07D1               	addwf	___flmul@grs+2,f
  7410  064E                     u3052:	
  7411  064E  084C               	movf	??___flmul+3,w
  7412  064F  1103               	clrz
  7413  0650  1803               	skipnc
  7414  0651  3E01               	addlw	1
  7415  0652  1903               	skipnz
  7416  0653  2E55               	goto	u3053
  7417  0654  07D2               	addwf	___flmul@grs+3,f
  7418  0655                     u3053:	
  7419  0655                     l2419:	
  7420  0655  0842               	movf	___flmul@b+1,w
  7421  0656  00C9               	movwf	??___flmul
  7422  0657  0849               	movf	??___flmul,w
  7423  0658  00A0               	movwf	__Umul8_16@multiplicand
  7424  0659  0847               	movf	___flmul@a+2,w
  7425  065A  160A  158A  216E  120A  118A  	fcall	__Umul8_16
  7426  065F  1283               	bcf	3,5	;RP0=0, select bank0
  7427  0660  1303               	bcf	3,6	;RP1=0, select bank0
  7428  0661  0821               	movf	?__Umul8_16+1,w
  7429  0662  00DA               	movwf	___flmul@temp+1
  7430  0663  0820               	movf	?__Umul8_16,w
  7431  0664  00D9               	movwf	___flmul@temp
  7432  0665  0859               	movf	___flmul@temp,w
  7433  0666  00C9               	movwf	??___flmul
  7434  0667  085A               	movf	___flmul@temp+1,w
  7435  0668  00CA               	movwf	??___flmul+1
  7436  0669  01CB               	clrf	??___flmul+2
  7437  066A  01CC               	clrf	??___flmul+3
  7438  066B  0849               	movf	??___flmul,w
  7439  066C  07D5               	addwf	___flmul@prod,f
  7440  066D  084A               	movf	??___flmul+1,w
  7441  066E  1103               	clrz
  7442  066F  1803               	skipnc
  7443  0670  3E01               	addlw	1
  7444  0671  1903               	skipnz
  7445  0672  2E74               	goto	u3061
  7446  0673  07D6               	addwf	___flmul@prod+1,f
  7447  0674                     u3061:	
  7448  0674  084B               	movf	??___flmul+2,w
  7449  0675  1103               	clrz
  7450  0676  1803               	skipnc
  7451  0677  3E01               	addlw	1
  7452  0678  1903               	skipnz
  7453  0679  2E7B               	goto	u3062
  7454  067A  07D7               	addwf	___flmul@prod+2,f
  7455  067B                     u3062:	
  7456  067B  084C               	movf	??___flmul+3,w
  7457  067C  1103               	clrz
  7458  067D  1803               	skipnc
  7459  067E  3E01               	addlw	1
  7460  067F  1903               	skipnz
  7461  0680  2E82               	goto	u3063
  7462  0681  07D8               	addwf	___flmul@prod+3,f
  7463  0682                     u3063:	
  7464  0682                     l2421:	
  7465  0682  0843               	movf	___flmul@b+2,w
  7466  0683  00C9               	movwf	??___flmul
  7467  0684  0849               	movf	??___flmul,w
  7468  0685  00A0               	movwf	__Umul8_16@multiplicand
  7469  0686  0846               	movf	___flmul@a+1,w
  7470  0687  160A  158A  216E  120A  118A  	fcall	__Umul8_16
  7471  068C  1283               	bcf	3,5	;RP0=0, select bank0
  7472  068D  1303               	bcf	3,6	;RP1=0, select bank0
  7473  068E  0821               	movf	?__Umul8_16+1,w
  7474  068F  00DA               	movwf	___flmul@temp+1
  7475  0690  0820               	movf	?__Umul8_16,w
  7476  0691  00D9               	movwf	___flmul@temp
  7477  0692                     l2423:	
  7478  0692  0859               	movf	___flmul@temp,w
  7479  0693  00C9               	movwf	??___flmul
  7480  0694  085A               	movf	___flmul@temp+1,w
  7481  0695  00CA               	movwf	??___flmul+1
  7482  0696  01CB               	clrf	??___flmul+2
  7483  0697  01CC               	clrf	??___flmul+3
  7484  0698  0849               	movf	??___flmul,w
  7485  0699  07D5               	addwf	___flmul@prod,f
  7486  069A  084A               	movf	??___flmul+1,w
  7487  069B  1103               	clrz
  7488  069C  1803               	skipnc
  7489  069D  3E01               	addlw	1
  7490  069E  1903               	skipnz
  7491  069F  2EA1               	goto	u3071
  7492  06A0  07D6               	addwf	___flmul@prod+1,f
  7493  06A1                     u3071:	
  7494  06A1  084B               	movf	??___flmul+2,w
  7495  06A2  1103               	clrz
  7496  06A3  1803               	skipnc
  7497  06A4  3E01               	addlw	1
  7498  06A5  1903               	skipnz
  7499  06A6  2EA8               	goto	u3072
  7500  06A7  07D7               	addwf	___flmul@prod+2,f
  7501  06A8                     u3072:	
  7502  06A8  084C               	movf	??___flmul+3,w
  7503  06A9  1103               	clrz
  7504  06AA  1803               	skipnc
  7505  06AB  3E01               	addlw	1
  7506  06AC  1903               	skipnz
  7507  06AD  2EAF               	goto	u3073
  7508  06AE  07D8               	addwf	___flmul@prod+3,f
  7509  06AF                     u3073:	
  7510  06AF  0843               	movf	___flmul@b+2,w
  7511  06B0  00C9               	movwf	??___flmul
  7512  06B1  0849               	movf	??___flmul,w
  7513  06B2  00A0               	movwf	__Umul8_16@multiplicand
  7514  06B3  0847               	movf	___flmul@a+2,w
  7515  06B4  160A  158A  216E  120A  118A  	fcall	__Umul8_16
  7516  06B9  1283               	bcf	3,5	;RP0=0, select bank0
  7517  06BA  1303               	bcf	3,6	;RP1=0, select bank0
  7518  06BB  0821               	movf	?__Umul8_16+1,w
  7519  06BC  00DA               	movwf	___flmul@temp+1
  7520  06BD  0820               	movf	?__Umul8_16,w
  7521  06BE  00D9               	movwf	___flmul@temp
  7522  06BF                     l2425:	
  7523  06BF  0859               	movf	___flmul@temp,w
  7524  06C0  00C9               	movwf	??___flmul
  7525  06C1  085A               	movf	___flmul@temp+1,w
  7526  06C2  00CA               	movwf	??___flmul+1
  7527  06C3  01CB               	clrf	??___flmul+2
  7528  06C4  01CC               	clrf	??___flmul+3
  7529  06C5  3008               	movlw	8
  7530  06C6                     u3085:	
  7531  06C6  1003               	clrc
  7532  06C7  0DC9               	rlf	??___flmul,f
  7533  06C8  0DCA               	rlf	??___flmul+1,f
  7534  06C9  0DCB               	rlf	??___flmul+2,f
  7535  06CA  0DCC               	rlf	??___flmul+3,f
  7536  06CB                     u3080:	
  7537  06CB  3EFF               	addlw	-1
  7538  06CC  1D03               	skipz
  7539  06CD  2EC6               	goto	u3085
  7540  06CE  0849               	movf	??___flmul,w
  7541  06CF  07D5               	addwf	___flmul@prod,f
  7542  06D0  084A               	movf	??___flmul+1,w
  7543  06D1  1103               	clrz
  7544  06D2  1803               	skipnc
  7545  06D3  3E01               	addlw	1
  7546  06D4  1903               	skipnz
  7547  06D5  2ED7               	goto	u3091
  7548  06D6  07D6               	addwf	___flmul@prod+1,f
  7549  06D7                     u3091:	
  7550  06D7  084B               	movf	??___flmul+2,w
  7551  06D8  1103               	clrz
  7552  06D9  1803               	skipnc
  7553  06DA  3E01               	addlw	1
  7554  06DB  1903               	skipnz
  7555  06DC  2EDE               	goto	u3092
  7556  06DD  07D7               	addwf	___flmul@prod+2,f
  7557  06DE                     u3092:	
  7558  06DE  084C               	movf	??___flmul+3,w
  7559  06DF  1103               	clrz
  7560  06E0  1803               	skipnc
  7561  06E1  3E01               	addlw	1
  7562  06E2  1903               	skipnz
  7563  06E3  2EE5               	goto	u3093
  7564  06E4  07D8               	addwf	___flmul@prod+3,f
  7565  06E5                     u3093:	
  7566  06E5                     l2427:	
  7567  06E5  084F               	movf	___flmul@grs,w
  7568  06E6  00C9               	movwf	??___flmul
  7569  06E7  0850               	movf	___flmul@grs+1,w
  7570  06E8  00CA               	movwf	??___flmul+1
  7571  06E9  0851               	movf	___flmul@grs+2,w
  7572  06EA  00CB               	movwf	??___flmul+2
  7573  06EB  0852               	movf	___flmul@grs+3,w
  7574  06EC  00CC               	movwf	??___flmul+3
  7575  06ED  3018               	movlw	24
  7576  06EE                     u3105:	
  7577  06EE  1003               	clrc
  7578  06EF  0CCC               	rrf	??___flmul+3,f
  7579  06F0  0CCB               	rrf	??___flmul+2,f
  7580  06F1  0CCA               	rrf	??___flmul+1,f
  7581  06F2  0CC9               	rrf	??___flmul,f
  7582  06F3                     u3100:	
  7583  06F3  3EFF               	addlw	-1
  7584  06F4  1D03               	skipz
  7585  06F5  2EEE               	goto	u3105
  7586  06F6  0849               	movf	??___flmul,w
  7587  06F7  07D5               	addwf	___flmul@prod,f
  7588  06F8  084A               	movf	??___flmul+1,w
  7589  06F9  1103               	clrz
  7590  06FA  1803               	skipnc
  7591  06FB  3E01               	addlw	1
  7592  06FC  1903               	skipnz
  7593  06FD  2EFF               	goto	u3111
  7594  06FE  07D6               	addwf	___flmul@prod+1,f
  7595  06FF                     u3111:	
  7596  06FF  084B               	movf	??___flmul+2,w
  7597  0700  1103               	clrz
  7598  0701  1803               	skipnc
  7599  0702  3E01               	addlw	1
  7600  0703  1903               	skipnz
  7601  0704  2F06               	goto	u3112
  7602  0705  07D7               	addwf	___flmul@prod+2,f
  7603  0706                     u3112:	
  7604  0706  084C               	movf	??___flmul+3,w
  7605  0707  1103               	clrz
  7606  0708  1803               	skipnc
  7607  0709  3E01               	addlw	1
  7608  070A  1903               	skipnz
  7609  070B  2F0D               	goto	u3113
  7610  070C  07D8               	addwf	___flmul@prod+3,f
  7611  070D                     u3113:	
  7612  070D                     l2429:	
  7613  070D  3008               	movlw	8
  7614  070E  00C9               	movwf	??___flmul
  7615  070F                     u3125:	
  7616  070F  1003               	clrc
  7617  0710  0DCF               	rlf	___flmul@grs,f
  7618  0711  0DD0               	rlf	___flmul@grs+1,f
  7619  0712  0DD1               	rlf	___flmul@grs+2,f
  7620  0713  0DD2               	rlf	___flmul@grs+3,f
  7621  0714  0BC9               	decfsz	??___flmul,f
  7622  0715  2F0F               	goto	u3125
  7623  0716                     l2431:	
  7624  0716  0854               	movf	___flmul@bexp,w
  7625  0717  0753               	addwf	___flmul@aexp,w
  7626  0718  00C9               	movwf	??___flmul
  7627  0719  01CA               	clrf	??___flmul+1
  7628  071A  0DCA               	rlf	??___flmul+1,f
  7629  071B  0849               	movf	??___flmul,w
  7630  071C  3E82               	addlw	130
  7631  071D  00D9               	movwf	___flmul@temp
  7632  071E  084A               	movf	??___flmul+1,w
  7633  071F  1803               	skipnc
  7634  0720  3E01               	addlw	1
  7635  0721  3EFF               	addlw	255
  7636  0722  00DA               	movwf	___flmul@temp+1
  7637  0723  2F41               	goto	l2443
  7638  0724                     l2433:	
  7639  0724  3001               	movlw	1
  7640  0725  00C9               	movwf	??___flmul
  7641  0726                     u3135:	
  7642  0726  1003               	clrc
  7643  0727  0DD5               	rlf	___flmul@prod,f
  7644  0728  0DD6               	rlf	___flmul@prod+1,f
  7645  0729  0DD7               	rlf	___flmul@prod+2,f
  7646  072A  0DD8               	rlf	___flmul@prod+3,f
  7647  072B  0BC9               	decfsz	??___flmul,f
  7648  072C  2F26               	goto	u3135
  7649  072D                     l2435:	
  7650  072D  1FD2               	btfss	___flmul@grs+3,7
  7651  072E  2F30               	goto	u3141
  7652  072F  2F31               	goto	u3140
  7653  0730                     u3141:	
  7654  0730  2F32               	goto	l2439
  7655  0731                     u3140:	
  7656  0731                     l2437:	
  7657  0731  1455               	bsf	___flmul@prod,0
  7658  0732                     l2439:	
  7659  0732  3001               	movlw	1
  7660  0733  00C9               	movwf	??___flmul
  7661  0734                     u3155:	
  7662  0734  1003               	clrc
  7663  0735  0DCF               	rlf	___flmul@grs,f
  7664  0736  0DD0               	rlf	___flmul@grs+1,f
  7665  0737  0DD1               	rlf	___flmul@grs+2,f
  7666  0738  0DD2               	rlf	___flmul@grs+3,f
  7667  0739  0BC9               	decfsz	??___flmul,f
  7668  073A  2F34               	goto	u3155
  7669  073B                     l2441:	
  7670  073B  30FF               	movlw	255
  7671  073C  07D9               	addwf	___flmul@temp,f
  7672  073D  1803               	skipnc
  7673  073E  0ADA               	incf	___flmul@temp+1,f
  7674  073F  30FF               	movlw	255
  7675  0740  07DA               	addwf	___flmul@temp+1,f
  7676  0741                     l2443:	
  7677  0741  1FD7               	btfss	___flmul@prod+2,7
  7678  0742  2F44               	goto	u3161
  7679  0743  2F45               	goto	u3160
  7680  0744                     u3161:	
  7681  0744  2F24               	goto	l2433
  7682  0745                     u3160:	
  7683  0745                     l2445:	
  7684  0745  01D3               	clrf	___flmul@aexp
  7685  0746                     l2447:	
  7686  0746  1FD2               	btfss	___flmul@grs+3,7
  7687  0747  2F49               	goto	u3171
  7688  0748  2F4A               	goto	u3170
  7689  0749                     u3171:	
  7690  0749  2F66               	goto	l2455
  7691  074A                     u3170:	
  7692  074A                     l2449:	
  7693  074A  30FF               	movlw	255
  7694  074B  054F               	andwf	___flmul@grs,w
  7695  074C  00C9               	movwf	??___flmul
  7696  074D  30FF               	movlw	255
  7697  074E  0550               	andwf	___flmul@grs+1,w
  7698  074F  00CA               	movwf	??___flmul+1
  7699  0750  30FF               	movlw	255
  7700  0751  0551               	andwf	___flmul@grs+2,w
  7701  0752  00CB               	movwf	??___flmul+2
  7702  0753  307F               	movlw	127
  7703  0754  0552               	andwf	___flmul@grs+3,w
  7704  0755  00CC               	movwf	??___flmul+3
  7705  0756  084C               	movf	??___flmul+3,w
  7706  0757  044B               	iorwf	??___flmul+2,w
  7707  0758  044A               	iorwf	??___flmul+1,w
  7708  0759  0449               	iorwf	??___flmul,w
  7709  075A  1903               	skipnz
  7710  075B  2F5D               	goto	u3181
  7711  075C  2F5E               	goto	u3180
  7712  075D                     u3181:	
  7713  075D  2F61               	goto	l651
  7714  075E                     u3180:	
  7715  075E                     l2451:	
  7716  075E  01D3               	clrf	___flmul@aexp
  7717  075F  0AD3               	incf	___flmul@aexp,f
  7718  0760  2F66               	goto	l2455
  7719  0761                     l651:	
  7720  0761  1C55               	btfss	___flmul@prod,0
  7721  0762  2F64               	goto	u3191
  7722  0763  2F65               	goto	u3190
  7723  0764                     u3191:	
  7724  0764  2F66               	goto	l2455
  7725  0765                     u3190:	
  7726  0765  2F5E               	goto	l2451
  7727  0766                     l2455:	
  7728  0766  0853               	movf	___flmul@aexp,w
  7729  0767  1903               	btfsc	3,2
  7730  0768  2F6A               	goto	u3201
  7731  0769  2F6B               	goto	u3200
  7732  076A                     u3201:	
  7733  076A  2F9C               	goto	l2465
  7734  076B                     u3200:	
  7735  076B                     l2457:	
  7736  076B  3001               	movlw	1
  7737  076C  07D5               	addwf	___flmul@prod,f
  7738  076D  3000               	movlw	0
  7739  076E  1803               	skipnc
  7740  076F  3001               	movlw	1
  7741  0770  07D6               	addwf	___flmul@prod+1,f
  7742  0771  3000               	movlw	0
  7743  0772  1803               	skipnc
  7744  0773  3001               	movlw	1
  7745  0774  07D7               	addwf	___flmul@prod+2,f
  7746  0775  3000               	movlw	0
  7747  0776  1803               	skipnc
  7748  0777  3001               	movlw	1
  7749  0778  07D8               	addwf	___flmul@prod+3,f
  7750  0779                     l2459:	
  7751  0779  1C58               	btfss	___flmul@prod+3,0
  7752  077A  2F7C               	goto	u3211
  7753  077B  2F7D               	goto	u3210
  7754  077C                     u3211:	
  7755  077C  2F9C               	goto	l2465
  7756  077D                     u3210:	
  7757  077D                     l2461:	
  7758  077D  0855               	movf	___flmul@prod,w
  7759  077E  00C9               	movwf	??___flmul
  7760  077F  0856               	movf	___flmul@prod+1,w
  7761  0780  00CA               	movwf	??___flmul+1
  7762  0781  0857               	movf	___flmul@prod+2,w
  7763  0782  00CB               	movwf	??___flmul+2
  7764  0783  0858               	movf	___flmul@prod+3,w
  7765  0784  00CC               	movwf	??___flmul+3
  7766  0785  3001               	movlw	1
  7767  0786  00CD               	movwf	??___flmul+4
  7768  0787                     u3225:	
  7769  0787  0D4C               	rlf	??___flmul+3,w
  7770  0788  0CCC               	rrf	??___flmul+3,f
  7771  0789  0CCB               	rrf	??___flmul+2,f
  7772  078A  0CCA               	rrf	??___flmul+1,f
  7773  078B  0CC9               	rrf	??___flmul,f
  7774  078C                     u3220:	
  7775  078C  0BCD               	decfsz	??___flmul+4,f
  7776  078D  2F87               	goto	u3225
  7777  078E  084C               	movf	??___flmul+3,w
  7778  078F  00D8               	movwf	___flmul@prod+3
  7779  0790  084B               	movf	??___flmul+2,w
  7780  0791  00D7               	movwf	___flmul@prod+2
  7781  0792  084A               	movf	??___flmul+1,w
  7782  0793  00D6               	movwf	___flmul@prod+1
  7783  0794  0849               	movf	??___flmul,w
  7784  0795  00D5               	movwf	___flmul@prod
  7785  0796                     l2463:	
  7786  0796  3001               	movlw	1
  7787  0797  07D9               	addwf	___flmul@temp,f
  7788  0798  1803               	skipnc
  7789  0799  0ADA               	incf	___flmul@temp+1,f
  7790  079A  3000               	movlw	0
  7791  079B  07DA               	addwf	___flmul@temp+1,f
  7792  079C                     l2465:	
  7793  079C  085A               	movf	___flmul@temp+1,w
  7794  079D  3A80               	xorlw	128
  7795  079E  00FF               	movwf	btemp+1
  7796  079F  3080               	movlw	128
  7797  07A0  027F               	subwf	btemp+1,w
  7798  07A1  1D03               	skipz
  7799  07A2  2FA5               	goto	u3235
  7800  07A3  30FF               	movlw	255
  7801  07A4  0259               	subwf	___flmul@temp,w
  7802  07A5                     u3235:	
  7803  07A5  1C03               	skipc
  7804  07A6  2FA8               	goto	u3231
  7805  07A7  2FA9               	goto	u3230
  7806  07A8                     u3231:	
  7807  07A8  2FB4               	goto	l2469
  7808  07A9                     u3230:	
  7809  07A9                     l2467:	
  7810  07A9  307F               	movlw	127
  7811  07AA  1283               	bcf	3,5	;RP0=0, select bank0
  7812  07AB  1303               	bcf	3,6	;RP1=0, select bank0
  7813  07AC  00D8               	movwf	___flmul@prod+3
  7814  07AD  3080               	movlw	128
  7815  07AE  00D7               	movwf	___flmul@prod+2
  7816  07AF  3000               	movlw	0
  7817  07B0  00D6               	movwf	___flmul@prod+1
  7818  07B1  3000               	movlw	0
  7819  07B2  00D5               	movwf	___flmul@prod
  7820  07B3  2FE9               	goto	l657
  7821  07B4                     l2469:	
  7822  07B4  1283               	bcf	3,5	;RP0=0, select bank0
  7823  07B5  1303               	bcf	3,6	;RP1=0, select bank0
  7824  07B6  085A               	movf	___flmul@temp+1,w
  7825  07B7  3A80               	xorlw	128
  7826  07B8  00FF               	movwf	btemp+1
  7827  07B9  3080               	movlw	128
  7828  07BA  027F               	subwf	btemp+1,w
  7829  07BB  1D03               	skipz
  7830  07BC  2FBF               	goto	u3245
  7831  07BD  3001               	movlw	1
  7832  07BE  0259               	subwf	___flmul@temp,w
  7833  07BF                     u3245:	
  7834  07BF  1803               	skipnc
  7835  07C0  2FC2               	goto	u3241
  7836  07C1  2FC3               	goto	u3240
  7837  07C2                     u3241:	
  7838  07C2  2FCF               	goto	l2475
  7839  07C3                     u3240:	
  7840  07C3                     l2471:	
  7841  07C3  3000               	movlw	0
  7842  07C4  1283               	bcf	3,5	;RP0=0, select bank0
  7843  07C5  1303               	bcf	3,6	;RP1=0, select bank0
  7844  07C6  00D8               	movwf	___flmul@prod+3
  7845  07C7  3000               	movlw	0
  7846  07C8  00D7               	movwf	___flmul@prod+2
  7847  07C9  3000               	movlw	0
  7848  07CA  00D6               	movwf	___flmul@prod+1
  7849  07CB  3000               	movlw	0
  7850  07CC  00D5               	movwf	___flmul@prod
  7851  07CD                     l2473:	
  7852  07CD  01CE               	clrf	___flmul@sign
  7853  07CE  2FE9               	goto	l657
  7854  07CF                     l2475:	
  7855  07CF  1283               	bcf	3,5	;RP0=0, select bank0
  7856  07D0  1303               	bcf	3,6	;RP1=0, select bank0
  7857  07D1  0859               	movf	___flmul@temp,w
  7858  07D2  00C9               	movwf	??___flmul
  7859  07D3  0849               	movf	??___flmul,w
  7860  07D4  00D4               	movwf	___flmul@bexp
  7861  07D5  30FF               	movlw	255
  7862  07D6  05D5               	andwf	___flmul@prod,f
  7863  07D7  30FF               	movlw	255
  7864  07D8  05D6               	andwf	___flmul@prod+1,f
  7865  07D9  307F               	movlw	127
  7866  07DA  05D7               	andwf	___flmul@prod+2,f
  7867  07DB  3000               	movlw	0
  7868  07DC  05D8               	andwf	___flmul@prod+3,f
  7869  07DD                     l2477:	
  7870  07DD  1C54               	btfss	___flmul@bexp,0
  7871  07DE  2FE0               	goto	u3251
  7872  07DF  2FE1               	goto	u3250
  7873  07E0                     u3251:	
  7874  07E0  2FE2               	goto	l2481
  7875  07E1                     u3250:	
  7876  07E1                     l2479:	
  7877  07E1  17D7               	bsf	___flmul@prod+2,7
  7878  07E2                     l2481:	
  7879  07E2  0854               	movf	___flmul@bexp,w
  7880  07E3  00C9               	movwf	??___flmul
  7881  07E4  1003               	clrc
  7882  07E5  0C49               	rrf	??___flmul,w
  7883  07E6  00CA               	movwf	??___flmul+1
  7884  07E7  084A               	movf	??___flmul+1,w
  7885  07E8  00D8               	movwf	___flmul@prod+3
  7886  07E9                     l657:	
  7887  07E9  084E               	movf	___flmul@sign,w
  7888  07EA  00C9               	movwf	??___flmul
  7889  07EB  0849               	movf	??___flmul,w
  7890  07EC  04D8               	iorwf	___flmul@prod+3,f
  7891  07ED                     l2483:	
  7892  07ED  0858               	movf	___flmul@prod+3,w
  7893  07EE  00C4               	movwf	?___flmul+3
  7894  07EF  0857               	movf	___flmul@prod+2,w
  7895  07F0  00C3               	movwf	?___flmul+2
  7896  07F1  0856               	movf	___flmul@prod+1,w
  7897  07F2  00C2               	movwf	?___flmul+1
  7898  07F3  0855               	movf	___flmul@prod,w
  7899  07F4  00C1               	movwf	?___flmul
  7900  07F5                     l645:	
  7901  07F5  0008               	return
  7902  07F6                     __end_of___flmul:	
  7903                           
  7904                           	psect	text19
  7905  196E                     __ptext19:	
  7906 ;; *************** function __Umul8_16 *****************
  7907 ;; Defined at:
  7908 ;;		line 4 in file "C:\Program Files (x86)\Microchip\xc8\v2.10\pic\sources\c90\common\Umul8_16.c"
  7909 ;; Parameters:    Size  Location     Type
  7910 ;;  multiplier      1    wreg     unsigned char 
  7911 ;;  multiplicand    1    0[BANK0 ] unsigned char 
  7912 ;; Auto vars:     Size  Location     Type
  7913 ;;  multiplier      1    8[BANK0 ] unsigned char 
  7914 ;;  word_mpld       2    6[BANK0 ] unsigned int 
  7915 ;;  product         2    4[BANK0 ] unsigned int 
  7916 ;; Return value:  Size  Location     Type
  7917 ;;                  2    0[BANK0 ] unsigned int 
  7918 ;; Registers used:
  7919 ;;		wreg, status,2, status,0
  7920 ;; Tracked objects:
  7921 ;;		On entry : 0/0
  7922 ;;		On exit  : 0/0
  7923 ;;		Unchanged: 0/0
  7924 ;; Data sizes:     COMMON   BANK0   BANK1   BANK3   BANK2
  7925 ;;      Params:         0       2       0       0       0
  7926 ;;      Locals:         0       5       0       0       0
  7927 ;;      Temps:          0       2       0       0       0
  7928 ;;      Totals:         0       9       0       0       0
  7929 ;;Total ram usage:        9 bytes
  7930 ;; Hardware stack levels used:    1
  7931 ;; Hardware stack levels required when called:    2
  7932 ;; This function calls:
  7933 ;;		Nothing
  7934 ;; This function is called by:
  7935 ;;		___flmul
  7936 ;; This function uses a non-reentrant model
  7937 ;;
  7938                           
  7939                           
  7940                           ;psect for function __Umul8_16
  7941  196E                     __Umul8_16:	
  7942                           
  7943                           ;incstack = 0
  7944                           ; Regs used in __Umul8_16: [wreg+status,2+status,0]
  7945                           ;__Umul8_16@multiplier stored from wreg
  7946  196E  1283               	bcf	3,5	;RP0=0, select bank0
  7947  196F  1303               	bcf	3,6	;RP1=0, select bank0
  7948  1970  00A8               	movwf	__Umul8_16@multiplier
  7949  1971                     l2083:	
  7950  1971  01A4               	clrf	__Umul8_16@product
  7951  1972  01A5               	clrf	__Umul8_16@product+1
  7952  1973                     l2085:	
  7953  1973  0820               	movf	__Umul8_16@multiplicand,w
  7954  1974  00A2               	movwf	??__Umul8_16
  7955  1975  01A3               	clrf	??__Umul8_16+1
  7956  1976  0822               	movf	??__Umul8_16,w
  7957  1977  00A6               	movwf	__Umul8_16@word_mpld
  7958  1978  0823               	movf	??__Umul8_16+1,w
  7959  1979  00A7               	movwf	__Umul8_16@word_mpld+1
  7960  197A                     l2087:	
  7961  197A  1C28               	btfss	__Umul8_16@multiplier,0
  7962  197B  297D               	goto	u2231
  7963  197C  297E               	goto	u2230
  7964  197D                     u2231:	
  7965  197D  2984               	goto	l717
  7966  197E                     u2230:	
  7967  197E                     l2089:	
  7968  197E  0826               	movf	__Umul8_16@word_mpld,w
  7969  197F  07A4               	addwf	__Umul8_16@product,f
  7970  1980  1803               	skipnc
  7971  1981  0AA5               	incf	__Umul8_16@product+1,f
  7972  1982  0827               	movf	__Umul8_16@word_mpld+1,w
  7973  1983  07A5               	addwf	__Umul8_16@product+1,f
  7974  1984                     l717:	
  7975  1984  3001               	movlw	1
  7976  1985                     u2245:	
  7977  1985  1003               	clrc
  7978  1986  0DA6               	rlf	__Umul8_16@word_mpld,f
  7979  1987  0DA7               	rlf	__Umul8_16@word_mpld+1,f
  7980  1988  3EFF               	addlw	-1
  7981  1989  1D03               	skipz
  7982  198A  2985               	goto	u2245
  7983  198B  1003               	clrc
  7984  198C  0CA8               	rrf	__Umul8_16@multiplier,f
  7985  198D                     l2091:	
  7986  198D  0828               	movf	__Umul8_16@multiplier,w
  7987  198E  1D03               	btfss	3,2
  7988  198F  2991               	goto	u2251
  7989  1990  2992               	goto	u2250
  7990  1991                     u2251:	
  7991  1991  297A               	goto	l2087
  7992  1992                     u2250:	
  7993  1992                     l2093:	
  7994  1992  0825               	movf	__Umul8_16@product+1,w
  7995  1993  00A1               	movwf	?__Umul8_16+1
  7996  1994  0824               	movf	__Umul8_16@product,w
  7997  1995  00A0               	movwf	?__Umul8_16
  7998  1996                     l719:	
  7999  1996  0008               	return
  8000  1997                     __end_of__Umul8_16:	
  8001                           
  8002                           	psect	text20
  8003  1A46                     __ptext20:	
  8004 ;; *************** function ___flsub *****************
  8005 ;; Defined at:
  8006 ;;		line 242 in file "C:\Program Files (x86)\Microchip\xc8\v2.10\pic\sources\c90\common\sprcadd.c"
  8007 ;; Parameters:    Size  Location     Type
  8008 ;;  a               4   25[BANK1 ] unsigned int 
  8009 ;;  b               4   29[BANK1 ] unsigned int 
  8010 ;; Auto vars:     Size  Location     Type
  8011 ;;		None
  8012 ;; Return value:  Size  Location     Type
  8013 ;;                  4   25[BANK1 ] unsigned int 
  8014 ;; Registers used:
  8015 ;;		wreg, status,2, status,0, btemp+1, pclath, cstack
  8016 ;; Tracked objects:
  8017 ;;		On entry : 0/0
  8018 ;;		On exit  : 0/0
  8019 ;;		Unchanged: 0/0
  8020 ;; Data sizes:     COMMON   BANK0   BANK1   BANK3   BANK2
  8021 ;;      Params:         0       0       8       0       0
  8022 ;;      Locals:         0       0       0       0       0
  8023 ;;      Temps:          0       0       0       0       0
  8024 ;;      Totals:         0       0       8       0       0
  8025 ;;Total ram usage:        8 bytes
  8026 ;; Hardware stack levels used:    1
  8027 ;; Hardware stack levels required when called:    3
  8028 ;; This function calls:
  8029 ;;		___fladd
  8030 ;; This function is called by:
  8031 ;;		_main
  8032 ;;		_ftoa
  8033 ;;		_exp
  8034 ;; This function uses a non-reentrant model
  8035 ;;
  8036                           
  8037                           
  8038                           ;psect for function ___flsub
  8039  1A46                     ___flsub:	
  8040  1A46                     l3259:	
  8041                           ;incstack = 0
  8042                           ; Regs used in ___flsub: [wreg+status,2+status,0+btemp+1+pclath+cstack]
  8043                           
  8044  1A46  3080               	movlw	128
  8045  1A47  1683               	bsf	3,5	;RP0=1, select bank1
  8046  1A48  1303               	bcf	3,6	;RP1=0, select bank1
  8047  1A49  06BC               	xorwf	(___flsub@a+3)^(0+128),f
  8048  1A4A                     l3261:	
  8049  1A4A  0840               	movf	(___flsub@b+3)^(0+128),w
  8050  1A4B  1283               	bcf	3,5	;RP0=0, select bank0
  8051  1A4C  1303               	bcf	3,6	;RP1=0, select bank0
  8052  1A4D  00EB               	movwf	___fladd@b+3
  8053  1A4E  1683               	bsf	3,5	;RP0=1, select bank1
  8054  1A4F  1303               	bcf	3,6	;RP1=0, select bank1
  8055  1A50  083F               	movf	(___flsub@b+2)^(0+128),w
  8056  1A51  1283               	bcf	3,5	;RP0=0, select bank0
  8057  1A52  1303               	bcf	3,6	;RP1=0, select bank0
  8058  1A53  00EA               	movwf	___fladd@b+2
  8059  1A54  1683               	bsf	3,5	;RP0=1, select bank1
  8060  1A55  1303               	bcf	3,6	;RP1=0, select bank1
  8061  1A56  083E               	movf	(___flsub@b+1)^(0+128),w
  8062  1A57  1283               	bcf	3,5	;RP0=0, select bank0
  8063  1A58  1303               	bcf	3,6	;RP1=0, select bank0
  8064  1A59  00E9               	movwf	___fladd@b+1
  8065  1A5A  1683               	bsf	3,5	;RP0=1, select bank1
  8066  1A5B  1303               	bcf	3,6	;RP1=0, select bank1
  8067  1A5C  083D               	movf	___flsub@b^(0+128),w
  8068  1A5D  1283               	bcf	3,5	;RP0=0, select bank0
  8069  1A5E  1303               	bcf	3,6	;RP1=0, select bank0
  8070  1A5F  00E8               	movwf	___fladd@b
  8071  1A60  1683               	bsf	3,5	;RP0=1, select bank1
  8072  1A61  1303               	bcf	3,6	;RP1=0, select bank1
  8073  1A62  083C               	movf	(___flsub@a+3)^(0+128),w
  8074  1A63  1283               	bcf	3,5	;RP0=0, select bank0
  8075  1A64  1303               	bcf	3,6	;RP1=0, select bank0
  8076  1A65  00EF               	movwf	___fladd@a+3
  8077  1A66  1683               	bsf	3,5	;RP0=1, select bank1
  8078  1A67  1303               	bcf	3,6	;RP1=0, select bank1
  8079  1A68  083B               	movf	(___flsub@a+2)^(0+128),w
  8080  1A69  1283               	bcf	3,5	;RP0=0, select bank0
  8081  1A6A  1303               	bcf	3,6	;RP1=0, select bank0
  8082  1A6B  00EE               	movwf	___fladd@a+2
  8083  1A6C  1683               	bsf	3,5	;RP0=1, select bank1
  8084  1A6D  1303               	bcf	3,6	;RP1=0, select bank1
  8085  1A6E  083A               	movf	(___flsub@a+1)^(0+128),w
  8086  1A6F  1283               	bcf	3,5	;RP0=0, select bank0
  8087  1A70  1303               	bcf	3,6	;RP1=0, select bank0
  8088  1A71  00ED               	movwf	___fladd@a+1
  8089  1A72  1683               	bsf	3,5	;RP0=1, select bank1
  8090  1A73  1303               	bcf	3,6	;RP1=0, select bank1
  8091  1A74  0839               	movf	___flsub@a^(0+128),w
  8092  1A75  1283               	bcf	3,5	;RP0=0, select bank0
  8093  1A76  1303               	bcf	3,6	;RP1=0, select bank0
  8094  1A77  00EC               	movwf	___fladd@a
  8095  1A78  120A  158A  247C  160A  158A  	fcall	___fladd
  8096  1A7D  1283               	bcf	3,5	;RP0=0, select bank0
  8097  1A7E  1303               	bcf	3,6	;RP1=0, select bank0
  8098  1A7F  086B               	movf	?___fladd+3,w
  8099  1A80  1683               	bsf	3,5	;RP0=1, select bank1
  8100  1A81  1303               	bcf	3,6	;RP1=0, select bank1
  8101  1A82  00BC               	movwf	(?___flsub+3)^(0+128)
  8102  1A83  1283               	bcf	3,5	;RP0=0, select bank0
  8103  1A84  1303               	bcf	3,6	;RP1=0, select bank0
  8104  1A85  086A               	movf	?___fladd+2,w
  8105  1A86  1683               	bsf	3,5	;RP0=1, select bank1
  8106  1A87  1303               	bcf	3,6	;RP1=0, select bank1
  8107  1A88  00BB               	movwf	(?___flsub+2)^(0+128)
  8108  1A89  1283               	bcf	3,5	;RP0=0, select bank0
  8109  1A8A  1303               	bcf	3,6	;RP1=0, select bank0
  8110  1A8B  0869               	movf	?___fladd+1,w
  8111  1A8C  1683               	bsf	3,5	;RP0=1, select bank1
  8112  1A8D  1303               	bcf	3,6	;RP1=0, select bank1
  8113  1A8E  00BA               	movwf	(?___flsub+1)^(0+128)
  8114  1A8F  1283               	bcf	3,5	;RP0=0, select bank0
  8115  1A90  1303               	bcf	3,6	;RP1=0, select bank0
  8116  1A91  0868               	movf	?___fladd,w
  8117  1A92  1683               	bsf	3,5	;RP0=1, select bank1
  8118  1A93  1303               	bcf	3,6	;RP1=0, select bank1
  8119  1A94  00B9               	movwf	?___flsub^(0+128)
  8120  1A95                     l595:	
  8121  1A95  0008               	return
  8122  1A96                     __end_of___flsub:	
  8123                           
  8124                           	psect	text21
  8125  0C7C                     __ptext21:	
  8126 ;; *************** function ___fladd *****************
  8127 ;; Defined at:
  8128 ;;		line 10 in file "C:\Program Files (x86)\Microchip\xc8\v2.10\pic\sources\c90\common\sprcadd.c"
  8129 ;; Parameters:    Size  Location     Type
  8130 ;;  b               4   72[BANK0 ] unsigned int 
  8131 ;;  a               4   76[BANK0 ] unsigned int 
  8132 ;; Auto vars:     Size  Location     Type
  8133 ;;  grs             1   24[BANK1 ] unsigned char 
  8134 ;;  bexp            1   23[BANK1 ] unsigned char 
  8135 ;;  aexp            1   22[BANK1 ] unsigned char 
  8136 ;;  signs           1   21[BANK1 ] unsigned char 
  8137 ;; Return value:  Size  Location     Type
  8138 ;;                  4   72[BANK0 ] unsigned char 
  8139 ;; Registers used:
  8140 ;;		wreg, status,2, status,0, btemp+1
  8141 ;; Tracked objects:
  8142 ;;		On entry : 0/0
  8143 ;;		On exit  : 0/0
  8144 ;;		Unchanged: 0/0
  8145 ;; Data sizes:     COMMON   BANK0   BANK1   BANK3   BANK2
  8146 ;;      Params:         0       8       0       0       0
  8147 ;;      Locals:         0       0       4       0       0
  8148 ;;      Temps:          0       0       8       0       0
  8149 ;;      Totals:         0       8      12       0       0
  8150 ;;Total ram usage:       20 bytes
  8151 ;; Hardware stack levels used:    1
  8152 ;; Hardware stack levels required when called:    2
  8153 ;; This function calls:
  8154 ;;		Nothing
  8155 ;; This function is called by:
  8156 ;;		_main
  8157 ;;		___flsub
  8158 ;;		_floor
  8159 ;;		_log
  8160 ;;		_eval_poly
  8161 ;; This function uses a non-reentrant model
  8162 ;;
  8163                           
  8164                           
  8165                           ;psect for function ___fladd
  8166  0C7C                     ___fladd:	
  8167  0C7C                     l2153:	
  8168                           ;incstack = 0
  8169                           ; Regs used in ___fladd: [wreg+status,2+status,0+btemp+1]
  8170                           
  8171  0C7C  1283               	bcf	3,5	;RP0=0, select bank0
  8172  0C7D  1303               	bcf	3,6	;RP1=0, select bank0
  8173  0C7E  086B               	movf	___fladd@b+3,w
  8174  0C7F  3980               	andlw	128
  8175  0C80  1683               	bsf	3,5	;RP0=1, select bank1
  8176  0C81  1303               	bcf	3,6	;RP1=0, select bank1
  8177  0C82  00AD               	movwf	??___fladd^(0+128)
  8178  0C83  082D               	movf	??___fladd^(0+128),w
  8179  0C84  00B5               	movwf	___fladd@signs^(0+128)
  8180  0C85                     l2155:	
  8181  0C85  1283               	bcf	3,5	;RP0=0, select bank0
  8182  0C86  1303               	bcf	3,6	;RP1=0, select bank0
  8183  0C87  086B               	movf	___fladd@b+3,w
  8184  0C88  1683               	bsf	3,5	;RP0=1, select bank1
  8185  0C89  1303               	bcf	3,6	;RP1=0, select bank1
  8186  0C8A  00AD               	movwf	??___fladd^(0+128)
  8187  0C8B  072D               	addwf	??___fladd^(0+128),w
  8188  0C8C  00AE               	movwf	(??___fladd+1)^(0+128)
  8189  0C8D  082E               	movf	(??___fladd+1)^(0+128),w
  8190  0C8E  00B7               	movwf	___fladd@bexp^(0+128)
  8191  0C8F                     l2157:	
  8192  0C8F  1283               	bcf	3,5	;RP0=0, select bank0
  8193  0C90  1303               	bcf	3,6	;RP1=0, select bank0
  8194  0C91  1FEA               	btfss	___fladd@b+2,7
  8195  0C92  2C94               	goto	u2431
  8196  0C93  2C95               	goto	u2430
  8197  0C94                     u2431:	
  8198  0C94  2C98               	goto	l2161
  8199  0C95                     u2430:	
  8200  0C95                     l2159:	
  8201  0C95  1683               	bsf	3,5	;RP0=1, select bank1
  8202  0C96  1303               	bcf	3,6	;RP1=0, select bank1
  8203  0C97  1437               	bsf	___fladd@bexp^(0+128),0
  8204  0C98                     l2161:	
  8205  0C98  1683               	bsf	3,5	;RP0=1, select bank1
  8206  0C99  1303               	bcf	3,6	;RP1=0, select bank1
  8207  0C9A  0837               	movf	___fladd@bexp^(0+128),w
  8208  0C9B  1903               	btfsc	3,2
  8209  0C9C  2C9E               	goto	u2441
  8210  0C9D  2C9F               	goto	u2440
  8211  0C9E                     u2441:	
  8212  0C9E  2CB2               	goto	l2171
  8213  0C9F                     u2440:	
  8214  0C9F                     l2163:	
  8215  0C9F  0A37               	incf	___fladd@bexp^(0+128),w
  8216  0CA0  1D03               	btfss	3,2
  8217  0CA1  2CA3               	goto	u2451
  8218  0CA2  2CA4               	goto	u2450
  8219  0CA3                     u2451:	
  8220  0CA3  2CAE               	goto	l2167
  8221  0CA4                     u2450:	
  8222  0CA4                     l2165:	
  8223  0CA4  3000               	movlw	0
  8224  0CA5  1283               	bcf	3,5	;RP0=0, select bank0
  8225  0CA6  1303               	bcf	3,6	;RP1=0, select bank0
  8226  0CA7  00EB               	movwf	___fladd@b+3
  8227  0CA8  3000               	movlw	0
  8228  0CA9  00EA               	movwf	___fladd@b+2
  8229  0CAA  3000               	movlw	0
  8230  0CAB  00E9               	movwf	___fladd@b+1
  8231  0CAC  3000               	movlw	0
  8232  0CAD  00E8               	movwf	___fladd@b
  8233  0CAE                     l2167:	
  8234  0CAE  1283               	bcf	3,5	;RP0=0, select bank0
  8235  0CAF  17EA               	bsf	___fladd@b+2,7
  8236  0CB0                     l2169:	
  8237  0CB0  01EB               	clrf	___fladd@b+3
  8238  0CB1  2CBC               	goto	l2173
  8239  0CB2                     l2171:	
  8240  0CB2  3000               	movlw	0
  8241  0CB3  1283               	bcf	3,5	;RP0=0, select bank0
  8242  0CB4  1303               	bcf	3,6	;RP1=0, select bank0
  8243  0CB5  00EB               	movwf	___fladd@b+3
  8244  0CB6  3000               	movlw	0
  8245  0CB7  00EA               	movwf	___fladd@b+2
  8246  0CB8  3000               	movlw	0
  8247  0CB9  00E9               	movwf	___fladd@b+1
  8248  0CBA  3000               	movlw	0
  8249  0CBB  00E8               	movwf	___fladd@b
  8250  0CBC                     l2173:	
  8251  0CBC  086F               	movf	___fladd@a+3,w
  8252  0CBD  3980               	andlw	128
  8253  0CBE  1683               	bsf	3,5	;RP0=1, select bank1
  8254  0CBF  1303               	bcf	3,6	;RP1=0, select bank1
  8255  0CC0  00AD               	movwf	??___fladd^(0+128)
  8256  0CC1  082D               	movf	??___fladd^(0+128),w
  8257  0CC2  00B6               	movwf	___fladd@aexp^(0+128)
  8258  0CC3                     l2175:	
  8259  0CC3  0836               	movf	___fladd@aexp^(0+128),w
  8260  0CC4  0635               	xorwf	___fladd@signs^(0+128),w
  8261  0CC5  1903               	skipnz
  8262  0CC6  2CC8               	goto	u2461
  8263  0CC7  2CC9               	goto	u2460
  8264  0CC8                     u2461:	
  8265  0CC8  2CCA               	goto	l2179
  8266  0CC9                     u2460:	
  8267  0CC9                     l2177:	
  8268  0CC9  1735               	bsf	___fladd@signs^(0+128),6
  8269  0CCA                     l2179:	
  8270  0CCA  1283               	bcf	3,5	;RP0=0, select bank0
  8271  0CCB  1303               	bcf	3,6	;RP1=0, select bank0
  8272  0CCC  086F               	movf	___fladd@a+3,w
  8273  0CCD  1683               	bsf	3,5	;RP0=1, select bank1
  8274  0CCE  1303               	bcf	3,6	;RP1=0, select bank1
  8275  0CCF  00AD               	movwf	??___fladd^(0+128)
  8276  0CD0  072D               	addwf	??___fladd^(0+128),w
  8277  0CD1  00AE               	movwf	(??___fladd+1)^(0+128)
  8278  0CD2  082E               	movf	(??___fladd+1)^(0+128),w
  8279  0CD3  00B6               	movwf	___fladd@aexp^(0+128)
  8280  0CD4                     l2181:	
  8281  0CD4  1283               	bcf	3,5	;RP0=0, select bank0
  8282  0CD5  1303               	bcf	3,6	;RP1=0, select bank0
  8283  0CD6  1FEE               	btfss	___fladd@a+2,7
  8284  0CD7  2CD9               	goto	u2471
  8285  0CD8  2CDA               	goto	u2470
  8286  0CD9                     u2471:	
  8287  0CD9  2CDD               	goto	l2185
  8288  0CDA                     u2470:	
  8289  0CDA                     l2183:	
  8290  0CDA  1683               	bsf	3,5	;RP0=1, select bank1
  8291  0CDB  1303               	bcf	3,6	;RP1=0, select bank1
  8292  0CDC  1436               	bsf	___fladd@aexp^(0+128),0
  8293  0CDD                     l2185:	
  8294  0CDD  1683               	bsf	3,5	;RP0=1, select bank1
  8295  0CDE  1303               	bcf	3,6	;RP1=0, select bank1
  8296  0CDF  0836               	movf	___fladd@aexp^(0+128),w
  8297  0CE0  1903               	btfsc	3,2
  8298  0CE1  2CE3               	goto	u2481
  8299  0CE2  2CE4               	goto	u2480
  8300  0CE3                     u2481:	
  8301  0CE3  2CF7               	goto	l2195
  8302  0CE4                     u2480:	
  8303  0CE4                     l2187:	
  8304  0CE4  0A36               	incf	___fladd@aexp^(0+128),w
  8305  0CE5  1D03               	btfss	3,2
  8306  0CE6  2CE8               	goto	u2491
  8307  0CE7  2CE9               	goto	u2490
  8308  0CE8                     u2491:	
  8309  0CE8  2CF3               	goto	l2191
  8310  0CE9                     u2490:	
  8311  0CE9                     l2189:	
  8312  0CE9  3000               	movlw	0
  8313  0CEA  1283               	bcf	3,5	;RP0=0, select bank0
  8314  0CEB  1303               	bcf	3,6	;RP1=0, select bank0
  8315  0CEC  00EF               	movwf	___fladd@a+3
  8316  0CED  3000               	movlw	0
  8317  0CEE  00EE               	movwf	___fladd@a+2
  8318  0CEF  3000               	movlw	0
  8319  0CF0  00ED               	movwf	___fladd@a+1
  8320  0CF1  3000               	movlw	0
  8321  0CF2  00EC               	movwf	___fladd@a
  8322  0CF3                     l2191:	
  8323  0CF3  1283               	bcf	3,5	;RP0=0, select bank0
  8324  0CF4  17EE               	bsf	___fladd@a+2,7
  8325  0CF5                     l2193:	
  8326  0CF5  01EF               	clrf	___fladd@a+3
  8327  0CF6  2D01               	goto	l549
  8328  0CF7                     l2195:	
  8329  0CF7  3000               	movlw	0
  8330  0CF8  1283               	bcf	3,5	;RP0=0, select bank0
  8331  0CF9  1303               	bcf	3,6	;RP1=0, select bank0
  8332  0CFA  00EF               	movwf	___fladd@a+3
  8333  0CFB  3000               	movlw	0
  8334  0CFC  00EE               	movwf	___fladd@a+2
  8335  0CFD  3000               	movlw	0
  8336  0CFE  00ED               	movwf	___fladd@a+1
  8337  0CFF  3000               	movlw	0
  8338  0D00  00EC               	movwf	___fladd@a
  8339  0D01                     l549:	
  8340  0D01  1683               	bsf	3,5	;RP0=1, select bank1
  8341  0D02  1303               	bcf	3,6	;RP1=0, select bank1
  8342  0D03  0837               	movf	___fladd@bexp^(0+128),w
  8343  0D04  0236               	subwf	___fladd@aexp^(0+128),w
  8344  0D05  1803               	skipnc
  8345  0D06  2D08               	goto	u2501
  8346  0D07  2D09               	goto	u2500
  8347  0D08                     u2501:	
  8348  0D08  2D7F               	goto	l2231
  8349  0D09                     u2500:	
  8350  0D09                     l2197:	
  8351  0D09  1F35               	btfss	___fladd@signs^(0+128),6
  8352  0D0A  2D0C               	goto	u2511
  8353  0D0B  2D0D               	goto	u2510
  8354  0D0C                     u2511:	
  8355  0D0C  2D11               	goto	l2201
  8356  0D0D                     u2510:	
  8357  0D0D                     l2199:	
  8358  0D0D  3080               	movlw	128
  8359  0D0E  00AD               	movwf	??___fladd^(0+128)
  8360  0D0F  082D               	movf	??___fladd^(0+128),w
  8361  0D10  06B5               	xorwf	___fladd@signs^(0+128),f
  8362  0D11                     l2201:	
  8363  0D11  0837               	movf	___fladd@bexp^(0+128),w
  8364  0D12  00AD               	movwf	??___fladd^(0+128)
  8365  0D13  082D               	movf	??___fladd^(0+128),w
  8366  0D14  00B8               	movwf	___fladd@grs^(0+128)
  8367  0D15                     l2203:	
  8368  0D15  0836               	movf	___fladd@aexp^(0+128),w
  8369  0D16  00AD               	movwf	??___fladd^(0+128)
  8370  0D17  082D               	movf	??___fladd^(0+128),w
  8371  0D18  00B7               	movwf	___fladd@bexp^(0+128)
  8372  0D19                     l2205:	
  8373  0D19  0838               	movf	___fladd@grs^(0+128),w
  8374  0D1A  00AD               	movwf	??___fladd^(0+128)
  8375  0D1B  082D               	movf	??___fladd^(0+128),w
  8376  0D1C  00B6               	movwf	___fladd@aexp^(0+128)
  8377  0D1D                     l2207:	
  8378  0D1D  1283               	bcf	3,5	;RP0=0, select bank0
  8379  0D1E  1303               	bcf	3,6	;RP1=0, select bank0
  8380  0D1F  0868               	movf	___fladd@b,w
  8381  0D20  1683               	bsf	3,5	;RP0=1, select bank1
  8382  0D21  1303               	bcf	3,6	;RP1=0, select bank1
  8383  0D22  00AD               	movwf	??___fladd^(0+128)
  8384  0D23  082D               	movf	??___fladd^(0+128),w
  8385  0D24  00B8               	movwf	___fladd@grs^(0+128)
  8386  0D25                     l2209:	
  8387  0D25  1283               	bcf	3,5	;RP0=0, select bank0
  8388  0D26  1303               	bcf	3,6	;RP1=0, select bank0
  8389  0D27  086C               	movf	___fladd@a,w
  8390  0D28  1683               	bsf	3,5	;RP0=1, select bank1
  8391  0D29  1303               	bcf	3,6	;RP1=0, select bank1
  8392  0D2A  00AD               	movwf	??___fladd^(0+128)
  8393  0D2B  082D               	movf	??___fladd^(0+128),w
  8394  0D2C  1283               	bcf	3,5	;RP0=0, select bank0
  8395  0D2D  1303               	bcf	3,6	;RP1=0, select bank0
  8396  0D2E  00E8               	movwf	___fladd@b
  8397  0D2F                     l2211:	
  8398  0D2F  1683               	bsf	3,5	;RP0=1, select bank1
  8399  0D30  1303               	bcf	3,6	;RP1=0, select bank1
  8400  0D31  0838               	movf	___fladd@grs^(0+128),w
  8401  0D32  00AD               	movwf	??___fladd^(0+128)
  8402  0D33  082D               	movf	??___fladd^(0+128),w
  8403  0D34  1283               	bcf	3,5	;RP0=0, select bank0
  8404  0D35  1303               	bcf	3,6	;RP1=0, select bank0
  8405  0D36  00EC               	movwf	___fladd@a
  8406  0D37                     l2213:	
  8407  0D37  0869               	movf	___fladd@b+1,w
  8408  0D38  1683               	bsf	3,5	;RP0=1, select bank1
  8409  0D39  1303               	bcf	3,6	;RP1=0, select bank1
  8410  0D3A  00AD               	movwf	??___fladd^(0+128)
  8411  0D3B  082D               	movf	??___fladd^(0+128),w
  8412  0D3C  00B8               	movwf	___fladd@grs^(0+128)
  8413  0D3D                     l2215:	
  8414  0D3D  1283               	bcf	3,5	;RP0=0, select bank0
  8415  0D3E  1303               	bcf	3,6	;RP1=0, select bank0
  8416  0D3F  086D               	movf	___fladd@a+1,w
  8417  0D40  1683               	bsf	3,5	;RP0=1, select bank1
  8418  0D41  1303               	bcf	3,6	;RP1=0, select bank1
  8419  0D42  00AD               	movwf	??___fladd^(0+128)
  8420  0D43  082D               	movf	??___fladd^(0+128),w
  8421  0D44  1283               	bcf	3,5	;RP0=0, select bank0
  8422  0D45  1303               	bcf	3,6	;RP1=0, select bank0
  8423  0D46  00E9               	movwf	___fladd@b+1
  8424  0D47                     l2217:	
  8425  0D47  1683               	bsf	3,5	;RP0=1, select bank1
  8426  0D48  1303               	bcf	3,6	;RP1=0, select bank1
  8427  0D49  0838               	movf	___fladd@grs^(0+128),w
  8428  0D4A  00AD               	movwf	??___fladd^(0+128)
  8429  0D4B  082D               	movf	??___fladd^(0+128),w
  8430  0D4C  1283               	bcf	3,5	;RP0=0, select bank0
  8431  0D4D  1303               	bcf	3,6	;RP1=0, select bank0
  8432  0D4E  00ED               	movwf	___fladd@a+1
  8433  0D4F                     l2219:	
  8434  0D4F  086A               	movf	___fladd@b+2,w
  8435  0D50  1683               	bsf	3,5	;RP0=1, select bank1
  8436  0D51  1303               	bcf	3,6	;RP1=0, select bank1
  8437  0D52  00AD               	movwf	??___fladd^(0+128)
  8438  0D53  082D               	movf	??___fladd^(0+128),w
  8439  0D54  00B8               	movwf	___fladd@grs^(0+128)
  8440  0D55                     l2221:	
  8441  0D55  1283               	bcf	3,5	;RP0=0, select bank0
  8442  0D56  1303               	bcf	3,6	;RP1=0, select bank0
  8443  0D57  086E               	movf	___fladd@a+2,w
  8444  0D58  1683               	bsf	3,5	;RP0=1, select bank1
  8445  0D59  1303               	bcf	3,6	;RP1=0, select bank1
  8446  0D5A  00AD               	movwf	??___fladd^(0+128)
  8447  0D5B  082D               	movf	??___fladd^(0+128),w
  8448  0D5C  1283               	bcf	3,5	;RP0=0, select bank0
  8449  0D5D  1303               	bcf	3,6	;RP1=0, select bank0
  8450  0D5E  00EA               	movwf	___fladd@b+2
  8451  0D5F                     l2223:	
  8452  0D5F  1683               	bsf	3,5	;RP0=1, select bank1
  8453  0D60  1303               	bcf	3,6	;RP1=0, select bank1
  8454  0D61  0838               	movf	___fladd@grs^(0+128),w
  8455  0D62  00AD               	movwf	??___fladd^(0+128)
  8456  0D63  082D               	movf	??___fladd^(0+128),w
  8457  0D64  1283               	bcf	3,5	;RP0=0, select bank0
  8458  0D65  1303               	bcf	3,6	;RP1=0, select bank0
  8459  0D66  00EE               	movwf	___fladd@a+2
  8460  0D67                     l2225:	
  8461  0D67  086B               	movf	___fladd@b+3,w
  8462  0D68  1683               	bsf	3,5	;RP0=1, select bank1
  8463  0D69  1303               	bcf	3,6	;RP1=0, select bank1
  8464  0D6A  00AD               	movwf	??___fladd^(0+128)
  8465  0D6B  082D               	movf	??___fladd^(0+128),w
  8466  0D6C  00B8               	movwf	___fladd@grs^(0+128)
  8467  0D6D                     l2227:	
  8468  0D6D  1283               	bcf	3,5	;RP0=0, select bank0
  8469  0D6E  1303               	bcf	3,6	;RP1=0, select bank0
  8470  0D6F  086F               	movf	___fladd@a+3,w
  8471  0D70  1683               	bsf	3,5	;RP0=1, select bank1
  8472  0D71  1303               	bcf	3,6	;RP1=0, select bank1
  8473  0D72  00AD               	movwf	??___fladd^(0+128)
  8474  0D73  082D               	movf	??___fladd^(0+128),w
  8475  0D74  1283               	bcf	3,5	;RP0=0, select bank0
  8476  0D75  1303               	bcf	3,6	;RP1=0, select bank0
  8477  0D76  00EB               	movwf	___fladd@b+3
  8478  0D77                     l2229:	
  8479  0D77  1683               	bsf	3,5	;RP0=1, select bank1
  8480  0D78  1303               	bcf	3,6	;RP1=0, select bank1
  8481  0D79  0838               	movf	___fladd@grs^(0+128),w
  8482  0D7A  00AD               	movwf	??___fladd^(0+128)
  8483  0D7B  082D               	movf	??___fladd^(0+128),w
  8484  0D7C  1283               	bcf	3,5	;RP0=0, select bank0
  8485  0D7D  1303               	bcf	3,6	;RP1=0, select bank0
  8486  0D7E  00EF               	movwf	___fladd@a+3
  8487  0D7F                     l2231:	
  8488  0D7F  1683               	bsf	3,5	;RP0=1, select bank1
  8489  0D80  1303               	bcf	3,6	;RP1=0, select bank1
  8490  0D81  01B8               	clrf	___fladd@grs^(0+128)
  8491  0D82                     l2233:	
  8492  0D82  0836               	movf	___fladd@aexp^(0+128),w
  8493  0D83  00AD               	movwf	??___fladd^(0+128)
  8494  0D84  01AE               	clrf	(??___fladd^(0+128)+1)
  8495  0D85  082E               	movf	(??___fladd+1)^(0+128),w
  8496  0D86  00B0               	movwf	((??___fladd+2)^(0+128)+1)
  8497  0D87  0837               	movf	___fladd@bexp^(0+128),w
  8498  0D88  022D               	subwf	??___fladd^(0+128),w
  8499  0D89  00AF               	movwf	(??___fladd+2)^(0+128)
  8500  0D8A  1C03               	skipc
  8501  0D8B  03B0               	decf	((??___fladd+2)^(0+128)+1),f
  8502  0D8C  0830               	movf	(??___fladd+3)^(0+128),w
  8503  0D8D  3A80               	xorlw	128
  8504  0D8E  00FF               	movwf	btemp+1
  8505  0D8F  3080               	movlw	128
  8506  0D90  027F               	subwf	btemp+1,w
  8507  0D91  1D03               	skipz
  8508  0D92  2D95               	goto	u2525
  8509  0D93  301A               	movlw	26
  8510  0D94  022F               	subwf	(??___fladd+2)^(0+128),w
  8511  0D95                     u2525:	
  8512  0D95  1C03               	skipc
  8513  0D96  2D98               	goto	u2521
  8514  0D97  2D99               	goto	u2520
  8515  0D98                     u2521:	
  8516  0D98  2DE6               	goto	l2249
  8517  0D99                     u2520:	
  8518  0D99                     l2235:	
  8519  0D99  1283               	bcf	3,5	;RP0=0, select bank0
  8520  0D9A  1303               	bcf	3,6	;RP1=0, select bank0
  8521  0D9B  086B               	movf	___fladd@b+3,w
  8522  0D9C  046A               	iorwf	___fladd@b+2,w
  8523  0D9D  0469               	iorwf	___fladd@b+1,w
  8524  0D9E  0468               	iorwf	___fladd@b,w
  8525  0D9F  1D03               	skipz
  8526  0DA0  2DA2               	goto	u2531
  8527  0DA1  2DA4               	goto	u2530
  8528  0DA2                     u2531:	
  8529  0DA2  3001               	movlw	1
  8530  0DA3  2DA5               	goto	u2540
  8531  0DA4                     u2530:	
  8532  0DA4  3000               	movlw	0
  8533  0DA5                     u2540:	
  8534  0DA5  1683               	bsf	3,5	;RP0=1, select bank1
  8535  0DA6  1303               	bcf	3,6	;RP1=0, select bank1
  8536  0DA7  00AD               	movwf	??___fladd^(0+128)
  8537  0DA8  082D               	movf	??___fladd^(0+128),w
  8538  0DA9  00B8               	movwf	___fladd@grs^(0+128)
  8539  0DAA  3000               	movlw	0
  8540  0DAB  1283               	bcf	3,5	;RP0=0, select bank0
  8541  0DAC  1303               	bcf	3,6	;RP1=0, select bank0
  8542  0DAD  00EB               	movwf	___fladd@b+3
  8543  0DAE  3000               	movlw	0
  8544  0DAF  00EA               	movwf	___fladd@b+2
  8545  0DB0  3000               	movlw	0
  8546  0DB1  00E9               	movwf	___fladd@b+1
  8547  0DB2  3000               	movlw	0
  8548  0DB3  00E8               	movwf	___fladd@b
  8549  0DB4  1683               	bsf	3,5	;RP0=1, select bank1
  8550  0DB5  1303               	bcf	3,6	;RP1=0, select bank1
  8551  0DB6  0836               	movf	___fladd@aexp^(0+128),w
  8552  0DB7  00AD               	movwf	??___fladd^(0+128)
  8553  0DB8  082D               	movf	??___fladd^(0+128),w
  8554  0DB9  00B7               	movwf	___fladd@bexp^(0+128)
  8555  0DBA  2DEE               	goto	l553
  8556  0DBB                     l555:	
  8557  0DBB  1C38               	btfss	___fladd@grs^(0+128),0
  8558  0DBC  2DBE               	goto	u2551
  8559  0DBD  2DBF               	goto	u2550
  8560  0DBE                     u2551:	
  8561  0DBE  2DC8               	goto	l2239
  8562  0DBF                     u2550:	
  8563  0DBF                     l2237:	
  8564  0DBF  0838               	movf	___fladd@grs^(0+128),w
  8565  0DC0  00AD               	movwf	??___fladd^(0+128)
  8566  0DC1  1003               	clrc
  8567  0DC2  0C2D               	rrf	??___fladd^(0+128),w
  8568  0DC3  3801               	iorlw	1
  8569  0DC4  00AE               	movwf	(??___fladd+1)^(0+128)
  8570  0DC5  082E               	movf	(??___fladd+1)^(0+128),w
  8571  0DC6  00B8               	movwf	___fladd@grs^(0+128)
  8572  0DC7  2DCA               	goto	l2241
  8573  0DC8                     l2239:	
  8574  0DC8  1003               	clrc
  8575  0DC9  0CB8               	rrf	___fladd@grs^(0+128),f
  8576  0DCA                     l2241:	
  8577  0DCA  1283               	bcf	3,5	;RP0=0, select bank0
  8578  0DCB  1303               	bcf	3,6	;RP1=0, select bank0
  8579  0DCC  1C68               	btfss	___fladd@b,0
  8580  0DCD  2DCF               	goto	u2561
  8581  0DCE  2DD0               	goto	u2560
  8582  0DCF                     u2561:	
  8583  0DCF  2DD3               	goto	l2245
  8584  0DD0                     u2560:	
  8585  0DD0                     l2243:	
  8586  0DD0  1683               	bsf	3,5	;RP0=1, select bank1
  8587  0DD1  1303               	bcf	3,6	;RP1=0, select bank1
  8588  0DD2  17B8               	bsf	___fladd@grs^(0+128),7
  8589  0DD3                     l2245:	
  8590  0DD3  3001               	movlw	1
  8591  0DD4  1683               	bsf	3,5	;RP0=1, select bank1
  8592  0DD5  1303               	bcf	3,6	;RP1=0, select bank1
  8593  0DD6  00AD               	movwf	??___fladd^(0+128)
  8594  0DD7                     u2575:	
  8595  0DD7  1283               	bcf	3,5	;RP0=0, select bank0
  8596  0DD8  1303               	bcf	3,6	;RP1=0, select bank0
  8597  0DD9  0D6B               	rlf	___fladd@b+3,w
  8598  0DDA  0CEB               	rrf	___fladd@b+3,f
  8599  0DDB  0CEA               	rrf	___fladd@b+2,f
  8600  0DDC  0CE9               	rrf	___fladd@b+1,f
  8601  0DDD  0CE8               	rrf	___fladd@b,f
  8602  0DDE  1683               	bsf	3,5	;RP0=1, select bank1
  8603  0DDF  1303               	bcf	3,6	;RP1=0, select bank1
  8604  0DE0  0BAD               	decfsz	(??___fladd^(0+128))& (0+127),f
  8605  0DE1  2DD7               	goto	u2575
  8606  0DE2                     l2247:	
  8607  0DE2  3001               	movlw	1
  8608  0DE3  00AD               	movwf	??___fladd^(0+128)
  8609  0DE4  082D               	movf	??___fladd^(0+128),w
  8610  0DE5  07B7               	addwf	___fladd@bexp^(0+128),f
  8611  0DE6                     l2249:	
  8612  0DE6  1683               	bsf	3,5	;RP0=1, select bank1
  8613  0DE7  1303               	bcf	3,6	;RP1=0, select bank1
  8614  0DE8  0836               	movf	___fladd@aexp^(0+128),w
  8615  0DE9  0237               	subwf	___fladd@bexp^(0+128),w
  8616  0DEA  1C03               	skipc
  8617  0DEB  2DED               	goto	u2581
  8618  0DEC  2DEE               	goto	u2580
  8619  0DED                     u2581:	
  8620  0DED  2DBB               	goto	l555
  8621  0DEE                     u2580:	
  8622  0DEE                     l553:	
  8623  0DEE  1B35               	btfsc	___fladd@signs^(0+128),6
  8624  0DEF  2DF1               	goto	u2591
  8625  0DF0  2DF2               	goto	u2590
  8626  0DF1                     u2591:	
  8627  0DF1  2E4D               	goto	l2275
  8628  0DF2                     u2590:	
  8629  0DF2                     l2251:	
  8630  0DF2  0837               	movf	___fladd@bexp^(0+128),w
  8631  0DF3  1D03               	btfss	3,2
  8632  0DF4  2DF6               	goto	u2601
  8633  0DF5  2DF7               	goto	u2600
  8634  0DF6                     u2601:	
  8635  0DF6  2E02               	goto	l2257
  8636  0DF7                     u2600:	
  8637  0DF7                     l2253:	
  8638  0DF7  3000               	movlw	0
  8639  0DF8  1283               	bcf	3,5	;RP0=0, select bank0
  8640  0DF9  1303               	bcf	3,6	;RP1=0, select bank0
  8641  0DFA  00EB               	movwf	?___fladd+3
  8642  0DFB  3000               	movlw	0
  8643  0DFC  00EA               	movwf	?___fladd+2
  8644  0DFD  3000               	movlw	0
  8645  0DFE  00E9               	movwf	?___fladd+1
  8646  0DFF  3000               	movlw	0
  8647  0E00  00E8               	movwf	?___fladd
  8648  0E01  2FFF               	goto	l562
  8649  0E02                     l2257:	
  8650  0E02  1283               	bcf	3,5	;RP0=0, select bank0
  8651  0E03  1303               	bcf	3,6	;RP1=0, select bank0
  8652  0E04  086C               	movf	___fladd@a,w
  8653  0E05  07E8               	addwf	___fladd@b,f
  8654  0E06  086D               	movf	___fladd@a+1,w
  8655  0E07  1103               	clrz
  8656  0E08  1803               	skipnc
  8657  0E09  3E01               	addlw	1
  8658  0E0A  1903               	skipnz
  8659  0E0B  2E0D               	goto	u2611
  8660  0E0C  07E9               	addwf	___fladd@b+1,f
  8661  0E0D                     u2611:	
  8662  0E0D  086E               	movf	___fladd@a+2,w
  8663  0E0E  1103               	clrz
  8664  0E0F  1803               	skipnc
  8665  0E10  3E01               	addlw	1
  8666  0E11  1903               	skipnz
  8667  0E12  2E14               	goto	u2612
  8668  0E13  07EA               	addwf	___fladd@b+2,f
  8669  0E14                     u2612:	
  8670  0E14  086F               	movf	___fladd@a+3,w
  8671  0E15  1103               	clrz
  8672  0E16  1803               	skipnc
  8673  0E17  3E01               	addlw	1
  8674  0E18  1903               	skipnz
  8675  0E19  2E1B               	goto	u2613
  8676  0E1A  07EB               	addwf	___fladd@b+3,f
  8677  0E1B                     u2613:	
  8678  0E1B                     l2259:	
  8679  0E1B  1C6B               	btfss	___fladd@b+3,0
  8680  0E1C  2E1E               	goto	u2621
  8681  0E1D  2E1F               	goto	u2620
  8682  0E1E                     u2621:	
  8683  0E1E  2F4B               	goto	l2309
  8684  0E1F                     u2620:	
  8685  0E1F                     l2261:	
  8686  0E1F  1683               	bsf	3,5	;RP0=1, select bank1
  8687  0E20  1303               	bcf	3,6	;RP1=0, select bank1
  8688  0E21  1C38               	btfss	___fladd@grs^(0+128),0
  8689  0E22  2E24               	goto	u2631
  8690  0E23  2E25               	goto	u2630
  8691  0E24                     u2631:	
  8692  0E24  2E2E               	goto	l2265
  8693  0E25                     u2630:	
  8694  0E25                     l2263:	
  8695  0E25  0838               	movf	___fladd@grs^(0+128),w
  8696  0E26  00AD               	movwf	??___fladd^(0+128)
  8697  0E27  1003               	clrc
  8698  0E28  0C2D               	rrf	??___fladd^(0+128),w
  8699  0E29  3801               	iorlw	1
  8700  0E2A  00AE               	movwf	(??___fladd+1)^(0+128)
  8701  0E2B  082E               	movf	(??___fladd+1)^(0+128),w
  8702  0E2C  00B8               	movwf	___fladd@grs^(0+128)
  8703  0E2D  2E30               	goto	l2267
  8704  0E2E                     l2265:	
  8705  0E2E  1003               	clrc
  8706  0E2F  0CB8               	rrf	___fladd@grs^(0+128),f
  8707  0E30                     l2267:	
  8708  0E30  1283               	bcf	3,5	;RP0=0, select bank0
  8709  0E31  1303               	bcf	3,6	;RP1=0, select bank0
  8710  0E32  1C68               	btfss	___fladd@b,0
  8711  0E33  2E35               	goto	u2641
  8712  0E34  2E36               	goto	u2640
  8713  0E35                     u2641:	
  8714  0E35  2E39               	goto	l2271
  8715  0E36                     u2640:	
  8716  0E36                     l2269:	
  8717  0E36  1683               	bsf	3,5	;RP0=1, select bank1
  8718  0E37  1303               	bcf	3,6	;RP1=0, select bank1
  8719  0E38  17B8               	bsf	___fladd@grs^(0+128),7
  8720  0E39                     l2271:	
  8721  0E39  3001               	movlw	1
  8722  0E3A  1683               	bsf	3,5	;RP0=1, select bank1
  8723  0E3B  1303               	bcf	3,6	;RP1=0, select bank1
  8724  0E3C  00AD               	movwf	??___fladd^(0+128)
  8725  0E3D                     u2655:	
  8726  0E3D  1283               	bcf	3,5	;RP0=0, select bank0
  8727  0E3E  1303               	bcf	3,6	;RP1=0, select bank0
  8728  0E3F  0D6B               	rlf	___fladd@b+3,w
  8729  0E40  0CEB               	rrf	___fladd@b+3,f
  8730  0E41  0CEA               	rrf	___fladd@b+2,f
  8731  0E42  0CE9               	rrf	___fladd@b+1,f
  8732  0E43  0CE8               	rrf	___fladd@b,f
  8733  0E44  1683               	bsf	3,5	;RP0=1, select bank1
  8734  0E45  1303               	bcf	3,6	;RP1=0, select bank1
  8735  0E46  0BAD               	decfsz	(??___fladd^(0+128))& (0+127),f
  8736  0E47  2E3D               	goto	u2655
  8737  0E48                     l2273:	
  8738  0E48  3001               	movlw	1
  8739  0E49  00AD               	movwf	??___fladd^(0+128)
  8740  0E4A  082D               	movf	??___fladd^(0+128),w
  8741  0E4B  07B7               	addwf	___fladd@bexp^(0+128),f
  8742  0E4C  2F4B               	goto	l2309
  8743  0E4D                     l2275:	
  8744  0E4D  1283               	bcf	3,5	;RP0=0, select bank0
  8745  0E4E  1303               	bcf	3,6	;RP1=0, select bank0
  8746  0E4F  086B               	movf	___fladd@b+3,w
  8747  0E50  3A80               	xorlw	128
  8748  0E51  00FF               	movwf	btemp+1
  8749  0E52  086F               	movf	___fladd@a+3,w
  8750  0E53  3A80               	xorlw	128
  8751  0E54  027F               	subwf	btemp+1,w
  8752  0E55  1D03               	skipz
  8753  0E56  2E61               	goto	u2663
  8754  0E57  086E               	movf	___fladd@a+2,w
  8755  0E58  026A               	subwf	___fladd@b+2,w
  8756  0E59  1D03               	skipz
  8757  0E5A  2E61               	goto	u2663
  8758  0E5B  086D               	movf	___fladd@a+1,w
  8759  0E5C  0269               	subwf	___fladd@b+1,w
  8760  0E5D  1D03               	skipz
  8761  0E5E  2E61               	goto	u2663
  8762  0E5F  086C               	movf	___fladd@a,w
  8763  0E60  0268               	subwf	___fladd@b,w
  8764  0E61                     u2663:	
  8765  0E61  1803               	skipnc
  8766  0E62  2E64               	goto	u2661
  8767  0E63  2E65               	goto	u2660
  8768  0E64                     u2661:	
  8769  0E64  2EF5               	goto	l2285
  8770  0E65                     u2660:	
  8771  0E65                     l2277:	
  8772  0E65  30FF               	movlw	255
  8773  0E66  1683               	bsf	3,5	;RP0=1, select bank1
  8774  0E67  1303               	bcf	3,6	;RP1=0, select bank1
  8775  0E68  00AD               	movwf	??___fladd^(0+128)
  8776  0E69  30FF               	movlw	255
  8777  0E6A  00AE               	movwf	(??___fladd^(0+128)+1)
  8778  0E6B  30FF               	movlw	255
  8779  0E6C  00AF               	movwf	(??___fladd^(0+128)+2)
  8780  0E6D  30FF               	movlw	255
  8781  0E6E  00B0               	movwf	(??___fladd^(0+128)+3)
  8782  0E6F  1283               	bcf	3,5	;RP0=0, select bank0
  8783  0E70  1303               	bcf	3,6	;RP1=0, select bank0
  8784  0E71  086C               	movf	___fladd@a,w
  8785  0E72  1683               	bsf	3,5	;RP0=1, select bank1
  8786  0E73  1303               	bcf	3,6	;RP1=0, select bank1
  8787  0E74  00B1               	movwf	(??___fladd+4)^(0+128)
  8788  0E75  1283               	bcf	3,5	;RP0=0, select bank0
  8789  0E76  1303               	bcf	3,6	;RP1=0, select bank0
  8790  0E77  086D               	movf	___fladd@a+1,w
  8791  0E78  1683               	bsf	3,5	;RP0=1, select bank1
  8792  0E79  1303               	bcf	3,6	;RP1=0, select bank1
  8793  0E7A  00B2               	movwf	((??___fladd+4)^(0+128)+1)
  8794  0E7B  1283               	bcf	3,5	;RP0=0, select bank0
  8795  0E7C  1303               	bcf	3,6	;RP1=0, select bank0
  8796  0E7D  086E               	movf	___fladd@a+2,w
  8797  0E7E  1683               	bsf	3,5	;RP0=1, select bank1
  8798  0E7F  1303               	bcf	3,6	;RP1=0, select bank1
  8799  0E80  00B3               	movwf	((??___fladd+4)^(0+128)+2)
  8800  0E81  1283               	bcf	3,5	;RP0=0, select bank0
  8801  0E82  1303               	bcf	3,6	;RP1=0, select bank0
  8802  0E83  086F               	movf	___fladd@a+3,w
  8803  0E84  1683               	bsf	3,5	;RP0=1, select bank1
  8804  0E85  1303               	bcf	3,6	;RP1=0, select bank1
  8805  0E86  00B4               	movwf	((??___fladd+4)^(0+128)+3)
  8806  0E87  1283               	bcf	3,5	;RP0=0, select bank0
  8807  0E88  1303               	bcf	3,6	;RP1=0, select bank0
  8808  0E89  0868               	movf	___fladd@b,w
  8809  0E8A  1683               	bsf	3,5	;RP0=1, select bank1
  8810  0E8B  1303               	bcf	3,6	;RP1=0, select bank1
  8811  0E8C  02B1               	subwf	(??___fladd+4)^(0+128),f
  8812  0E8D  1283               	bcf	3,5	;RP0=0, select bank0
  8813  0E8E  1303               	bcf	3,6	;RP1=0, select bank0
  8814  0E8F  0869               	movf	___fladd@b+1,w
  8815  0E90  1C03               	skipc
  8816  0E91  0F69               	incfsz	___fladd@b+1,w
  8817  0E92  2E94               	goto	u2671
  8818  0E93  2E97               	goto	u2672
  8819  0E94                     u2671:	
  8820  0E94  1683               	bsf	3,5	;RP0=1, select bank1
  8821  0E95  1303               	bcf	3,6	;RP1=0, select bank1
  8822  0E96  02B2               	subwf	((??___fladd+4)^(0+128)+1),f
  8823  0E97                     u2672:	
  8824  0E97  1283               	bcf	3,5	;RP0=0, select bank0
  8825  0E98  1303               	bcf	3,6	;RP1=0, select bank0
  8826  0E99  086A               	movf	___fladd@b+2,w
  8827  0E9A  1C03               	skipc
  8828  0E9B  0F6A               	incfsz	___fladd@b+2,w
  8829  0E9C  2E9E               	goto	u2673
  8830  0E9D  2EA1               	goto	u2674
  8831  0E9E                     u2673:	
  8832  0E9E  1683               	bsf	3,5	;RP0=1, select bank1
  8833  0E9F  1303               	bcf	3,6	;RP1=0, select bank1
  8834  0EA0  02B3               	subwf	((??___fladd+4)^(0+128)+2),f
  8835  0EA1                     u2674:	
  8836  0EA1  1283               	bcf	3,5	;RP0=0, select bank0
  8837  0EA2  1303               	bcf	3,6	;RP1=0, select bank0
  8838  0EA3  086B               	movf	___fladd@b+3,w
  8839  0EA4  1C03               	skipc
  8840  0EA5  0F6B               	incfsz	___fladd@b+3,w
  8841  0EA6  2EA8               	goto	u2675
  8842  0EA7  2EAB               	goto	u2676
  8843  0EA8                     u2675:	
  8844  0EA8  1683               	bsf	3,5	;RP0=1, select bank1
  8845  0EA9  1303               	bcf	3,6	;RP1=0, select bank1
  8846  0EAA  02B4               	subwf	((??___fladd+4)^(0+128)+3),f
  8847  0EAB                     u2676:	
  8848  0EAB  1283               	bcf	3,5	;RP0=0, select bank0
  8849  0EAC  1303               	bcf	3,6	;RP1=0, select bank0
  8850  0EAD  1683               	bsf	3,5	;RP0=1, select bank1
  8851  0EAE  1303               	bcf	3,6	;RP1=0, select bank1
  8852  0EAF  0831               	movf	(??___fladd+4)^(0+128),w
  8853  0EB0  07AD               	addwf	??___fladd^(0+128),f
  8854  0EB1  0832               	movf	(??___fladd+5)^(0+128),w
  8855  0EB2  1803               	skipnc
  8856  0EB3  0F32               	incfsz	(??___fladd+5)^(0+128),w
  8857  0EB4  2EB6               	goto	u2680
  8858  0EB5  2EB7               	goto	u2681
  8859  0EB6                     u2680:	
  8860  0EB6  07AE               	addwf	(??___fladd^(0+128)+1),f
  8861  0EB7                     u2681:	
  8862  0EB7  0833               	movf	(??___fladd+6)^(0+128),w
  8863  0EB8  1803               	skipnc
  8864  0EB9  0F33               	incfsz	(??___fladd+6)^(0+128),w
  8865  0EBA  2EBC               	goto	u2682
  8866  0EBB  2EBD               	goto	u2683
  8867  0EBC                     u2682:	
  8868  0EBC  07AF               	addwf	(??___fladd^(0+128)+2),f
  8869  0EBD                     u2683:	
  8870  0EBD  0834               	movf	(??___fladd+7)^(0+128),w
  8871  0EBE  1803               	skipnc
  8872  0EBF  0A34               	incf	(??___fladd+7)^(0+128),w
  8873  0EC0  07B0               	addwf	(??___fladd^(0+128)+3),f
  8874  0EC1  0830               	movf	(??___fladd+3)^(0+128),w
  8875  0EC2  1283               	bcf	3,5	;RP0=0, select bank0
  8876  0EC3  1303               	bcf	3,6	;RP1=0, select bank0
  8877  0EC4  00EB               	movwf	___fladd@b+3
  8878  0EC5  1683               	bsf	3,5	;RP0=1, select bank1
  8879  0EC6  1303               	bcf	3,6	;RP1=0, select bank1
  8880  0EC7  082F               	movf	(??___fladd+2)^(0+128),w
  8881  0EC8  1283               	bcf	3,5	;RP0=0, select bank0
  8882  0EC9  1303               	bcf	3,6	;RP1=0, select bank0
  8883  0ECA  00EA               	movwf	___fladd@b+2
  8884  0ECB  1683               	bsf	3,5	;RP0=1, select bank1
  8885  0ECC  1303               	bcf	3,6	;RP1=0, select bank1
  8886  0ECD  082E               	movf	(??___fladd+1)^(0+128),w
  8887  0ECE  1283               	bcf	3,5	;RP0=0, select bank0
  8888  0ECF  1303               	bcf	3,6	;RP1=0, select bank0
  8889  0ED0  00E9               	movwf	___fladd@b+1
  8890  0ED1  1683               	bsf	3,5	;RP0=1, select bank1
  8891  0ED2  1303               	bcf	3,6	;RP1=0, select bank1
  8892  0ED3  082D               	movf	??___fladd^(0+128),w
  8893  0ED4  1283               	bcf	3,5	;RP0=0, select bank0
  8894  0ED5  1303               	bcf	3,6	;RP1=0, select bank0
  8895  0ED6  00E8               	movwf	___fladd@b
  8896  0ED7                     l2279:	
  8897  0ED7  3080               	movlw	128
  8898  0ED8  1683               	bsf	3,5	;RP0=1, select bank1
  8899  0ED9  1303               	bcf	3,6	;RP1=0, select bank1
  8900  0EDA  00AD               	movwf	??___fladd^(0+128)
  8901  0EDB  082D               	movf	??___fladd^(0+128),w
  8902  0EDC  06B5               	xorwf	___fladd@signs^(0+128),f
  8903  0EDD  09B8               	comf	___fladd@grs^(0+128),f
  8904  0EDE  0AB8               	incf	___fladd@grs^(0+128),f
  8905  0EDF                     l2281:	
  8906  0EDF  0838               	movf	___fladd@grs^(0+128),w
  8907  0EE0  1D03               	btfss	3,2
  8908  0EE1  2EE3               	goto	u2691
  8909  0EE2  2EE4               	goto	u2690
  8910  0EE3                     u2691:	
  8911  0EE3  2F03               	goto	l570
  8912  0EE4                     u2690:	
  8913  0EE4                     l2283:	
  8914  0EE4  3001               	movlw	1
  8915  0EE5  1283               	bcf	3,5	;RP0=0, select bank0
  8916  0EE6  1303               	bcf	3,6	;RP1=0, select bank0
  8917  0EE7  07E8               	addwf	___fladd@b,f
  8918  0EE8  3000               	movlw	0
  8919  0EE9  1803               	skipnc
  8920  0EEA  3001               	movlw	1
  8921  0EEB  07E9               	addwf	___fladd@b+1,f
  8922  0EEC  3000               	movlw	0
  8923  0EED  1803               	skipnc
  8924  0EEE  3001               	movlw	1
  8925  0EEF  07EA               	addwf	___fladd@b+2,f
  8926  0EF0  3000               	movlw	0
  8927  0EF1  1803               	skipnc
  8928  0EF2  3001               	movlw	1
  8929  0EF3  07EB               	addwf	___fladd@b+3,f
  8930  0EF4  2F03               	goto	l570
  8931  0EF5                     l2285:	
  8932  0EF5  086C               	movf	___fladd@a,w
  8933  0EF6  02E8               	subwf	___fladd@b,f
  8934  0EF7  086D               	movf	___fladd@a+1,w
  8935  0EF8  1C03               	skipc
  8936  0EF9  0F6D               	incfsz	___fladd@a+1,w
  8937  0EFA  02E9               	subwf	___fladd@b+1,f
  8938  0EFB  086E               	movf	___fladd@a+2,w
  8939  0EFC  1C03               	skipc
  8940  0EFD  0F6E               	incfsz	___fladd@a+2,w
  8941  0EFE  02EA               	subwf	___fladd@b+2,f
  8942  0EFF  086F               	movf	___fladd@a+3,w
  8943  0F00  1C03               	skipc
  8944  0F01  0F6F               	incfsz	___fladd@a+3,w
  8945  0F02  02EB               	subwf	___fladd@b+3,f
  8946  0F03                     l570:	
  8947  0F03  1283               	bcf	3,5	;RP0=0, select bank0
  8948  0F04  086B               	movf	___fladd@b+3,w
  8949  0F05  046A               	iorwf	___fladd@b+2,w
  8950  0F06  0469               	iorwf	___fladd@b+1,w
  8951  0F07  0468               	iorwf	___fladd@b,w
  8952  0F08  1D03               	skipz
  8953  0F09  2F0B               	goto	u2701
  8954  0F0A  2F0C               	goto	u2700
  8955  0F0B                     u2701:	
  8956  0F0B  2F46               	goto	l2307
  8957  0F0C                     u2700:	
  8958  0F0C                     l2287:	
  8959  0F0C  1683               	bsf	3,5	;RP0=1, select bank1
  8960  0F0D  1303               	bcf	3,6	;RP1=0, select bank1
  8961  0F0E  0838               	movf	___fladd@grs^(0+128),w
  8962  0F0F  1D03               	btfss	3,2
  8963  0F10  2F12               	goto	u2711
  8964  0F11  2F13               	goto	u2710
  8965  0F12                     u2711:	
  8966  0F12  2F46               	goto	l2307
  8967  0F13                     u2710:	
  8968  0F13                     l2289:	
  8969  0F13  3000               	movlw	0
  8970  0F14  1283               	bcf	3,5	;RP0=0, select bank0
  8971  0F15  1303               	bcf	3,6	;RP1=0, select bank0
  8972  0F16  00EB               	movwf	?___fladd+3
  8973  0F17  3000               	movlw	0
  8974  0F18  00EA               	movwf	?___fladd+2
  8975  0F19  3000               	movlw	0
  8976  0F1A  00E9               	movwf	?___fladd+1
  8977  0F1B  3000               	movlw	0
  8978  0F1C  00E8               	movwf	?___fladd
  8979  0F1D  2FFF               	goto	l562
  8980  0F1E                     l2293:	
  8981  0F1E  3001               	movlw	1
  8982  0F1F  1683               	bsf	3,5	;RP0=1, select bank1
  8983  0F20  1303               	bcf	3,6	;RP1=0, select bank1
  8984  0F21  00AD               	movwf	??___fladd^(0+128)
  8985  0F22                     u2725:	
  8986  0F22  1003               	clrc
  8987  0F23  1283               	bcf	3,5	;RP0=0, select bank0
  8988  0F24  1303               	bcf	3,6	;RP1=0, select bank0
  8989  0F25  0DE8               	rlf	___fladd@b,f
  8990  0F26  0DE9               	rlf	___fladd@b+1,f
  8991  0F27  0DEA               	rlf	___fladd@b+2,f
  8992  0F28  0DEB               	rlf	___fladd@b+3,f
  8993  0F29  1683               	bsf	3,5	;RP0=1, select bank1
  8994  0F2A  1303               	bcf	3,6	;RP1=0, select bank1
  8995  0F2B  0BAD               	decfsz	??___fladd^(0+128),f
  8996  0F2C  2F22               	goto	u2725
  8997  0F2D                     l2295:	
  8998  0F2D  1FB8               	btfss	___fladd@grs^(0+128),7
  8999  0F2E  2F30               	goto	u2731
  9000  0F2F  2F31               	goto	u2730
  9001  0F30                     u2731:	
  9002  0F30  2F34               	goto	l574
  9003  0F31                     u2730:	
  9004  0F31                     l2297:	
  9005  0F31  1283               	bcf	3,5	;RP0=0, select bank0
  9006  0F32  1303               	bcf	3,6	;RP1=0, select bank0
  9007  0F33  1468               	bsf	___fladd@b,0
  9008  0F34                     l574:	
  9009  0F34  1683               	bsf	3,5	;RP0=1, select bank1
  9010  0F35  1303               	bcf	3,6	;RP1=0, select bank1
  9011  0F36  1C38               	btfss	___fladd@grs^(0+128),0
  9012  0F37  2F39               	goto	u2741
  9013  0F38  2F3A               	goto	u2740
  9014  0F39                     u2741:	
  9015  0F39  2F3D               	goto	l2301
  9016  0F3A                     u2740:	
  9017  0F3A                     l2299:	
  9018  0F3A  1403               	setc
  9019  0F3B  0DB8               	rlf	___fladd@grs^(0+128),f
  9020  0F3C  2F3F               	goto	l2303
  9021  0F3D                     l2301:	
  9022  0F3D  1003               	clrc
  9023  0F3E  0DB8               	rlf	___fladd@grs^(0+128),f
  9024  0F3F                     l2303:	
  9025  0F3F  0837               	movf	___fladd@bexp^(0+128),w
  9026  0F40  1903               	btfsc	3,2
  9027  0F41  2F43               	goto	u2751
  9028  0F42  2F44               	goto	u2750
  9029  0F43                     u2751:	
  9030  0F43  2F46               	goto	l2307
  9031  0F44                     u2750:	
  9032  0F44                     l2305:	
  9033  0F44  3001               	movlw	1
  9034  0F45  02B7               	subwf	___fladd@bexp^(0+128),f
  9035  0F46                     l2307:	
  9036  0F46  1283               	bcf	3,5	;RP0=0, select bank0
  9037  0F47  1FEA               	btfss	___fladd@b+2,7
  9038  0F48  2F4A               	goto	u2761
  9039  0F49  2F4B               	goto	u2760
  9040  0F4A                     u2761:	
  9041  0F4A  2F1E               	goto	l2293
  9042  0F4B                     u2760:	
  9043  0F4B                     l2309:	
  9044  0F4B  1683               	bsf	3,5	;RP0=1, select bank1
  9045  0F4C  1303               	bcf	3,6	;RP1=0, select bank1
  9046  0F4D  01B6               	clrf	___fladd@aexp^(0+128)
  9047  0F4E                     l2311:	
  9048  0F4E  1FB8               	btfss	___fladd@grs^(0+128),7
  9049  0F4F  2F51               	goto	u2771
  9050  0F50  2F52               	goto	u2770
  9051  0F51                     u2771:	
  9052  0F51  2F64               	goto	l2319
  9053  0F52                     u2770:	
  9054  0F52                     l2313:	
  9055  0F52  0838               	movf	___fladd@grs^(0+128),w
  9056  0F53  397F               	andlw	127
  9057  0F54  1903               	btfsc	3,2
  9058  0F55  2F57               	goto	u2781
  9059  0F56  2F58               	goto	u2780
  9060  0F57                     u2781:	
  9061  0F57  2F5D               	goto	l580
  9062  0F58                     u2780:	
  9063  0F58                     l2315:	
  9064  0F58  1683               	bsf	3,5	;RP0=1, select bank1
  9065  0F59  1303               	bcf	3,6	;RP1=0, select bank1
  9066  0F5A  01B6               	clrf	___fladd@aexp^(0+128)
  9067  0F5B  0AB6               	incf	___fladd@aexp^(0+128),f
  9068  0F5C  2F64               	goto	l2319
  9069  0F5D                     l580:	
  9070  0F5D  1283               	bcf	3,5	;RP0=0, select bank0
  9071  0F5E  1303               	bcf	3,6	;RP1=0, select bank0
  9072  0F5F  1C68               	btfss	___fladd@b,0
  9073  0F60  2F62               	goto	u2791
  9074  0F61  2F63               	goto	u2790
  9075  0F62                     u2791:	
  9076  0F62  2F64               	goto	l2319
  9077  0F63                     u2790:	
  9078  0F63  2F58               	goto	l2315
  9079  0F64                     l2319:	
  9080  0F64  1683               	bsf	3,5	;RP0=1, select bank1
  9081  0F65  1303               	bcf	3,6	;RP1=0, select bank1
  9082  0F66  0836               	movf	___fladd@aexp^(0+128),w
  9083  0F67  1903               	btfsc	3,2
  9084  0F68  2F6A               	goto	u2801
  9085  0F69  2F6B               	goto	u2800
  9086  0F6A                     u2801:	
  9087  0F6A  2FBF               	goto	l583
  9088  0F6B                     u2800:	
  9089  0F6B                     l2321:	
  9090  0F6B  3001               	movlw	1
  9091  0F6C  1283               	bcf	3,5	;RP0=0, select bank0
  9092  0F6D  1303               	bcf	3,6	;RP1=0, select bank0
  9093  0F6E  07E8               	addwf	___fladd@b,f
  9094  0F6F  3000               	movlw	0
  9095  0F70  1803               	skipnc
  9096  0F71  3001               	movlw	1
  9097  0F72  07E9               	addwf	___fladd@b+1,f
  9098  0F73  3000               	movlw	0
  9099  0F74  1803               	skipnc
  9100  0F75  3001               	movlw	1
  9101  0F76  07EA               	addwf	___fladd@b+2,f
  9102  0F77  3000               	movlw	0
  9103  0F78  1803               	skipnc
  9104  0F79  3001               	movlw	1
  9105  0F7A  07EB               	addwf	___fladd@b+3,f
  9106  0F7B                     l2323:	
  9107  0F7B  1C6B               	btfss	___fladd@b+3,0
  9108  0F7C  2F7E               	goto	u2811
  9109  0F7D  2F7F               	goto	u2810
  9110  0F7E                     u2811:	
  9111  0F7E  2FBF               	goto	l583
  9112  0F7F                     u2810:	
  9113  0F7F                     l2325:	
  9114  0F7F  0868               	movf	___fladd@b,w
  9115  0F80  1683               	bsf	3,5	;RP0=1, select bank1
  9116  0F81  1303               	bcf	3,6	;RP1=0, select bank1
  9117  0F82  00AD               	movwf	??___fladd^(0+128)
  9118  0F83  1283               	bcf	3,5	;RP0=0, select bank0
  9119  0F84  1303               	bcf	3,6	;RP1=0, select bank0
  9120  0F85  0869               	movf	___fladd@b+1,w
  9121  0F86  1683               	bsf	3,5	;RP0=1, select bank1
  9122  0F87  1303               	bcf	3,6	;RP1=0, select bank1
  9123  0F88  00AE               	movwf	(??___fladd^(0+128)+1)
  9124  0F89  1283               	bcf	3,5	;RP0=0, select bank0
  9125  0F8A  1303               	bcf	3,6	;RP1=0, select bank0
  9126  0F8B  086A               	movf	___fladd@b+2,w
  9127  0F8C  1683               	bsf	3,5	;RP0=1, select bank1
  9128  0F8D  1303               	bcf	3,6	;RP1=0, select bank1
  9129  0F8E  00AF               	movwf	(??___fladd^(0+128)+2)
  9130  0F8F  1283               	bcf	3,5	;RP0=0, select bank0
  9131  0F90  1303               	bcf	3,6	;RP1=0, select bank0
  9132  0F91  086B               	movf	___fladd@b+3,w
  9133  0F92  1683               	bsf	3,5	;RP0=1, select bank1
  9134  0F93  1303               	bcf	3,6	;RP1=0, select bank1
  9135  0F94  00B0               	movwf	(??___fladd^(0+128)+3)
  9136  0F95  3001               	movlw	1
  9137  0F96  00B1               	movwf	(??___fladd+4)^(0+128)
  9138  0F97                     u2825:	
  9139  0F97  0D30               	rlf	(??___fladd^(0+128)+3),w
  9140  0F98  0CB0               	rrf	(??___fladd^(0+128)+3),f
  9141  0F99  0CAF               	rrf	(??___fladd^(0+128)+2),f
  9142  0F9A  0CAE               	rrf	(??___fladd^(0+128)+1),f
  9143  0F9B  0CAD               	rrf	??___fladd^(0+128),f
  9144  0F9C                     u2820:	
  9145  0F9C  0BB1               	decfsz	(??___fladd+4)^(0+128),f
  9146  0F9D  2F97               	goto	u2825
  9147  0F9E  0830               	movf	(??___fladd+3)^(0+128),w
  9148  0F9F  1283               	bcf	3,5	;RP0=0, select bank0
  9149  0FA0  1303               	bcf	3,6	;RP1=0, select bank0
  9150  0FA1  00EB               	movwf	___fladd@b+3
  9151  0FA2  1683               	bsf	3,5	;RP0=1, select bank1
  9152  0FA3  1303               	bcf	3,6	;RP1=0, select bank1
  9153  0FA4  082F               	movf	(??___fladd+2)^(0+128),w
  9154  0FA5  1283               	bcf	3,5	;RP0=0, select bank0
  9155  0FA6  1303               	bcf	3,6	;RP1=0, select bank0
  9156  0FA7  00EA               	movwf	___fladd@b+2
  9157  0FA8  1683               	bsf	3,5	;RP0=1, select bank1
  9158  0FA9  1303               	bcf	3,6	;RP1=0, select bank1
  9159  0FAA  082E               	movf	(??___fladd+1)^(0+128),w
  9160  0FAB  1283               	bcf	3,5	;RP0=0, select bank0
  9161  0FAC  1303               	bcf	3,6	;RP1=0, select bank0
  9162  0FAD  00E9               	movwf	___fladd@b+1
  9163  0FAE  1683               	bsf	3,5	;RP0=1, select bank1
  9164  0FAF  1303               	bcf	3,6	;RP1=0, select bank1
  9165  0FB0  082D               	movf	??___fladd^(0+128),w
  9166  0FB1  1283               	bcf	3,5	;RP0=0, select bank0
  9167  0FB2  1303               	bcf	3,6	;RP1=0, select bank0
  9168  0FB3  00E8               	movwf	___fladd@b
  9169  0FB4  1683               	bsf	3,5	;RP0=1, select bank1
  9170  0FB5  1303               	bcf	3,6	;RP1=0, select bank1
  9171  0FB6  0A37               	incf	___fladd@bexp^(0+128),w
  9172  0FB7  1903               	btfsc	3,2
  9173  0FB8  2FBA               	goto	u2831
  9174  0FB9  2FBB               	goto	u2830
  9175  0FBA                     u2831:	
  9176  0FBA  2FBF               	goto	l583
  9177  0FBB                     u2830:	
  9178  0FBB                     l2327:	
  9179  0FBB  3001               	movlw	1
  9180  0FBC  00AD               	movwf	??___fladd^(0+128)
  9181  0FBD  082D               	movf	??___fladd^(0+128),w
  9182  0FBE  07B7               	addwf	___fladd@bexp^(0+128),f
  9183  0FBF                     l583:	
  9184  0FBF  1683               	bsf	3,5	;RP0=1, select bank1
  9185  0FC0  1303               	bcf	3,6	;RP1=0, select bank1
  9186  0FC1  0A37               	incf	___fladd@bexp^(0+128),w
  9187  0FC2  1903               	btfsc	3,2
  9188  0FC3  2FC5               	goto	u2841
  9189  0FC4  2FC6               	goto	u2840
  9190  0FC5                     u2841:	
  9191  0FC5  2FCB               	goto	l2331
  9192  0FC6                     u2840:	
  9193  0FC6                     l2329:	
  9194  0FC6  0837               	movf	___fladd@bexp^(0+128),w
  9195  0FC7  1D03               	btfss	3,2
  9196  0FC8  2FCA               	goto	u2851
  9197  0FC9  2FCB               	goto	u2850
  9198  0FCA                     u2851:	
  9199  0FCA  2FDD               	goto	l2337
  9200  0FCB                     u2850:	
  9201  0FCB                     l2331:	
  9202  0FCB  3000               	movlw	0
  9203  0FCC  1283               	bcf	3,5	;RP0=0, select bank0
  9204  0FCD  1303               	bcf	3,6	;RP1=0, select bank0
  9205  0FCE  00EB               	movwf	___fladd@b+3
  9206  0FCF  3000               	movlw	0
  9207  0FD0  00EA               	movwf	___fladd@b+2
  9208  0FD1  3000               	movlw	0
  9209  0FD2  00E9               	movwf	___fladd@b+1
  9210  0FD3  3000               	movlw	0
  9211  0FD4  00E8               	movwf	___fladd@b
  9212  0FD5                     l2333:	
  9213  0FD5  1683               	bsf	3,5	;RP0=1, select bank1
  9214  0FD6  1303               	bcf	3,6	;RP1=0, select bank1
  9215  0FD7  0837               	movf	___fladd@bexp^(0+128),w
  9216  0FD8  1D03               	btfss	3,2
  9217  0FD9  2FDB               	goto	u2861
  9218  0FDA  2FDC               	goto	u2860
  9219  0FDB                     u2861:	
  9220  0FDB  2FDD               	goto	l2337
  9221  0FDC                     u2860:	
  9222  0FDC                     l2335:	
  9223  0FDC  01B5               	clrf	___fladd@signs^(0+128)
  9224  0FDD                     l2337:	
  9225  0FDD  1C37               	btfss	___fladd@bexp^(0+128),0
  9226  0FDE  2FE0               	goto	u2871
  9227  0FDF  2FE1               	goto	u2870
  9228  0FE0                     u2871:	
  9229  0FE0  2FE5               	goto	l2341
  9230  0FE1                     u2870:	
  9231  0FE1                     l2339:	
  9232  0FE1  1283               	bcf	3,5	;RP0=0, select bank0
  9233  0FE2  1303               	bcf	3,6	;RP1=0, select bank0
  9234  0FE3  17EA               	bsf	___fladd@b+2,7
  9235  0FE4  2FEB               	goto	l591
  9236  0FE5                     l2341:	
  9237  0FE5  307F               	movlw	127
  9238  0FE6  00AD               	movwf	??___fladd^(0+128)
  9239  0FE7  082D               	movf	??___fladd^(0+128),w
  9240  0FE8  1283               	bcf	3,5	;RP0=0, select bank0
  9241  0FE9  1303               	bcf	3,6	;RP1=0, select bank0
  9242  0FEA  05EA               	andwf	___fladd@b+2,f
  9243  0FEB                     l591:	
  9244  0FEB  1683               	bsf	3,5	;RP0=1, select bank1
  9245  0FEC  1303               	bcf	3,6	;RP1=0, select bank1
  9246  0FED  0837               	movf	___fladd@bexp^(0+128),w
  9247  0FEE  00AD               	movwf	??___fladd^(0+128)
  9248  0FEF  1003               	clrc
  9249  0FF0  0C2D               	rrf	??___fladd^(0+128),w
  9250  0FF1  00AE               	movwf	(??___fladd+1)^(0+128)
  9251  0FF2  082E               	movf	(??___fladd+1)^(0+128),w
  9252  0FF3  1283               	bcf	3,5	;RP0=0, select bank0
  9253  0FF4  1303               	bcf	3,6	;RP1=0, select bank0
  9254  0FF5  00EB               	movwf	___fladd@b+3
  9255  0FF6                     l2343:	
  9256  0FF6  1683               	bsf	3,5	;RP0=1, select bank1
  9257  0FF7  1303               	bcf	3,6	;RP1=0, select bank1
  9258  0FF8  1FB5               	btfss	___fladd@signs^(0+128),7
  9259  0FF9  2FFB               	goto	u2881
  9260  0FFA  2FFC               	goto	u2880
  9261  0FFB                     u2881:	
  9262  0FFB  2FFF               	goto	l592
  9263  0FFC                     u2880:	
  9264  0FFC                     l2345:	
  9265  0FFC  1283               	bcf	3,5	;RP0=0, select bank0
  9266  0FFD  1303               	bcf	3,6	;RP1=0, select bank0
  9267  0FFE  17EB               	bsf	___fladd@b+3,7
  9268  0FFF                     l592:	
  9269  0FFF                     l562:	
  9270  0FFF  0008               	return
  9271  1000                     __end_of___fladd:	
  9272                           
  9273                           	psect	text22
  9274  1931                     __ptext22:	
  9275 ;; *************** function ___flneg *****************
  9276 ;; Defined at:
  9277 ;;		line 15 in file "C:\Program Files (x86)\Microchip\xc8\v2.10\pic\sources\c90\common\flneg.c"
  9278 ;; Parameters:    Size  Location     Type
  9279 ;;  f1              4    0[BANK0 ] unsigned char 
  9280 ;; Auto vars:     Size  Location     Type
  9281 ;;		None
  9282 ;; Return value:  Size  Location     Type
  9283 ;;                  4    0[BANK0 ] unsigned char 
  9284 ;; Registers used:
  9285 ;;		wreg
  9286 ;; Tracked objects:
  9287 ;;		On entry : 0/0
  9288 ;;		On exit  : 0/0
  9289 ;;		Unchanged: 0/0
  9290 ;; Data sizes:     COMMON   BANK0   BANK1   BANK3   BANK2
  9291 ;;      Params:         0       4       0       0       0
  9292 ;;      Locals:         0       0       0       0       0
  9293 ;;      Temps:          0       0       0       0       0
  9294 ;;      Totals:         0       4       0       0       0
  9295 ;;Total ram usage:        4 bytes
  9296 ;; Hardware stack levels used:    1
  9297 ;; Hardware stack levels required when called:    2
  9298 ;; This function calls:
  9299 ;;		Nothing
  9300 ;; This function is called by:
  9301 ;;		_pow
  9302 ;;		_exp
  9303 ;; This function uses a non-reentrant model
  9304 ;;
  9305                           
  9306                           
  9307                           ;psect for function ___flneg
  9308  1931                     ___flneg:	
  9309  1931                     l3251:	
  9310                           ;incstack = 0
  9311                           ; Regs used in ___flneg: [wreg]
  9312                           
  9313  1931  1283               	bcf	3,5	;RP0=0, select bank0
  9314  1932  1303               	bcf	3,6	;RP1=0, select bank0
  9315  1933  0823               	movf	___flneg@f1+3,w
  9316  1934  0422               	iorwf	___flneg@f1+2,w
  9317  1935  0421               	iorwf	___flneg@f1+1,w
  9318  1936  0420               	iorwf	___flneg@f1,w
  9319  1937  1903               	skipnz
  9320  1938  293A               	goto	u4401
  9321  1939  293B               	goto	u4400
  9322  193A                     u4401:	
  9323  193A  293D               	goto	l3255
  9324  193B                     u4400:	
  9325  193B                     l3253:	
  9326  193B  3080               	movlw	128
  9327  193C  06A3               	xorwf	___flneg@f1+3,f
  9328  193D                     l3255:	
  9329  193D                     l438:	
  9330  193D  0008               	return
  9331  193E                     __end_of___flneg:	
  9332                           
  9333                           	psect	text23
  9334  09DC                     __ptext23:	
  9335 ;; *************** function ___fldiv *****************
  9336 ;; Defined at:
  9337 ;;		line 8 in file "C:\Program Files (x86)\Microchip\xc8\v2.10\pic\sources\c90\common\sprcdiv.c"
  9338 ;; Parameters:    Size  Location     Type
  9339 ;;  a               4   59[BANK0 ] unsigned char 
  9340 ;;  b               4   63[BANK0 ] unsigned char 
  9341 ;; Auto vars:     Size  Location     Type
  9342 ;;  grs             4    7[BANK1 ] unsigned long 
  9343 ;;  rem             4    0[BANK1 ] unsigned long 
  9344 ;;  new_exp         2    5[BANK1 ] int 
  9345 ;;  aexp            1   12[BANK1 ] unsigned char 
  9346 ;;  bexp            1   11[BANK1 ] unsigned char 
  9347 ;;  sign            1    4[BANK1 ] unsigned char 
  9348 ;; Return value:  Size  Location     Type
  9349 ;;                  4   59[BANK0 ] unsigned char 
  9350 ;; Registers used:
  9351 ;;		wreg, status,2, status,0, btemp+1
  9352 ;; Tracked objects:
  9353 ;;		On entry : 0/0
  9354 ;;		On exit  : 0/0
  9355 ;;		Unchanged: 0/0
  9356 ;; Data sizes:     COMMON   BANK0   BANK1   BANK3   BANK2
  9357 ;;      Params:         0       8       0       0       0
  9358 ;;      Locals:         0       0      13       0       0
  9359 ;;      Temps:          0       5       0       0       0
  9360 ;;      Totals:         0      13      13       0       0
  9361 ;;Total ram usage:       26 bytes
  9362 ;; Hardware stack levels used:    1
  9363 ;; Hardware stack levels required when called:    2
  9364 ;; This function calls:
  9365 ;;		Nothing
  9366 ;; This function is called by:
  9367 ;;		_main
  9368 ;;		_exp
  9369 ;; This function uses a non-reentrant model
  9370 ;;
  9371                           
  9372                           
  9373                           ;psect for function ___fldiv
  9374  09DC                     ___fldiv:	
  9375  09DC                     l2565:	
  9376                           ;incstack = 0
  9377                           ; Regs used in ___fldiv: [wreg+status,2+status,0+btemp+1]
  9378                           
  9379  09DC  1283               	bcf	3,5	;RP0=0, select bank0
  9380  09DD  1303               	bcf	3,6	;RP1=0, select bank0
  9381  09DE  0862               	movf	___fldiv@b+3,w
  9382  09DF  3980               	andlw	128
  9383  09E0  00E3               	movwf	??___fldiv
  9384  09E1  0863               	movf	??___fldiv,w
  9385  09E2  1683               	bsf	3,5	;RP0=1, select bank1
  9386  09E3  1303               	bcf	3,6	;RP1=0, select bank1
  9387  09E4  00A4               	movwf	___fldiv@sign^(0+128)
  9388  09E5                     l2567:	
  9389  09E5  1283               	bcf	3,5	;RP0=0, select bank0
  9390  09E6  1303               	bcf	3,6	;RP1=0, select bank0
  9391  09E7  0862               	movf	___fldiv@b+3,w
  9392  09E8  00E3               	movwf	??___fldiv
  9393  09E9  0763               	addwf	??___fldiv,w
  9394  09EA  00E4               	movwf	??___fldiv+1
  9395  09EB  0864               	movf	??___fldiv+1,w
  9396  09EC  1683               	bsf	3,5	;RP0=1, select bank1
  9397  09ED  1303               	bcf	3,6	;RP1=0, select bank1
  9398  09EE  00AB               	movwf	___fldiv@bexp^(0+128)
  9399  09EF                     l2569:	
  9400  09EF  1283               	bcf	3,5	;RP0=0, select bank0
  9401  09F0  1303               	bcf	3,6	;RP1=0, select bank0
  9402  09F1  1FE1               	btfss	___fldiv@b+2,7
  9403  09F2  29F4               	goto	u3421
  9404  09F3  29F5               	goto	u3420
  9405  09F4                     u3421:	
  9406  09F4  29F8               	goto	l2573
  9407  09F5                     u3420:	
  9408  09F5                     l2571:	
  9409  09F5  1683               	bsf	3,5	;RP0=1, select bank1
  9410  09F6  1303               	bcf	3,6	;RP1=0, select bank1
  9411  09F7  142B               	bsf	___fldiv@bexp^(0+128),0
  9412  09F8                     l2573:	
  9413  09F8  1683               	bsf	3,5	;RP0=1, select bank1
  9414  09F9  1303               	bcf	3,6	;RP1=0, select bank1
  9415  09FA  082B               	movf	___fldiv@bexp^(0+128),w
  9416  09FB  1903               	btfsc	3,2
  9417  09FC  29FE               	goto	u3431
  9418  09FD  29FF               	goto	u3430
  9419  09FE                     u3431:	
  9420  09FE  2A12               	goto	l2583
  9421  09FF                     u3430:	
  9422  09FF                     l2575:	
  9423  09FF  0A2B               	incf	___fldiv@bexp^(0+128),w
  9424  0A00  1D03               	btfss	3,2
  9425  0A01  2A03               	goto	u3441
  9426  0A02  2A04               	goto	u3440
  9427  0A03                     u3441:	
  9428  0A03  2A0E               	goto	l2579
  9429  0A04                     u3440:	
  9430  0A04                     l2577:	
  9431  0A04  3000               	movlw	0
  9432  0A05  1283               	bcf	3,5	;RP0=0, select bank0
  9433  0A06  1303               	bcf	3,6	;RP1=0, select bank0
  9434  0A07  00E2               	movwf	___fldiv@b+3
  9435  0A08  3000               	movlw	0
  9436  0A09  00E1               	movwf	___fldiv@b+2
  9437  0A0A  3000               	movlw	0
  9438  0A0B  00E0               	movwf	___fldiv@b+1
  9439  0A0C  3000               	movlw	0
  9440  0A0D  00DF               	movwf	___fldiv@b
  9441  0A0E                     l2579:	
  9442  0A0E  1283               	bcf	3,5	;RP0=0, select bank0
  9443  0A0F  17E1               	bsf	___fldiv@b+2,7
  9444  0A10                     l2581:	
  9445  0A10  01E2               	clrf	___fldiv@b+3
  9446  0A11  2A1C               	goto	l2585
  9447  0A12                     l2583:	
  9448  0A12  3000               	movlw	0
  9449  0A13  1283               	bcf	3,5	;RP0=0, select bank0
  9450  0A14  1303               	bcf	3,6	;RP1=0, select bank0
  9451  0A15  00E2               	movwf	___fldiv@b+3
  9452  0A16  3000               	movlw	0
  9453  0A17  00E1               	movwf	___fldiv@b+2
  9454  0A18  3000               	movlw	0
  9455  0A19  00E0               	movwf	___fldiv@b+1
  9456  0A1A  3000               	movlw	0
  9457  0A1B  00DF               	movwf	___fldiv@b
  9458  0A1C                     l2585:	
  9459  0A1C  085E               	movf	___fldiv@a+3,w
  9460  0A1D  3980               	andlw	128
  9461  0A1E  00E3               	movwf	??___fldiv
  9462  0A1F  0863               	movf	??___fldiv,w
  9463  0A20  1683               	bsf	3,5	;RP0=1, select bank1
  9464  0A21  1303               	bcf	3,6	;RP1=0, select bank1
  9465  0A22  06A4               	xorwf	___fldiv@sign^(0+128),f
  9466  0A23                     l2587:	
  9467  0A23  1283               	bcf	3,5	;RP0=0, select bank0
  9468  0A24  1303               	bcf	3,6	;RP1=0, select bank0
  9469  0A25  085E               	movf	___fldiv@a+3,w
  9470  0A26  00E3               	movwf	??___fldiv
  9471  0A27  0763               	addwf	??___fldiv,w
  9472  0A28  00E4               	movwf	??___fldiv+1
  9473  0A29  0864               	movf	??___fldiv+1,w
  9474  0A2A  1683               	bsf	3,5	;RP0=1, select bank1
  9475  0A2B  1303               	bcf	3,6	;RP1=0, select bank1
  9476  0A2C  00AC               	movwf	___fldiv@aexp^(0+128)
  9477  0A2D                     l2589:	
  9478  0A2D  1283               	bcf	3,5	;RP0=0, select bank0
  9479  0A2E  1303               	bcf	3,6	;RP1=0, select bank0
  9480  0A2F  1FDD               	btfss	___fldiv@a+2,7
  9481  0A30  2A32               	goto	u3451
  9482  0A31  2A33               	goto	u3450
  9483  0A32                     u3451:	
  9484  0A32  2A36               	goto	l2593
  9485  0A33                     u3450:	
  9486  0A33                     l2591:	
  9487  0A33  1683               	bsf	3,5	;RP0=1, select bank1
  9488  0A34  1303               	bcf	3,6	;RP1=0, select bank1
  9489  0A35  142C               	bsf	___fldiv@aexp^(0+128),0
  9490  0A36                     l2593:	
  9491  0A36  1683               	bsf	3,5	;RP0=1, select bank1
  9492  0A37  1303               	bcf	3,6	;RP1=0, select bank1
  9493  0A38  082C               	movf	___fldiv@aexp^(0+128),w
  9494  0A39  1903               	btfsc	3,2
  9495  0A3A  2A3C               	goto	u3461
  9496  0A3B  2A3D               	goto	u3460
  9497  0A3C                     u3461:	
  9498  0A3C  2A50               	goto	l2603
  9499  0A3D                     u3460:	
  9500  0A3D                     l2595:	
  9501  0A3D  0A2C               	incf	___fldiv@aexp^(0+128),w
  9502  0A3E  1D03               	btfss	3,2
  9503  0A3F  2A41               	goto	u3471
  9504  0A40  2A42               	goto	u3470
  9505  0A41                     u3471:	
  9506  0A41  2A4C               	goto	l2599
  9507  0A42                     u3470:	
  9508  0A42                     l2597:	
  9509  0A42  3000               	movlw	0
  9510  0A43  1283               	bcf	3,5	;RP0=0, select bank0
  9511  0A44  1303               	bcf	3,6	;RP1=0, select bank0
  9512  0A45  00DE               	movwf	___fldiv@a+3
  9513  0A46  3000               	movlw	0
  9514  0A47  00DD               	movwf	___fldiv@a+2
  9515  0A48  3000               	movlw	0
  9516  0A49  00DC               	movwf	___fldiv@a+1
  9517  0A4A  3000               	movlw	0
  9518  0A4B  00DB               	movwf	___fldiv@a
  9519  0A4C                     l2599:	
  9520  0A4C  1283               	bcf	3,5	;RP0=0, select bank0
  9521  0A4D  17DD               	bsf	___fldiv@a+2,7
  9522  0A4E                     l2601:	
  9523  0A4E  01DE               	clrf	___fldiv@a+3
  9524  0A4F  2A5A               	goto	l605
  9525  0A50                     l2603:	
  9526  0A50  3000               	movlw	0
  9527  0A51  1283               	bcf	3,5	;RP0=0, select bank0
  9528  0A52  1303               	bcf	3,6	;RP1=0, select bank0
  9529  0A53  00DE               	movwf	___fldiv@a+3
  9530  0A54  3000               	movlw	0
  9531  0A55  00DD               	movwf	___fldiv@a+2
  9532  0A56  3000               	movlw	0
  9533  0A57  00DC               	movwf	___fldiv@a+1
  9534  0A58  3000               	movlw	0
  9535  0A59  00DB               	movwf	___fldiv@a
  9536  0A5A                     l605:	
  9537  0A5A  085E               	movf	___fldiv@a+3,w
  9538  0A5B  045D               	iorwf	___fldiv@a+2,w
  9539  0A5C  045C               	iorwf	___fldiv@a+1,w
  9540  0A5D  045B               	iorwf	___fldiv@a,w
  9541  0A5E  1D03               	skipz
  9542  0A5F  2A61               	goto	u3481
  9543  0A60  2A62               	goto	u3480
  9544  0A61                     u3481:	
  9545  0A61  2A7F               	goto	l2613
  9546  0A62                     u3480:	
  9547  0A62                     l2605:	
  9548  0A62  3000               	movlw	0
  9549  0A63  00E2               	movwf	___fldiv@b+3
  9550  0A64  3000               	movlw	0
  9551  0A65  00E1               	movwf	___fldiv@b+2
  9552  0A66  3000               	movlw	0
  9553  0A67  00E0               	movwf	___fldiv@b+1
  9554  0A68  3000               	movlw	0
  9555  0A69  00DF               	movwf	___fldiv@b
  9556  0A6A  3080               	movlw	128
  9557  0A6B  04E1               	iorwf	___fldiv@b+2,f
  9558  0A6C  307F               	movlw	127
  9559  0A6D  04E2               	iorwf	___fldiv@b+3,f
  9560  0A6E                     l2607:	
  9561  0A6E  1683               	bsf	3,5	;RP0=1, select bank1
  9562  0A6F  1303               	bcf	3,6	;RP1=0, select bank1
  9563  0A70  0824               	movf	___fldiv@sign^(0+128),w
  9564  0A71  1283               	bcf	3,5	;RP0=0, select bank0
  9565  0A72  1303               	bcf	3,6	;RP1=0, select bank0
  9566  0A73  00E3               	movwf	??___fldiv
  9567  0A74  0863               	movf	??___fldiv,w
  9568  0A75  04E2               	iorwf	___fldiv@b+3,f
  9569  0A76                     l2609:	
  9570  0A76  0862               	movf	___fldiv@b+3,w
  9571  0A77  00DE               	movwf	?___fldiv+3
  9572  0A78  0861               	movf	___fldiv@b+2,w
  9573  0A79  00DD               	movwf	?___fldiv+2
  9574  0A7A  0860               	movf	___fldiv@b+1,w
  9575  0A7B  00DC               	movwf	?___fldiv+1
  9576  0A7C  085F               	movf	___fldiv@b,w
  9577  0A7D  00DB               	movwf	?___fldiv
  9578  0A7E  2C7B               	goto	l607
  9579  0A7F                     l2613:	
  9580  0A7F  1683               	bsf	3,5	;RP0=1, select bank1
  9581  0A80  1303               	bcf	3,6	;RP1=0, select bank1
  9582  0A81  082B               	movf	___fldiv@bexp^(0+128),w
  9583  0A82  1D03               	btfss	3,2
  9584  0A83  2A85               	goto	u3491
  9585  0A84  2A86               	goto	u3490
  9586  0A85                     u3491:	
  9587  0A85  2A91               	goto	l2619
  9588  0A86                     u3490:	
  9589  0A86                     l2615:	
  9590  0A86  3000               	movlw	0
  9591  0A87  1283               	bcf	3,5	;RP0=0, select bank0
  9592  0A88  1303               	bcf	3,6	;RP1=0, select bank0
  9593  0A89  00DE               	movwf	?___fldiv+3
  9594  0A8A  3000               	movlw	0
  9595  0A8B  00DD               	movwf	?___fldiv+2
  9596  0A8C  3000               	movlw	0
  9597  0A8D  00DC               	movwf	?___fldiv+1
  9598  0A8E  3000               	movlw	0
  9599  0A8F  00DB               	movwf	?___fldiv
  9600  0A90  2C7B               	goto	l607
  9601  0A91                     l2619:	
  9602  0A91  082B               	movf	___fldiv@bexp^(0+128),w
  9603  0A92  1283               	bcf	3,5	;RP0=0, select bank0
  9604  0A93  1303               	bcf	3,6	;RP1=0, select bank0
  9605  0A94  00E3               	movwf	??___fldiv
  9606  0A95  01E4               	clrf	??___fldiv+1
  9607  0A96  0864               	movf	??___fldiv+1,w
  9608  0A97  00E6               	movwf	??___fldiv+3
  9609  0A98  1683               	bsf	3,5	;RP0=1, select bank1
  9610  0A99  1303               	bcf	3,6	;RP1=0, select bank1
  9611  0A9A  082C               	movf	___fldiv@aexp^(0+128),w
  9612  0A9B  1283               	bcf	3,5	;RP0=0, select bank0
  9613  0A9C  1303               	bcf	3,6	;RP1=0, select bank0
  9614  0A9D  0263               	subwf	??___fldiv,w
  9615  0A9E  00E5               	movwf	??___fldiv+2
  9616  0A9F  1C03               	skipc
  9617  0AA0  03E6               	decf	??___fldiv+3,f
  9618  0AA1  0865               	movf	??___fldiv+2,w
  9619  0AA2  3E7F               	addlw	127
  9620  0AA3  1683               	bsf	3,5	;RP0=1, select bank1
  9621  0AA4  1303               	bcf	3,6	;RP1=0, select bank1
  9622  0AA5  00A5               	movwf	___fldiv@new_exp^(0+128)
  9623  0AA6  1283               	bcf	3,5	;RP0=0, select bank0
  9624  0AA7  1303               	bcf	3,6	;RP1=0, select bank0
  9625  0AA8  0866               	movf	??___fldiv+3,w
  9626  0AA9  1803               	skipnc
  9627  0AAA  3E01               	addlw	1
  9628  0AAB  3E00               	addlw	0
  9629  0AAC  1683               	bsf	3,5	;RP0=1, select bank1
  9630  0AAD  1303               	bcf	3,6	;RP1=0, select bank1
  9631  0AAE  00A6               	movwf	(___fldiv@new_exp+1)^(0+128)
  9632  0AAF                     l2621:	
  9633  0AAF  1283               	bcf	3,5	;RP0=0, select bank0
  9634  0AB0  1303               	bcf	3,6	;RP1=0, select bank0
  9635  0AB1  0862               	movf	___fldiv@b+3,w
  9636  0AB2  1683               	bsf	3,5	;RP0=1, select bank1
  9637  0AB3  1303               	bcf	3,6	;RP1=0, select bank1
  9638  0AB4  00A3               	movwf	(___fldiv@rem+3)^(0+128)
  9639  0AB5  1283               	bcf	3,5	;RP0=0, select bank0
  9640  0AB6  1303               	bcf	3,6	;RP1=0, select bank0
  9641  0AB7  0861               	movf	___fldiv@b+2,w
  9642  0AB8  1683               	bsf	3,5	;RP0=1, select bank1
  9643  0AB9  1303               	bcf	3,6	;RP1=0, select bank1
  9644  0ABA  00A2               	movwf	(___fldiv@rem+2)^(0+128)
  9645  0ABB  1283               	bcf	3,5	;RP0=0, select bank0
  9646  0ABC  1303               	bcf	3,6	;RP1=0, select bank0
  9647  0ABD  0860               	movf	___fldiv@b+1,w
  9648  0ABE  1683               	bsf	3,5	;RP0=1, select bank1
  9649  0ABF  1303               	bcf	3,6	;RP1=0, select bank1
  9650  0AC0  00A1               	movwf	(___fldiv@rem+1)^(0+128)
  9651  0AC1  1283               	bcf	3,5	;RP0=0, select bank0
  9652  0AC2  1303               	bcf	3,6	;RP1=0, select bank0
  9653  0AC3  085F               	movf	___fldiv@b,w
  9654  0AC4  1683               	bsf	3,5	;RP0=1, select bank1
  9655  0AC5  1303               	bcf	3,6	;RP1=0, select bank1
  9656  0AC6  00A0               	movwf	___fldiv@rem^(0+128)
  9657  0AC7                     l2623:	
  9658  0AC7  3000               	movlw	0
  9659  0AC8  1283               	bcf	3,5	;RP0=0, select bank0
  9660  0AC9  1303               	bcf	3,6	;RP1=0, select bank0
  9661  0ACA  00E2               	movwf	___fldiv@b+3
  9662  0ACB  3000               	movlw	0
  9663  0ACC  00E1               	movwf	___fldiv@b+2
  9664  0ACD  3000               	movlw	0
  9665  0ACE  00E0               	movwf	___fldiv@b+1
  9666  0ACF  3000               	movlw	0
  9667  0AD0  00DF               	movwf	___fldiv@b
  9668  0AD1                     l2625:	
  9669  0AD1  3000               	movlw	0
  9670  0AD2  1683               	bsf	3,5	;RP0=1, select bank1
  9671  0AD3  1303               	bcf	3,6	;RP1=0, select bank1
  9672  0AD4  00AA               	movwf	(___fldiv@grs+3)^(0+128)
  9673  0AD5  3000               	movlw	0
  9674  0AD6  00A9               	movwf	(___fldiv@grs+2)^(0+128)
  9675  0AD7  3000               	movlw	0
  9676  0AD8  00A8               	movwf	(___fldiv@grs+1)^(0+128)
  9677  0AD9  3000               	movlw	0
  9678  0ADA  00A7               	movwf	___fldiv@grs^(0+128)
  9679  0ADB                     l2627:	
  9680  0ADB  01AC               	clrf	___fldiv@aexp^(0+128)
  9681  0ADC  2B63               	goto	l2647
  9682  0ADD                     l2629:	
  9683  0ADD  082C               	movf	___fldiv@aexp^(0+128),w
  9684  0ADE  1903               	btfsc	3,2
  9685  0ADF  2AE1               	goto	u3501
  9686  0AE0  2AE2               	goto	u3500
  9687  0AE1                     u3501:	
  9688  0AE1  2B11               	goto	l2639
  9689  0AE2                     u3500:	
  9690  0AE2                     l2631:	
  9691  0AE2  3001               	movlw	1
  9692  0AE3  1283               	bcf	3,5	;RP0=0, select bank0
  9693  0AE4  1303               	bcf	3,6	;RP1=0, select bank0
  9694  0AE5  00E3               	movwf	??___fldiv
  9695  0AE6                     u3515:	
  9696  0AE6  1003               	clrc
  9697  0AE7  1683               	bsf	3,5	;RP0=1, select bank1
  9698  0AE8  1303               	bcf	3,6	;RP1=0, select bank1
  9699  0AE9  0DA0               	rlf	___fldiv@rem^(0+128),f
  9700  0AEA  0DA1               	rlf	(___fldiv@rem+1)^(0+128),f
  9701  0AEB  0DA2               	rlf	(___fldiv@rem+2)^(0+128),f
  9702  0AEC  0DA3               	rlf	(___fldiv@rem+3)^(0+128),f
  9703  0AED  1283               	bcf	3,5	;RP0=0, select bank0
  9704  0AEE  1303               	bcf	3,6	;RP1=0, select bank0
  9705  0AEF  0BE3               	decfsz	??___fldiv,f
  9706  0AF0  2AE6               	goto	u3515
  9707  0AF1  3001               	movlw	1
  9708  0AF2  00E3               	movwf	??___fldiv
  9709  0AF3                     u3525:	
  9710  0AF3  1003               	clrc
  9711  0AF4  0DDF               	rlf	___fldiv@b,f
  9712  0AF5  0DE0               	rlf	___fldiv@b+1,f
  9713  0AF6  0DE1               	rlf	___fldiv@b+2,f
  9714  0AF7  0DE2               	rlf	___fldiv@b+3,f
  9715  0AF8  0BE3               	decfsz	??___fldiv,f
  9716  0AF9  2AF3               	goto	u3525
  9717  0AFA                     l2633:	
  9718  0AFA  1683               	bsf	3,5	;RP0=1, select bank1
  9719  0AFB  1303               	bcf	3,6	;RP1=0, select bank1
  9720  0AFC  1FAA               	btfss	(___fldiv@grs+3)^(0+128),7
  9721  0AFD  2AFF               	goto	u3531
  9722  0AFE  2B00               	goto	u3530
  9723  0AFF                     u3531:	
  9724  0AFF  2B03               	goto	l2637
  9725  0B00                     u3530:	
  9726  0B00                     l2635:	
  9727  0B00  1283               	bcf	3,5	;RP0=0, select bank0
  9728  0B01  1303               	bcf	3,6	;RP1=0, select bank0
  9729  0B02  145F               	bsf	___fldiv@b,0
  9730  0B03                     l2637:	
  9731  0B03  3001               	movlw	1
  9732  0B04  1283               	bcf	3,5	;RP0=0, select bank0
  9733  0B05  00E3               	movwf	??___fldiv
  9734  0B06                     u3545:	
  9735  0B06  1003               	clrc
  9736  0B07  1683               	bsf	3,5	;RP0=1, select bank1
  9737  0B08  1303               	bcf	3,6	;RP1=0, select bank1
  9738  0B09  0DA7               	rlf	___fldiv@grs^(0+128),f
  9739  0B0A  0DA8               	rlf	(___fldiv@grs+1)^(0+128),f
  9740  0B0B  0DA9               	rlf	(___fldiv@grs+2)^(0+128),f
  9741  0B0C  0DAA               	rlf	(___fldiv@grs+3)^(0+128),f
  9742  0B0D  1283               	bcf	3,5	;RP0=0, select bank0
  9743  0B0E  1303               	bcf	3,6	;RP1=0, select bank0
  9744  0B0F  0BE3               	decfsz	??___fldiv,f
  9745  0B10  2B06               	goto	u3545
  9746  0B11                     l2639:	
  9747  0B11  1283               	bcf	3,5	;RP0=0, select bank0
  9748  0B12  085E               	movf	___fldiv@a+3,w
  9749  0B13  1683               	bsf	3,5	;RP0=1, select bank1
  9750  0B14  1303               	bcf	3,6	;RP1=0, select bank1
  9751  0B15  0223               	subwf	(___fldiv@rem+3)^(0+128),w
  9752  0B16  1D03               	skipz
  9753  0B17  2B2E               	goto	u3555
  9754  0B18  1283               	bcf	3,5	;RP0=0, select bank0
  9755  0B19  1303               	bcf	3,6	;RP1=0, select bank0
  9756  0B1A  085D               	movf	___fldiv@a+2,w
  9757  0B1B  1683               	bsf	3,5	;RP0=1, select bank1
  9758  0B1C  1303               	bcf	3,6	;RP1=0, select bank1
  9759  0B1D  0222               	subwf	(___fldiv@rem+2)^(0+128),w
  9760  0B1E  1D03               	skipz
  9761  0B1F  2B2E               	goto	u3555
  9762  0B20  1283               	bcf	3,5	;RP0=0, select bank0
  9763  0B21  1303               	bcf	3,6	;RP1=0, select bank0
  9764  0B22  085C               	movf	___fldiv@a+1,w
  9765  0B23  1683               	bsf	3,5	;RP0=1, select bank1
  9766  0B24  1303               	bcf	3,6	;RP1=0, select bank1
  9767  0B25  0221               	subwf	(___fldiv@rem+1)^(0+128),w
  9768  0B26  1D03               	skipz
  9769  0B27  2B2E               	goto	u3555
  9770  0B28  1283               	bcf	3,5	;RP0=0, select bank0
  9771  0B29  1303               	bcf	3,6	;RP1=0, select bank0
  9772  0B2A  085B               	movf	___fldiv@a,w
  9773  0B2B  1683               	bsf	3,5	;RP0=1, select bank1
  9774  0B2C  1303               	bcf	3,6	;RP1=0, select bank1
  9775  0B2D  0220               	subwf	___fldiv@rem^(0+128),w
  9776  0B2E                     u3555:	
  9777  0B2E  1C03               	skipc
  9778  0B2F  2B31               	goto	u3551
  9779  0B30  2B32               	goto	u3550
  9780  0B31                     u3551:	
  9781  0B31  2B5B               	goto	l2645
  9782  0B32                     u3550:	
  9783  0B32                     l2641:	
  9784  0B32  172A               	bsf	(___fldiv@grs^(0+128)+3),6
  9785  0B33                     l2643:	
  9786  0B33  1283               	bcf	3,5	;RP0=0, select bank0
  9787  0B34  1303               	bcf	3,6	;RP1=0, select bank0
  9788  0B35  085B               	movf	___fldiv@a,w
  9789  0B36  1683               	bsf	3,5	;RP0=1, select bank1
  9790  0B37  1303               	bcf	3,6	;RP1=0, select bank1
  9791  0B38  02A0               	subwf	___fldiv@rem^(0+128),f
  9792  0B39  1283               	bcf	3,5	;RP0=0, select bank0
  9793  0B3A  1303               	bcf	3,6	;RP1=0, select bank0
  9794  0B3B  085C               	movf	___fldiv@a+1,w
  9795  0B3C  1C03               	skipc
  9796  0B3D  0F5C               	incfsz	___fldiv@a+1,w
  9797  0B3E  2B40               	goto	u3565
  9798  0B3F  2B43               	goto	u3566
  9799  0B40                     u3565:	
  9800  0B40  1683               	bsf	3,5	;RP0=1, select bank1
  9801  0B41  1303               	bcf	3,6	;RP1=0, select bank1
  9802  0B42  02A1               	subwf	(___fldiv@rem+1)^(0+128),f
  9803  0B43                     u3566:	
  9804  0B43  1283               	bcf	3,5	;RP0=0, select bank0
  9805  0B44  1303               	bcf	3,6	;RP1=0, select bank0
  9806  0B45  085D               	movf	___fldiv@a+2,w
  9807  0B46  1C03               	skipc
  9808  0B47  0F5D               	incfsz	___fldiv@a+2,w
  9809  0B48  2B4A               	goto	u3567
  9810  0B49  2B4D               	goto	u3568
  9811  0B4A                     u3567:	
  9812  0B4A  1683               	bsf	3,5	;RP0=1, select bank1
  9813  0B4B  1303               	bcf	3,6	;RP1=0, select bank1
  9814  0B4C  02A2               	subwf	(___fldiv@rem+2)^(0+128),f
  9815  0B4D                     u3568:	
  9816  0B4D  1283               	bcf	3,5	;RP0=0, select bank0
  9817  0B4E  1303               	bcf	3,6	;RP1=0, select bank0
  9818  0B4F  085E               	movf	___fldiv@a+3,w
  9819  0B50  1C03               	skipc
  9820  0B51  0F5E               	incfsz	___fldiv@a+3,w
  9821  0B52  2B54               	goto	u3569
  9822  0B53  2B57               	goto	u3560
  9823  0B54                     u3569:	
  9824  0B54  1683               	bsf	3,5	;RP0=1, select bank1
  9825  0B55  1303               	bcf	3,6	;RP1=0, select bank1
  9826  0B56  02A3               	subwf	(___fldiv@rem+3)^(0+128),f
  9827  0B57                     u3560:	
  9828  0B57  1283               	bcf	3,5	;RP0=0, select bank0
  9829  0B58  1303               	bcf	3,6	;RP1=0, select bank0
  9830  0B59  1683               	bsf	3,5	;RP0=1, select bank1
  9831  0B5A  1303               	bcf	3,6	;RP1=0, select bank1
  9832  0B5B                     l2645:	
  9833  0B5B  3001               	movlw	1
  9834  0B5C  1283               	bcf	3,5	;RP0=0, select bank0
  9835  0B5D  1303               	bcf	3,6	;RP1=0, select bank0
  9836  0B5E  00E3               	movwf	??___fldiv
  9837  0B5F  0863               	movf	??___fldiv,w
  9838  0B60  1683               	bsf	3,5	;RP0=1, select bank1
  9839  0B61  1303               	bcf	3,6	;RP1=0, select bank1
  9840  0B62  07AC               	addwf	___fldiv@aexp^(0+128),f
  9841  0B63                     l2647:	
  9842  0B63  301A               	movlw	26
  9843  0B64  022C               	subwf	___fldiv@aexp^(0+128),w
  9844  0B65  1C03               	skipc
  9845  0B66  2B68               	goto	u3571
  9846  0B67  2B69               	goto	u3570
  9847  0B68                     u3571:	
  9848  0B68  2ADD               	goto	l2629
  9849  0B69                     u3570:	
  9850  0B69                     l2649:	
  9851  0B69  0823               	movf	(___fldiv@rem+3)^(0+128),w
  9852  0B6A  0422               	iorwf	(___fldiv@rem+2)^(0+128),w
  9853  0B6B  0421               	iorwf	(___fldiv@rem+1)^(0+128),w
  9854  0B6C  0420               	iorwf	___fldiv@rem^(0+128),w
  9855  0B6D  1903               	skipnz
  9856  0B6E  2B70               	goto	u3581
  9857  0B6F  2B71               	goto	u3580
  9858  0B70                     u3581:	
  9859  0B70  2B9B               	goto	l2663
  9860  0B71                     u3580:	
  9861  0B71                     l2651:	
  9862  0B71  1427               	bsf	___fldiv@grs^(0+128),0
  9863  0B72  2B9B               	goto	l2663
  9864  0B73                     l2653:	
  9865  0B73  3001               	movlw	1
  9866  0B74  00E3               	movwf	??___fldiv
  9867  0B75                     u3595:	
  9868  0B75  1003               	clrc
  9869  0B76  0DDF               	rlf	___fldiv@b,f
  9870  0B77  0DE0               	rlf	___fldiv@b+1,f
  9871  0B78  0DE1               	rlf	___fldiv@b+2,f
  9872  0B79  0DE2               	rlf	___fldiv@b+3,f
  9873  0B7A  0BE3               	decfsz	??___fldiv,f
  9874  0B7B  2B75               	goto	u3595
  9875  0B7C                     l2655:	
  9876  0B7C  1683               	bsf	3,5	;RP0=1, select bank1
  9877  0B7D  1303               	bcf	3,6	;RP1=0, select bank1
  9878  0B7E  1FAA               	btfss	(___fldiv@grs+3)^(0+128),7
  9879  0B7F  2B81               	goto	u3601
  9880  0B80  2B82               	goto	u3600
  9881  0B81                     u3601:	
  9882  0B81  2B85               	goto	l2659
  9883  0B82                     u3600:	
  9884  0B82                     l2657:	
  9885  0B82  1283               	bcf	3,5	;RP0=0, select bank0
  9886  0B83  1303               	bcf	3,6	;RP1=0, select bank0
  9887  0B84  145F               	bsf	___fldiv@b,0
  9888  0B85                     l2659:	
  9889  0B85  3001               	movlw	1
  9890  0B86  1283               	bcf	3,5	;RP0=0, select bank0
  9891  0B87  00E3               	movwf	??___fldiv
  9892  0B88                     u3615:	
  9893  0B88  1003               	clrc
  9894  0B89  1683               	bsf	3,5	;RP0=1, select bank1
  9895  0B8A  1303               	bcf	3,6	;RP1=0, select bank1
  9896  0B8B  0DA7               	rlf	___fldiv@grs^(0+128),f
  9897  0B8C  0DA8               	rlf	(___fldiv@grs+1)^(0+128),f
  9898  0B8D  0DA9               	rlf	(___fldiv@grs+2)^(0+128),f
  9899  0B8E  0DAA               	rlf	(___fldiv@grs+3)^(0+128),f
  9900  0B8F  1283               	bcf	3,5	;RP0=0, select bank0
  9901  0B90  1303               	bcf	3,6	;RP1=0, select bank0
  9902  0B91  0BE3               	decfsz	??___fldiv,f
  9903  0B92  2B88               	goto	u3615
  9904  0B93                     l2661:	
  9905  0B93  30FF               	movlw	255
  9906  0B94  1683               	bsf	3,5	;RP0=1, select bank1
  9907  0B95  1303               	bcf	3,6	;RP1=0, select bank1
  9908  0B96  07A5               	addwf	___fldiv@new_exp^(0+128),f
  9909  0B97  1803               	skipnc
  9910  0B98  0AA6               	incf	(___fldiv@new_exp+1)^(0+128),f
  9911  0B99  30FF               	movlw	255
  9912  0B9A  07A6               	addwf	(___fldiv@new_exp+1)^(0+128),f
  9913  0B9B                     l2663:	
  9914  0B9B  1283               	bcf	3,5	;RP0=0, select bank0
  9915  0B9C  1303               	bcf	3,6	;RP1=0, select bank0
  9916  0B9D  1FE1               	btfss	___fldiv@b+2,7
  9917  0B9E  2BA0               	goto	u3621
  9918  0B9F  2BA1               	goto	u3620
  9919  0BA0                     u3621:	
  9920  0BA0  2B73               	goto	l2653
  9921  0BA1                     u3620:	
  9922  0BA1                     l2665:	
  9923  0BA1  1683               	bsf	3,5	;RP0=1, select bank1
  9924  0BA2  1303               	bcf	3,6	;RP1=0, select bank1
  9925  0BA3  01AC               	clrf	___fldiv@aexp^(0+128)
  9926  0BA4                     l2667:	
  9927  0BA4  1FAA               	btfss	(___fldiv@grs+3)^(0+128),7
  9928  0BA5  2BA7               	goto	u3631
  9929  0BA6  2BA8               	goto	u3630
  9930  0BA7                     u3631:	
  9931  0BA7  2BD4               	goto	l2675
  9932  0BA8                     u3630:	
  9933  0BA8                     l2669:	
  9934  0BA8  30FF               	movlw	255
  9935  0BA9  0527               	andwf	___fldiv@grs^(0+128),w
  9936  0BAA  1283               	bcf	3,5	;RP0=0, select bank0
  9937  0BAB  1303               	bcf	3,6	;RP1=0, select bank0
  9938  0BAC  00E3               	movwf	??___fldiv
  9939  0BAD  30FF               	movlw	255
  9940  0BAE  1683               	bsf	3,5	;RP0=1, select bank1
  9941  0BAF  1303               	bcf	3,6	;RP1=0, select bank1
  9942  0BB0  0528               	andwf	(___fldiv@grs+1)^(0+128),w
  9943  0BB1  1283               	bcf	3,5	;RP0=0, select bank0
  9944  0BB2  1303               	bcf	3,6	;RP1=0, select bank0
  9945  0BB3  00E4               	movwf	??___fldiv+1
  9946  0BB4  30FF               	movlw	255
  9947  0BB5  1683               	bsf	3,5	;RP0=1, select bank1
  9948  0BB6  1303               	bcf	3,6	;RP1=0, select bank1
  9949  0BB7  0529               	andwf	(___fldiv@grs+2)^(0+128),w
  9950  0BB8  1283               	bcf	3,5	;RP0=0, select bank0
  9951  0BB9  1303               	bcf	3,6	;RP1=0, select bank0
  9952  0BBA  00E5               	movwf	??___fldiv+2
  9953  0BBB  307F               	movlw	127
  9954  0BBC  1683               	bsf	3,5	;RP0=1, select bank1
  9955  0BBD  1303               	bcf	3,6	;RP1=0, select bank1
  9956  0BBE  052A               	andwf	(___fldiv@grs+3)^(0+128),w
  9957  0BBF  1283               	bcf	3,5	;RP0=0, select bank0
  9958  0BC0  1303               	bcf	3,6	;RP1=0, select bank0
  9959  0BC1  00E6               	movwf	??___fldiv+3
  9960  0BC2  0866               	movf	??___fldiv+3,w
  9961  0BC3  0465               	iorwf	??___fldiv+2,w
  9962  0BC4  0464               	iorwf	??___fldiv+1,w
  9963  0BC5  0463               	iorwf	??___fldiv,w
  9964  0BC6  1903               	skipnz
  9965  0BC7  2BC9               	goto	u3641
  9966  0BC8  2BCA               	goto	u3640
  9967  0BC9                     u3641:	
  9968  0BC9  2BCF               	goto	l621
  9969  0BCA                     u3640:	
  9970  0BCA                     l2671:	
  9971  0BCA  1683               	bsf	3,5	;RP0=1, select bank1
  9972  0BCB  1303               	bcf	3,6	;RP1=0, select bank1
  9973  0BCC  01AC               	clrf	___fldiv@aexp^(0+128)
  9974  0BCD  0AAC               	incf	___fldiv@aexp^(0+128),f
  9975  0BCE  2BD4               	goto	l2675
  9976  0BCF                     l621:	
  9977  0BCF  1C5F               	btfss	___fldiv@b,0
  9978  0BD0  2BD2               	goto	u3651
  9979  0BD1  2BD3               	goto	u3650
  9980  0BD2                     u3651:	
  9981  0BD2  2BD4               	goto	l2675
  9982  0BD3                     u3650:	
  9983  0BD3  2BCA               	goto	l2671
  9984  0BD4                     l2675:	
  9985  0BD4  1683               	bsf	3,5	;RP0=1, select bank1
  9986  0BD5  1303               	bcf	3,6	;RP1=0, select bank1
  9987  0BD6  082C               	movf	___fldiv@aexp^(0+128),w
  9988  0BD7  1903               	btfsc	3,2
  9989  0BD8  2BDA               	goto	u3661
  9990  0BD9  2BDB               	goto	u3660
  9991  0BDA                     u3661:	
  9992  0BDA  2C10               	goto	l2685
  9993  0BDB                     u3660:	
  9994  0BDB                     l2677:	
  9995  0BDB  3001               	movlw	1
  9996  0BDC  1283               	bcf	3,5	;RP0=0, select bank0
  9997  0BDD  1303               	bcf	3,6	;RP1=0, select bank0
  9998  0BDE  07DF               	addwf	___fldiv@b,f
  9999  0BDF  3000               	movlw	0
 10000  0BE0  1803               	skipnc
 10001  0BE1  3001               	movlw	1
 10002  0BE2  07E0               	addwf	___fldiv@b+1,f
 10003  0BE3  3000               	movlw	0
 10004  0BE4  1803               	skipnc
 10005  0BE5  3001               	movlw	1
 10006  0BE6  07E1               	addwf	___fldiv@b+2,f
 10007  0BE7  3000               	movlw	0
 10008  0BE8  1803               	skipnc
 10009  0BE9  3001               	movlw	1
 10010  0BEA  07E2               	addwf	___fldiv@b+3,f
 10011  0BEB                     l2679:	
 10012  0BEB  1C62               	btfss	___fldiv@b+3,0
 10013  0BEC  2BEE               	goto	u3671
 10014  0BED  2BEF               	goto	u3670
 10015  0BEE                     u3671:	
 10016  0BEE  2C10               	goto	l2685
 10017  0BEF                     u3670:	
 10018  0BEF                     l2681:	
 10019  0BEF  085F               	movf	___fldiv@b,w
 10020  0BF0  00E3               	movwf	??___fldiv
 10021  0BF1  0860               	movf	___fldiv@b+1,w
 10022  0BF2  00E4               	movwf	??___fldiv+1
 10023  0BF3  0861               	movf	___fldiv@b+2,w
 10024  0BF4  00E5               	movwf	??___fldiv+2
 10025  0BF5  0862               	movf	___fldiv@b+3,w
 10026  0BF6  00E6               	movwf	??___fldiv+3
 10027  0BF7  3001               	movlw	1
 10028  0BF8  00E7               	movwf	??___fldiv+4
 10029  0BF9                     u3685:	
 10030  0BF9  0D66               	rlf	??___fldiv+3,w
 10031  0BFA  0CE6               	rrf	??___fldiv+3,f
 10032  0BFB  0CE5               	rrf	??___fldiv+2,f
 10033  0BFC  0CE4               	rrf	??___fldiv+1,f
 10034  0BFD  0CE3               	rrf	??___fldiv,f
 10035  0BFE                     u3680:	
 10036  0BFE  0BE7               	decfsz	??___fldiv+4,f
 10037  0BFF  2BF9               	goto	u3685
 10038  0C00  0866               	movf	??___fldiv+3,w
 10039  0C01  00E2               	movwf	___fldiv@b+3
 10040  0C02  0865               	movf	??___fldiv+2,w
 10041  0C03  00E1               	movwf	___fldiv@b+2
 10042  0C04  0864               	movf	??___fldiv+1,w
 10043  0C05  00E0               	movwf	___fldiv@b+1
 10044  0C06  0863               	movf	??___fldiv,w
 10045  0C07  00DF               	movwf	___fldiv@b
 10046  0C08                     l2683:	
 10047  0C08  3001               	movlw	1
 10048  0C09  1683               	bsf	3,5	;RP0=1, select bank1
 10049  0C0A  1303               	bcf	3,6	;RP1=0, select bank1
 10050  0C0B  07A5               	addwf	___fldiv@new_exp^(0+128),f
 10051  0C0C  1803               	skipnc
 10052  0C0D  0AA6               	incf	(___fldiv@new_exp+1)^(0+128),f
 10053  0C0E  3000               	movlw	0
 10054  0C0F  07A6               	addwf	(___fldiv@new_exp+1)^(0+128),f
 10055  0C10                     l2685:	
 10056  0C10  1683               	bsf	3,5	;RP0=1, select bank1
 10057  0C11  1303               	bcf	3,6	;RP1=0, select bank1
 10058  0C12  0826               	movf	(___fldiv@new_exp+1)^(0+128),w
 10059  0C13  3A80               	xorlw	128
 10060  0C14  00FF               	movwf	btemp+1
 10061  0C15  3080               	movlw	128
 10062  0C16  027F               	subwf	btemp+1,w
 10063  0C17  1D03               	skipz
 10064  0C18  2C1B               	goto	u3695
 10065  0C19  30FF               	movlw	255
 10066  0C1A  0225               	subwf	___fldiv@new_exp^(0+128),w
 10067  0C1B                     u3695:	
 10068  0C1B  1C03               	skipc
 10069  0C1C  2C1E               	goto	u3691
 10070  0C1D  2C1F               	goto	u3690
 10071  0C1E                     u3691:	
 10072  0C1E  2C2F               	goto	l2689
 10073  0C1F                     u3690:	
 10074  0C1F                     l2687:	
 10075  0C1F  30FF               	movlw	255
 10076  0C20  1683               	bsf	3,5	;RP0=1, select bank1
 10077  0C21  1303               	bcf	3,6	;RP1=0, select bank1
 10078  0C22  00A5               	movwf	___fldiv@new_exp^(0+128)
 10079  0C23  3000               	movlw	0
 10080  0C24  00A6               	movwf	(___fldiv@new_exp^(0+128)+1)
 10081  0C25  3000               	movlw	0
 10082  0C26  1283               	bcf	3,5	;RP0=0, select bank0
 10083  0C27  1303               	bcf	3,6	;RP1=0, select bank0
 10084  0C28  00E2               	movwf	___fldiv@b+3
 10085  0C29  3000               	movlw	0
 10086  0C2A  00E1               	movwf	___fldiv@b+2
 10087  0C2B  3000               	movlw	0
 10088  0C2C  00E0               	movwf	___fldiv@b+1
 10089  0C2D  3000               	movlw	0
 10090  0C2E  00DF               	movwf	___fldiv@b
 10091  0C2F                     l2689:	
 10092  0C2F  1683               	bsf	3,5	;RP0=1, select bank1
 10093  0C30  1303               	bcf	3,6	;RP1=0, select bank1
 10094  0C31  0826               	movf	(___fldiv@new_exp+1)^(0+128),w
 10095  0C32  3A80               	xorlw	128
 10096  0C33  00FF               	movwf	btemp+1
 10097  0C34  3080               	movlw	128
 10098  0C35  027F               	subwf	btemp+1,w
 10099  0C36  1D03               	skipz
 10100  0C37  2C3A               	goto	u3705
 10101  0C38  3001               	movlw	1
 10102  0C39  0225               	subwf	___fldiv@new_exp^(0+128),w
 10103  0C3A                     u3705:	
 10104  0C3A  1803               	skipnc
 10105  0C3B  2C3D               	goto	u3701
 10106  0C3C  2C3E               	goto	u3700
 10107  0C3D                     u3701:	
 10108  0C3D  2C4F               	goto	l627
 10109  0C3E                     u3700:	
 10110  0C3E                     l2691:	
 10111  0C3E  1683               	bsf	3,5	;RP0=1, select bank1
 10112  0C3F  1303               	bcf	3,6	;RP1=0, select bank1
 10113  0C40  01A5               	clrf	___fldiv@new_exp^(0+128)
 10114  0C41  01A6               	clrf	(___fldiv@new_exp+1)^(0+128)
 10115  0C42                     l2693:	
 10116  0C42  3000               	movlw	0
 10117  0C43  1283               	bcf	3,5	;RP0=0, select bank0
 10118  0C44  1303               	bcf	3,6	;RP1=0, select bank0
 10119  0C45  00E2               	movwf	___fldiv@b+3
 10120  0C46  3000               	movlw	0
 10121  0C47  00E1               	movwf	___fldiv@b+2
 10122  0C48  3000               	movlw	0
 10123  0C49  00E0               	movwf	___fldiv@b+1
 10124  0C4A  3000               	movlw	0
 10125  0C4B  00DF               	movwf	___fldiv@b
 10126  0C4C                     l2695:	
 10127  0C4C  1683               	bsf	3,5	;RP0=1, select bank1
 10128  0C4D  1303               	bcf	3,6	;RP1=0, select bank1
 10129  0C4E  01A4               	clrf	___fldiv@sign^(0+128)
 10130  0C4F                     l627:	
 10131  0C4F  1683               	bsf	3,5	;RP0=1, select bank1
 10132  0C50  1303               	bcf	3,6	;RP1=0, select bank1
 10133  0C51  0825               	movf	___fldiv@new_exp^(0+128),w
 10134  0C52  1283               	bcf	3,5	;RP0=0, select bank0
 10135  0C53  1303               	bcf	3,6	;RP1=0, select bank0
 10136  0C54  00E3               	movwf	??___fldiv
 10137  0C55  0863               	movf	??___fldiv,w
 10138  0C56  1683               	bsf	3,5	;RP0=1, select bank1
 10139  0C57  1303               	bcf	3,6	;RP1=0, select bank1
 10140  0C58  00AB               	movwf	___fldiv@bexp^(0+128)
 10141  0C59                     l2697:	
 10142  0C59  1C2B               	btfss	___fldiv@bexp^(0+128),0
 10143  0C5A  2C5C               	goto	u3711
 10144  0C5B  2C5D               	goto	u3710
 10145  0C5C                     u3711:	
 10146  0C5C  2C61               	goto	l2701
 10147  0C5D                     u3710:	
 10148  0C5D                     l2699:	
 10149  0C5D  1283               	bcf	3,5	;RP0=0, select bank0
 10150  0C5E  1303               	bcf	3,6	;RP1=0, select bank0
 10151  0C5F  17E1               	bsf	___fldiv@b+2,7
 10152  0C60  2C67               	goto	l629
 10153  0C61                     l2701:	
 10154  0C61  307F               	movlw	127
 10155  0C62  1283               	bcf	3,5	;RP0=0, select bank0
 10156  0C63  1303               	bcf	3,6	;RP1=0, select bank0
 10157  0C64  00E3               	movwf	??___fldiv
 10158  0C65  0863               	movf	??___fldiv,w
 10159  0C66  05E1               	andwf	___fldiv@b+2,f
 10160  0C67                     l629:	
 10161  0C67  1683               	bsf	3,5	;RP0=1, select bank1
 10162  0C68  1303               	bcf	3,6	;RP1=0, select bank1
 10163  0C69  082B               	movf	___fldiv@bexp^(0+128),w
 10164  0C6A  1283               	bcf	3,5	;RP0=0, select bank0
 10165  0C6B  1303               	bcf	3,6	;RP1=0, select bank0
 10166  0C6C  00E3               	movwf	??___fldiv
 10167  0C6D  1003               	clrc
 10168  0C6E  0C63               	rrf	??___fldiv,w
 10169  0C6F  00E4               	movwf	??___fldiv+1
 10170  0C70  0864               	movf	??___fldiv+1,w
 10171  0C71  00E2               	movwf	___fldiv@b+3
 10172  0C72  1683               	bsf	3,5	;RP0=1, select bank1
 10173  0C73  1303               	bcf	3,6	;RP1=0, select bank1
 10174  0C74  0824               	movf	___fldiv@sign^(0+128),w
 10175  0C75  1283               	bcf	3,5	;RP0=0, select bank0
 10176  0C76  1303               	bcf	3,6	;RP1=0, select bank0
 10177  0C77  00E3               	movwf	??___fldiv
 10178  0C78  0863               	movf	??___fldiv,w
 10179  0C79  04E2               	iorwf	___fldiv@b+3,f
 10180  0C7A  2A76               	goto	l2609
 10181  0C7B                     l607:	
 10182  0C7B  0008               	return
 10183  0C7C                     __end_of___fldiv:	
 10184                           
 10185                           	psect	text24
 10186  1C5B                     __ptext24:	
 10187 ;; *************** function _intToStr *****************
 10188 ;; Defined at:
 10189 ;;		line 213 in file "main.c"
 10190 ;; Parameters:    Size  Location     Type
 10191 ;;  x               2   36[BANK1 ] int 
 10192 ;;  str             1   38[BANK1 ] PTR unsigned char 
 10193 ;;		 -> temp(15), 
 10194 ;;  d               2   39[BANK1 ] int 
 10195 ;; Auto vars:     Size  Location     Type
 10196 ;;  i               2   43[BANK1 ] int 
 10197 ;; Return value:  Size  Location     Type
 10198 ;;                  2   36[BANK1 ] int 
 10199 ;; Registers used:
 10200 ;;		wreg, fsr0l, fsr0h, status,2, status,0, pclath, cstack
 10201 ;; Tracked objects:
 10202 ;;		On entry : 0/0
 10203 ;;		On exit  : 0/0
 10204 ;;		Unchanged: 0/0
 10205 ;; Data sizes:     COMMON   BANK0   BANK1   BANK3   BANK2
 10206 ;;      Params:         0       0       5       0       0
 10207 ;;      Locals:         0       0       2       0       0
 10208 ;;      Temps:          0       0       2       0       0
 10209 ;;      Totals:         0       0       9       0       0
 10210 ;;Total ram usage:        9 bytes
 10211 ;; Hardware stack levels used:    1
 10212 ;; Hardware stack levels required when called:    3
 10213 ;; This function calls:
 10214 ;;		___awdiv
 10215 ;;		___awmod
 10216 ;;		_reverse
 10217 ;; This function is called by:
 10218 ;;		_ftoa
 10219 ;; This function uses a non-reentrant model
 10220 ;;
 10221                           
 10222                           
 10223                           ;psect for function _intToStr
 10224  1C5B                     _intToStr:	
 10225  1C5B                     l2965:	
 10226                           ;incstack = 0
 10227                           ; Regs used in _intToStr: [wreg-fsr0h+status,2+status,0+pclath+cstack]
 10228                           
 10229                           
 10230                           ;main.c: 213: int intToStr(int x, char str[], int d);main.c: 214: {;main.c: 215:     int
      +                           i = 0;
 10231  1C5B  1683               	bsf	3,5	;RP0=1, select bank1
 10232  1C5C  1303               	bcf	3,6	;RP1=0, select bank1
 10233  1C5D  01CB               	clrf	intToStr@i^(0+128)
 10234  1C5E  01CC               	clrf	(intToStr@i+1)^(0+128)
 10235                           
 10236                           ;main.c: 216:     while (x) {
 10237  1C5F  2CAF               	goto	l2973
 10238  1C60                     l2967:	
 10239                           
 10240                           ;main.c: 217:         str[i++] = (x % 10) + '0';
 10241  1C60  300A               	movlw	10
 10242  1C61  1283               	bcf	3,5	;RP0=0, select bank0
 10243  1C62  1303               	bcf	3,6	;RP1=0, select bank0
 10244  1C63  00A0               	movwf	___awmod@divisor
 10245  1C64  3000               	movlw	0
 10246  1C65  00A1               	movwf	___awmod@divisor+1
 10247  1C66  1683               	bsf	3,5	;RP0=1, select bank1
 10248  1C67  1303               	bcf	3,6	;RP1=0, select bank1
 10249  1C68  0845               	movf	(intToStr@x+1)^(0+128),w
 10250  1C69  1283               	bcf	3,5	;RP0=0, select bank0
 10251  1C6A  1303               	bcf	3,6	;RP1=0, select bank0
 10252  1C6B  00A3               	movwf	___awmod@dividend+1
 10253  1C6C  1683               	bsf	3,5	;RP0=1, select bank1
 10254  1C6D  1303               	bcf	3,6	;RP1=0, select bank1
 10255  1C6E  0844               	movf	intToStr@x^(0+128),w
 10256  1C6F  1283               	bcf	3,5	;RP0=0, select bank0
 10257  1C70  1303               	bcf	3,6	;RP1=0, select bank0
 10258  1C71  00A2               	movwf	___awmod@dividend
 10259  1C72  160A  158A  233B  160A  158A  	fcall	___awmod
 10260  1C77  1283               	bcf	3,5	;RP0=0, select bank0
 10261  1C78  1303               	bcf	3,6	;RP1=0, select bank0
 10262  1C79  0820               	movf	?___awmod,w
 10263  1C7A  3E30               	addlw	48
 10264  1C7B  1683               	bsf	3,5	;RP0=1, select bank1
 10265  1C7C  1303               	bcf	3,6	;RP1=0, select bank1
 10266  1C7D  00C9               	movwf	??_intToStr^(0+128)
 10267  1C7E  084B               	movf	intToStr@i^(0+128),w
 10268  1C7F  0746               	addwf	intToStr@str^(0+128),w
 10269  1C80  00CA               	movwf	(??_intToStr+1)^(0+128)
 10270  1C81  084A               	movf	(??_intToStr+1)^(0+128),w
 10271  1C82  0084               	movwf	4
 10272  1C83  0849               	movf	??_intToStr^(0+128),w
 10273  1C84  1783               	bsf	3,7	;select IRP bank2
 10274  1C85  0080               	movwf	0
 10275  1C86                     l2969:	
 10276  1C86  3001               	movlw	1
 10277  1C87  07CB               	addwf	intToStr@i^(0+128),f
 10278  1C88  1803               	skipnc
 10279  1C89  0ACC               	incf	(intToStr@i+1)^(0+128),f
 10280  1C8A  3000               	movlw	0
 10281  1C8B  07CC               	addwf	(intToStr@i+1)^(0+128),f
 10282  1C8C                     l2971:	
 10283                           
 10284                           ;main.c: 218:         x = x / 10;
 10285  1C8C  300A               	movlw	10
 10286  1C8D  1283               	bcf	3,5	;RP0=0, select bank0
 10287  1C8E  1303               	bcf	3,6	;RP1=0, select bank0
 10288  1C8F  00A0               	movwf	___awdiv@divisor
 10289  1C90  3000               	movlw	0
 10290  1C91  00A1               	movwf	___awdiv@divisor+1
 10291  1C92  1683               	bsf	3,5	;RP0=1, select bank1
 10292  1C93  1303               	bcf	3,6	;RP1=0, select bank1
 10293  1C94  0845               	movf	(intToStr@x+1)^(0+128),w
 10294  1C95  1283               	bcf	3,5	;RP0=0, select bank0
 10295  1C96  1303               	bcf	3,6	;RP1=0, select bank0
 10296  1C97  00A3               	movwf	___awdiv@dividend+1
 10297  1C98  1683               	bsf	3,5	;RP0=1, select bank1
 10298  1C99  1303               	bcf	3,6	;RP1=0, select bank1
 10299  1C9A  0844               	movf	intToStr@x^(0+128),w
 10300  1C9B  1283               	bcf	3,5	;RP0=0, select bank0
 10301  1C9C  1303               	bcf	3,6	;RP1=0, select bank0
 10302  1C9D  00A2               	movwf	___awdiv@dividend
 10303  1C9E  160A  158A  23F2  160A  158A  	fcall	___awdiv
 10304  1CA3  1283               	bcf	3,5	;RP0=0, select bank0
 10305  1CA4  1303               	bcf	3,6	;RP1=0, select bank0
 10306  1CA5  0821               	movf	?___awdiv+1,w
 10307  1CA6  1683               	bsf	3,5	;RP0=1, select bank1
 10308  1CA7  1303               	bcf	3,6	;RP1=0, select bank1
 10309  1CA8  00C5               	movwf	(intToStr@x+1)^(0+128)
 10310  1CA9  1283               	bcf	3,5	;RP0=0, select bank0
 10311  1CAA  1303               	bcf	3,6	;RP1=0, select bank0
 10312  1CAB  0820               	movf	?___awdiv,w
 10313  1CAC  1683               	bsf	3,5	;RP0=1, select bank1
 10314  1CAD  1303               	bcf	3,6	;RP1=0, select bank1
 10315  1CAE  00C4               	movwf	intToStr@x^(0+128)
 10316  1CAF                     l2973:	
 10317                           
 10318                           ;main.c: 216:     while (x) {
 10319  1CAF  0844               	movf	intToStr@x^(0+128),w
 10320  1CB0  0445               	iorwf	(intToStr@x+1)^(0+128),w
 10321  1CB1  1D03               	btfss	3,2
 10322  1CB2  2CB4               	goto	u4141
 10323  1CB3  2CB5               	goto	u4140
 10324  1CB4                     u4141:	
 10325  1CB4  2C60               	goto	l2967
 10326  1CB5                     u4140:	
 10327  1CB5  2CC8               	goto	l2979
 10328  1CB6                     l2975:	
 10329                           
 10330                           ;main.c: 224:         str[i++] = '0';
 10331  1CB6  3030               	movlw	48
 10332  1CB7  1683               	bsf	3,5	;RP0=1, select bank1
 10333  1CB8  1303               	bcf	3,6	;RP1=0, select bank1
 10334  1CB9  00C9               	movwf	??_intToStr^(0+128)
 10335  1CBA  084B               	movf	intToStr@i^(0+128),w
 10336  1CBB  0746               	addwf	intToStr@str^(0+128),w
 10337  1CBC  00CA               	movwf	(??_intToStr+1)^(0+128)
 10338  1CBD  084A               	movf	(??_intToStr+1)^(0+128),w
 10339  1CBE  0084               	movwf	4
 10340  1CBF  0849               	movf	??_intToStr^(0+128),w
 10341  1CC0  1783               	bsf	3,7	;select IRP bank2
 10342  1CC1  0080               	movwf	0
 10343  1CC2                     l2977:	
 10344  1CC2  3001               	movlw	1
 10345  1CC3  07CB               	addwf	intToStr@i^(0+128),f
 10346  1CC4  1803               	skipnc
 10347  1CC5  0ACC               	incf	(intToStr@i+1)^(0+128),f
 10348  1CC6  3000               	movlw	0
 10349  1CC7  07CC               	addwf	(intToStr@i+1)^(0+128),f
 10350  1CC8                     l2979:	
 10351                           
 10352                           ;main.c: 223:     while (i < d)
 10353  1CC8  084C               	movf	(intToStr@i+1)^(0+128),w
 10354  1CC9  3A80               	xorlw	128
 10355  1CCA  00C9               	movwf	??_intToStr^(0+128)
 10356  1CCB  0848               	movf	(intToStr@d+1)^(0+128),w
 10357  1CCC  3A80               	xorlw	128
 10358  1CCD  0249               	subwf	??_intToStr^(0+128),w
 10359  1CCE  1D03               	skipz
 10360  1CCF  2CD2               	goto	u4155
 10361  1CD0  0847               	movf	intToStr@d^(0+128),w
 10362  1CD1  024B               	subwf	intToStr@i^(0+128),w
 10363  1CD2                     u4155:	
 10364  1CD2  1C03               	skipc
 10365  1CD3  2CD5               	goto	u4151
 10366  1CD4  2CD6               	goto	u4150
 10367  1CD5                     u4151:	
 10368  1CD5  2CB6               	goto	l2975
 10369  1CD6                     u4150:	
 10370  1CD6                     l2981:	
 10371                           
 10372                           ;main.c: 226:     reverse(str, i);
 10373  1CD6  1683               	bsf	3,5	;RP0=1, select bank1
 10374  1CD7  1303               	bcf	3,6	;RP1=0, select bank1
 10375  1CD8  084C               	movf	(intToStr@i+1)^(0+128),w
 10376  1CD9  1283               	bcf	3,5	;RP0=0, select bank0
 10377  1CDA  1303               	bcf	3,6	;RP1=0, select bank0
 10378  1CDB  00A1               	movwf	reverse@len+1
 10379  1CDC  1683               	bsf	3,5	;RP0=1, select bank1
 10380  1CDD  1303               	bcf	3,6	;RP1=0, select bank1
 10381  1CDE  084B               	movf	intToStr@i^(0+128),w
 10382  1CDF  1283               	bcf	3,5	;RP0=0, select bank0
 10383  1CE0  1303               	bcf	3,6	;RP1=0, select bank0
 10384  1CE1  00A0               	movwf	reverse@len
 10385  1CE2  1683               	bsf	3,5	;RP0=1, select bank1
 10386  1CE3  1303               	bcf	3,6	;RP1=0, select bank1
 10387  1CE4  0846               	movf	intToStr@str^(0+128),w
 10388  1CE5  160A  158A  21F7  160A  158A  	fcall	_reverse
 10389  1CEA                     l2983:	
 10390                           
 10391                           ;main.c: 227:     str[i] = '\0';
 10392  1CEA  1683               	bsf	3,5	;RP0=1, select bank1
 10393  1CEB  1303               	bcf	3,6	;RP1=0, select bank1
 10394  1CEC  084B               	movf	intToStr@i^(0+128),w
 10395  1CED  0746               	addwf	intToStr@str^(0+128),w
 10396  1CEE  00C9               	movwf	??_intToStr^(0+128)
 10397  1CEF  0849               	movf	??_intToStr^(0+128),w
 10398  1CF0  0084               	movwf	4
 10399  1CF1  1783               	bsf	3,7	;select IRP bank2
 10400  1CF2  0180               	clrf	0
 10401  1CF3                     l2985:	
 10402                           
 10403                           ;main.c: 228:     return i;
 10404  1CF3  084C               	movf	(intToStr@i+1)^(0+128),w
 10405  1CF4  00C5               	movwf	(?_intToStr+1)^(0+128)
 10406  1CF5  084B               	movf	intToStr@i^(0+128),w
 10407  1CF6  00C4               	movwf	?_intToStr^(0+128)
 10408  1CF7                     l98:	
 10409  1CF7  0008               	return
 10410  1CF8                     __end_of_intToStr:	
 10411                           
 10412                           	psect	text25
 10413  19F7                     __ptext25:	
 10414 ;; *************** function _reverse *****************
 10415 ;; Defined at:
 10416 ;;		line 198 in file "main.c"
 10417 ;; Parameters:    Size  Location     Type
 10418 ;;  str             1    wreg     PTR unsigned char 
 10419 ;;		 -> temp(15), 
 10420 ;;  len             2    0[BANK0 ] int 
 10421 ;; Auto vars:     Size  Location     Type
 10422 ;;  str             1   11[BANK0 ] PTR unsigned char 
 10423 ;;		 -> temp(15), 
 10424 ;;  j               2    9[BANK0 ] int 
 10425 ;;  i               2    7[BANK0 ] int 
 10426 ;;  temp            2    5[BANK0 ] int 
 10427 ;; Return value:  Size  Location     Type
 10428 ;;                  1    wreg      void 
 10429 ;; Registers used:
 10430 ;;		wreg, fsr0l, fsr0h, status,2, status,0
 10431 ;; Tracked objects:
 10432 ;;		On entry : 0/0
 10433 ;;		On exit  : 0/0
 10434 ;;		Unchanged: 0/0
 10435 ;; Data sizes:     COMMON   BANK0   BANK1   BANK3   BANK2
 10436 ;;      Params:         0       2       0       0       0
 10437 ;;      Locals:         0       7       0       0       0
 10438 ;;      Temps:          0       3       0       0       0
 10439 ;;      Totals:         0      12       0       0       0
 10440 ;;Total ram usage:       12 bytes
 10441 ;; Hardware stack levels used:    1
 10442 ;; Hardware stack levels required when called:    2
 10443 ;; This function calls:
 10444 ;;		Nothing
 10445 ;; This function is called by:
 10446 ;;		_intToStr
 10447 ;; This function uses a non-reentrant model
 10448 ;;
 10449                           
 10450                           
 10451                           ;psect for function _reverse
 10452  19F7                     _reverse:	
 10453                           
 10454                           ;incstack = 0
 10455                           ; Regs used in _reverse: [wreg-fsr0h+status,2+status,0]
 10456                           ;reverse@str stored from wreg
 10457  19F7  1283               	bcf	3,5	;RP0=0, select bank0
 10458  19F8  1303               	bcf	3,6	;RP1=0, select bank0
 10459  19F9  00AB               	movwf	reverse@str
 10460  19FA                     l2783:	
 10461                           
 10462                           ;main.c: 198: void reverse(char* str, int len);main.c: 199: {;main.c: 200:     int i = 0
      +                          , j = len - 1, temp;
 10463  19FA  01A7               	clrf	reverse@i
 10464  19FB  01A8               	clrf	reverse@i+1
 10465  19FC                     l2785:	
 10466  19FC  0820               	movf	reverse@len,w
 10467  19FD  3EFF               	addlw	255
 10468  19FE  00A9               	movwf	reverse@j
 10469  19FF  0821               	movf	reverse@len+1,w
 10470  1A00  1803               	skipnc
 10471  1A01  3E01               	addlw	1
 10472  1A02  3EFF               	addlw	255
 10473  1A03  00AA               	movwf	reverse@j+1
 10474                           
 10475                           ;main.c: 201:     while (i < j) {
 10476  1A04  2A37               	goto	l2793
 10477  1A05                     l2787:	
 10478                           
 10479                           ;main.c: 202:         temp = str[i];
 10480  1A05  1283               	bcf	3,5	;RP0=0, select bank0
 10481  1A06  1303               	bcf	3,6	;RP1=0, select bank0
 10482  1A07  0827               	movf	reverse@i,w
 10483  1A08  072B               	addwf	reverse@str,w
 10484  1A09  00A2               	movwf	??_reverse
 10485  1A0A  0822               	movf	??_reverse,w
 10486  1A0B  0084               	movwf	4
 10487  1A0C  1783               	bsf	3,7	;select IRP bank2
 10488  1A0D  0800               	movf	0,w
 10489  1A0E  00A3               	movwf	??_reverse+1
 10490  1A0F  01A4               	clrf	??_reverse+2
 10491  1A10  0823               	movf	??_reverse+1,w
 10492  1A11  00A5               	movwf	reverse@temp
 10493  1A12  0824               	movf	??_reverse+2,w
 10494  1A13  00A6               	movwf	reverse@temp+1
 10495                           
 10496                           ;main.c: 203:         str[i] = str[j];
 10497  1A14  0829               	movf	reverse@j,w
 10498  1A15  072B               	addwf	reverse@str,w
 10499  1A16  00A2               	movwf	??_reverse
 10500  1A17  0822               	movf	??_reverse,w
 10501  1A18  0084               	movwf	4
 10502  1A19  0800               	movf	0,w
 10503  1A1A  00A3               	movwf	??_reverse+1
 10504  1A1B  0827               	movf	reverse@i,w
 10505  1A1C  072B               	addwf	reverse@str,w
 10506  1A1D  00A4               	movwf	??_reverse+2
 10507  1A1E  0824               	movf	??_reverse+2,w
 10508  1A1F  0084               	movwf	4
 10509  1A20  0823               	movf	??_reverse+1,w
 10510  1A21  0080               	movwf	0
 10511                           
 10512                           ;main.c: 204:         str[j] = temp;
 10513  1A22  0825               	movf	reverse@temp,w
 10514  1A23  00A2               	movwf	??_reverse
 10515  1A24  0829               	movf	reverse@j,w
 10516  1A25  072B               	addwf	reverse@str,w
 10517  1A26  00A3               	movwf	??_reverse+1
 10518  1A27  0823               	movf	??_reverse+1,w
 10519  1A28  0084               	movwf	4
 10520  1A29  0822               	movf	??_reverse,w
 10521  1A2A  0080               	movwf	0
 10522  1A2B                     l2789:	
 10523                           
 10524                           ;main.c: 205:         i++;
 10525  1A2B  3001               	movlw	1
 10526  1A2C  07A7               	addwf	reverse@i,f
 10527  1A2D  1803               	skipnc
 10528  1A2E  0AA8               	incf	reverse@i+1,f
 10529  1A2F  3000               	movlw	0
 10530  1A30  07A8               	addwf	reverse@i+1,f
 10531  1A31                     l2791:	
 10532                           
 10533                           ;main.c: 206:         j--;
 10534  1A31  30FF               	movlw	255
 10535  1A32  07A9               	addwf	reverse@j,f
 10536  1A33  1803               	skipnc
 10537  1A34  0AAA               	incf	reverse@j+1,f
 10538  1A35  30FF               	movlw	255
 10539  1A36  07AA               	addwf	reverse@j+1,f
 10540  1A37                     l2793:	
 10541                           
 10542                           ;main.c: 201:     while (i < j) {
 10543  1A37  0828               	movf	reverse@i+1,w
 10544  1A38  3A80               	xorlw	128
 10545  1A39  00A2               	movwf	??_reverse
 10546  1A3A  082A               	movf	reverse@j+1,w
 10547  1A3B  3A80               	xorlw	128
 10548  1A3C  0222               	subwf	??_reverse,w
 10549  1A3D  1D03               	skipz
 10550  1A3E  2A41               	goto	u3835
 10551  1A3F  0829               	movf	reverse@j,w
 10552  1A40  0227               	subwf	reverse@i,w
 10553  1A41                     u3835:	
 10554  1A41  1C03               	skipc
 10555  1A42  2A44               	goto	u3831
 10556  1A43  2A45               	goto	u3830
 10557  1A44                     u3831:	
 10558  1A44  2A05               	goto	l2787
 10559  1A45                     u3830:	
 10560  1A45                     l89:	
 10561  1A45  0008               	return
 10562  1A46                     __end_of_reverse:	
 10563                           
 10564                           	psect	text26
 10565  1B3B                     __ptext26:	
 10566 ;; *************** function ___awmod *****************
 10567 ;; Defined at:
 10568 ;;		line 5 in file "C:\Program Files (x86)\Microchip\xc8\v2.10\pic\sources\c90\common\awmod.c"
 10569 ;; Parameters:    Size  Location     Type
 10570 ;;  divisor         2    0[BANK0 ] int 
 10571 ;;  dividend        2    2[BANK0 ] int 
 10572 ;; Auto vars:     Size  Location     Type
 10573 ;;  sign            1    6[BANK0 ] unsigned char 
 10574 ;;  counter         1    5[BANK0 ] unsigned char 
 10575 ;; Return value:  Size  Location     Type
 10576 ;;                  2    0[BANK0 ] int 
 10577 ;; Registers used:
 10578 ;;		wreg, status,2, status,0
 10579 ;; Tracked objects:
 10580 ;;		On entry : 0/0
 10581 ;;		On exit  : 0/0
 10582 ;;		Unchanged: 0/0
 10583 ;; Data sizes:     COMMON   BANK0   BANK1   BANK3   BANK2
 10584 ;;      Params:         0       4       0       0       0
 10585 ;;      Locals:         0       2       0       0       0
 10586 ;;      Temps:          0       1       0       0       0
 10587 ;;      Totals:         0       7       0       0       0
 10588 ;;Total ram usage:        7 bytes
 10589 ;; Hardware stack levels used:    1
 10590 ;; Hardware stack levels required when called:    2
 10591 ;; This function calls:
 10592 ;;		Nothing
 10593 ;; This function is called by:
 10594 ;;		_intToStr
 10595 ;; This function uses a non-reentrant model
 10596 ;;
 10597                           
 10598                           
 10599                           ;psect for function ___awmod
 10600  1B3B                     ___awmod:	
 10601  1B3B                     l2853:	
 10602                           ;incstack = 0
 10603                           ; Regs used in ___awmod: [wreg+status,2+status,0]
 10604                           
 10605  1B3B  1283               	bcf	3,5	;RP0=0, select bank0
 10606  1B3C  1303               	bcf	3,6	;RP1=0, select bank0
 10607  1B3D  01A6               	clrf	___awmod@sign
 10608  1B3E                     l2855:	
 10609  1B3E  1FA3               	btfss	___awmod@dividend+1,7
 10610  1B3F  2B41               	goto	u3951
 10611  1B40  2B42               	goto	u3950
 10612  1B41                     u3951:	
 10613  1B41  2B49               	goto	l2861
 10614  1B42                     u3950:	
 10615  1B42                     l2857:	
 10616  1B42  09A2               	comf	___awmod@dividend,f
 10617  1B43  09A3               	comf	___awmod@dividend+1,f
 10618  1B44  0AA2               	incf	___awmod@dividend,f
 10619  1B45  1903               	skipnz
 10620  1B46  0AA3               	incf	___awmod@dividend+1,f
 10621  1B47                     l2859:	
 10622  1B47  01A6               	clrf	___awmod@sign
 10623  1B48  0AA6               	incf	___awmod@sign,f
 10624  1B49                     l2861:	
 10625  1B49  1FA1               	btfss	___awmod@divisor+1,7
 10626  1B4A  2B4C               	goto	u3961
 10627  1B4B  2B4D               	goto	u3960
 10628  1B4C                     u3961:	
 10629  1B4C  2B52               	goto	l2865
 10630  1B4D                     u3960:	
 10631  1B4D                     l2863:	
 10632  1B4D  09A0               	comf	___awmod@divisor,f
 10633  1B4E  09A1               	comf	___awmod@divisor+1,f
 10634  1B4F  0AA0               	incf	___awmod@divisor,f
 10635  1B50  1903               	skipnz
 10636  1B51  0AA1               	incf	___awmod@divisor+1,f
 10637  1B52                     l2865:	
 10638  1B52  0820               	movf	___awmod@divisor,w
 10639  1B53  0421               	iorwf	___awmod@divisor+1,w
 10640  1B54  1903               	btfsc	3,2
 10641  1B55  2B57               	goto	u3971
 10642  1B56  2B58               	goto	u3970
 10643  1B57                     u3971:	
 10644  1B57  2B87               	goto	l2883
 10645  1B58                     u3970:	
 10646  1B58                     l2867:	
 10647  1B58  01A5               	clrf	___awmod@counter
 10648  1B59  0AA5               	incf	___awmod@counter,f
 10649  1B5A  2B66               	goto	l2873
 10650  1B5B                     l2869:	
 10651  1B5B  3001               	movlw	1
 10652  1B5C                     u3985:	
 10653  1B5C  1003               	clrc
 10654  1B5D  0DA0               	rlf	___awmod@divisor,f
 10655  1B5E  0DA1               	rlf	___awmod@divisor+1,f
 10656  1B5F  3EFF               	addlw	-1
 10657  1B60  1D03               	skipz
 10658  1B61  2B5C               	goto	u3985
 10659  1B62                     l2871:	
 10660  1B62  3001               	movlw	1
 10661  1B63  00A4               	movwf	??___awmod
 10662  1B64  0824               	movf	??___awmod,w
 10663  1B65  07A5               	addwf	___awmod@counter,f
 10664  1B66                     l2873:	
 10665  1B66  1FA1               	btfss	___awmod@divisor+1,7
 10666  1B67  2B69               	goto	u3991
 10667  1B68  2B6A               	goto	u3990
 10668  1B69                     u3991:	
 10669  1B69  2B5B               	goto	l2869
 10670  1B6A                     u3990:	
 10671  1B6A                     l2875:	
 10672  1B6A  0821               	movf	___awmod@divisor+1,w
 10673  1B6B  0223               	subwf	___awmod@dividend+1,w
 10674  1B6C  1D03               	skipz
 10675  1B6D  2B70               	goto	u4005
 10676  1B6E  0820               	movf	___awmod@divisor,w
 10677  1B6F  0222               	subwf	___awmod@dividend,w
 10678  1B70                     u4005:	
 10679  1B70  1C03               	skipc
 10680  1B71  2B73               	goto	u4001
 10681  1B72  2B74               	goto	u4000
 10682  1B73                     u4001:	
 10683  1B73  2B7A               	goto	l2879
 10684  1B74                     u4000:	
 10685  1B74                     l2877:	
 10686  1B74  0820               	movf	___awmod@divisor,w
 10687  1B75  02A2               	subwf	___awmod@dividend,f
 10688  1B76  0821               	movf	___awmod@divisor+1,w
 10689  1B77  1C03               	skipc
 10690  1B78  03A3               	decf	___awmod@dividend+1,f
 10691  1B79  02A3               	subwf	___awmod@dividend+1,f
 10692  1B7A                     l2879:	
 10693  1B7A  3001               	movlw	1
 10694  1B7B                     u4015:	
 10695  1B7B  1003               	clrc
 10696  1B7C  0CA1               	rrf	___awmod@divisor+1,f
 10697  1B7D  0CA0               	rrf	___awmod@divisor,f
 10698  1B7E  3EFF               	addlw	-1
 10699  1B7F  1D03               	skipz
 10700  1B80  2B7B               	goto	u4015
 10701  1B81                     l2881:	
 10702  1B81  3001               	movlw	1
 10703  1B82  02A5               	subwf	___awmod@counter,f
 10704  1B83  1D03               	btfss	3,2
 10705  1B84  2B86               	goto	u4021
 10706  1B85  2B87               	goto	u4020
 10707  1B86                     u4021:	
 10708  1B86  2B6A               	goto	l2875
 10709  1B87                     u4020:	
 10710  1B87                     l2883:	
 10711  1B87  0826               	movf	___awmod@sign,w
 10712  1B88  1903               	btfsc	3,2
 10713  1B89  2B8B               	goto	u4031
 10714  1B8A  2B8C               	goto	u4030
 10715  1B8B                     u4031:	
 10716  1B8B  2B91               	goto	l2887
 10717  1B8C                     u4030:	
 10718  1B8C                     l2885:	
 10719  1B8C  09A2               	comf	___awmod@dividend,f
 10720  1B8D  09A3               	comf	___awmod@dividend+1,f
 10721  1B8E  0AA2               	incf	___awmod@dividend,f
 10722  1B8F  1903               	skipnz
 10723  1B90  0AA3               	incf	___awmod@dividend+1,f
 10724  1B91                     l2887:	
 10725  1B91  0823               	movf	___awmod@dividend+1,w
 10726  1B92  00A1               	movwf	?___awmod+1
 10727  1B93  0822               	movf	___awmod@dividend,w
 10728  1B94  00A0               	movwf	?___awmod
 10729  1B95                     l422:	
 10730  1B95  0008               	return
 10731  1B96                     __end_of___awmod:	
 10732                           
 10733                           	psect	text27
 10734  1BF2                     __ptext27:	
 10735 ;; *************** function ___awdiv *****************
 10736 ;; Defined at:
 10737 ;;		line 5 in file "C:\Program Files (x86)\Microchip\xc8\v2.10\pic\sources\c90\common\awdiv.c"
 10738 ;; Parameters:    Size  Location     Type
 10739 ;;  divisor         2    0[BANK0 ] int 
 10740 ;;  dividend        2    2[BANK0 ] int 
 10741 ;; Auto vars:     Size  Location     Type
 10742 ;;  quotient        2    7[BANK0 ] int 
 10743 ;;  sign            1    6[BANK0 ] unsigned char 
 10744 ;;  counter         1    5[BANK0 ] unsigned char 
 10745 ;; Return value:  Size  Location     Type
 10746 ;;                  2    0[BANK0 ] int 
 10747 ;; Registers used:
 10748 ;;		wreg, status,2, status,0
 10749 ;; Tracked objects:
 10750 ;;		On entry : 0/0
 10751 ;;		On exit  : 0/0
 10752 ;;		Unchanged: 0/0
 10753 ;; Data sizes:     COMMON   BANK0   BANK1   BANK3   BANK2
 10754 ;;      Params:         0       4       0       0       0
 10755 ;;      Locals:         0       4       0       0       0
 10756 ;;      Temps:          0       1       0       0       0
 10757 ;;      Totals:         0       9       0       0       0
 10758 ;;Total ram usage:        9 bytes
 10759 ;; Hardware stack levels used:    1
 10760 ;; Hardware stack levels required when called:    2
 10761 ;; This function calls:
 10762 ;;		Nothing
 10763 ;; This function is called by:
 10764 ;;		_intToStr
 10765 ;; This function uses a non-reentrant model
 10766 ;;
 10767                           
 10768                           
 10769                           ;psect for function ___awdiv
 10770  1BF2                     ___awdiv:	
 10771  1BF2                     l2809:	
 10772                           ;incstack = 0
 10773                           ; Regs used in ___awdiv: [wreg+status,2+status,0]
 10774                           
 10775  1BF2  1283               	bcf	3,5	;RP0=0, select bank0
 10776  1BF3  1303               	bcf	3,6	;RP1=0, select bank0
 10777  1BF4  01A6               	clrf	___awdiv@sign
 10778  1BF5                     l2811:	
 10779  1BF5  1FA1               	btfss	___awdiv@divisor+1,7
 10780  1BF6  2BF8               	goto	u3851
 10781  1BF7  2BF9               	goto	u3850
 10782  1BF8                     u3851:	
 10783  1BF8  2C00               	goto	l2817
 10784  1BF9                     u3850:	
 10785  1BF9                     l2813:	
 10786  1BF9  09A0               	comf	___awdiv@divisor,f
 10787  1BFA  09A1               	comf	___awdiv@divisor+1,f
 10788  1BFB  0AA0               	incf	___awdiv@divisor,f
 10789  1BFC  1903               	skipnz
 10790  1BFD  0AA1               	incf	___awdiv@divisor+1,f
 10791  1BFE                     l2815:	
 10792  1BFE  01A6               	clrf	___awdiv@sign
 10793  1BFF  0AA6               	incf	___awdiv@sign,f
 10794  1C00                     l2817:	
 10795  1C00  1FA3               	btfss	___awdiv@dividend+1,7
 10796  1C01  2C03               	goto	u3861
 10797  1C02  2C04               	goto	u3860
 10798  1C03                     u3861:	
 10799  1C03  2C0D               	goto	l2823
 10800  1C04                     u3860:	
 10801  1C04                     l2819:	
 10802  1C04  09A2               	comf	___awdiv@dividend,f
 10803  1C05  09A3               	comf	___awdiv@dividend+1,f
 10804  1C06  0AA2               	incf	___awdiv@dividend,f
 10805  1C07  1903               	skipnz
 10806  1C08  0AA3               	incf	___awdiv@dividend+1,f
 10807  1C09                     l2821:	
 10808  1C09  3001               	movlw	1
 10809  1C0A  00A4               	movwf	??___awdiv
 10810  1C0B  0824               	movf	??___awdiv,w
 10811  1C0C  06A6               	xorwf	___awdiv@sign,f
 10812  1C0D                     l2823:	
 10813  1C0D  01A7               	clrf	___awdiv@quotient
 10814  1C0E  01A8               	clrf	___awdiv@quotient+1
 10815  1C0F                     l2825:	
 10816  1C0F  0820               	movf	___awdiv@divisor,w
 10817  1C10  0421               	iorwf	___awdiv@divisor+1,w
 10818  1C11  1903               	btfsc	3,2
 10819  1C12  2C14               	goto	u3871
 10820  1C13  2C15               	goto	u3870
 10821  1C14                     u3871:	
 10822  1C14  2C4C               	goto	l2845
 10823  1C15                     u3870:	
 10824  1C15                     l2827:	
 10825  1C15  01A5               	clrf	___awdiv@counter
 10826  1C16  0AA5               	incf	___awdiv@counter,f
 10827  1C17  2C23               	goto	l2833
 10828  1C18                     l2829:	
 10829  1C18  3001               	movlw	1
 10830  1C19                     u3885:	
 10831  1C19  1003               	clrc
 10832  1C1A  0DA0               	rlf	___awdiv@divisor,f
 10833  1C1B  0DA1               	rlf	___awdiv@divisor+1,f
 10834  1C1C  3EFF               	addlw	-1
 10835  1C1D  1D03               	skipz
 10836  1C1E  2C19               	goto	u3885
 10837  1C1F                     l2831:	
 10838  1C1F  3001               	movlw	1
 10839  1C20  00A4               	movwf	??___awdiv
 10840  1C21  0824               	movf	??___awdiv,w
 10841  1C22  07A5               	addwf	___awdiv@counter,f
 10842  1C23                     l2833:	
 10843  1C23  1FA1               	btfss	___awdiv@divisor+1,7
 10844  1C24  2C26               	goto	u3891
 10845  1C25  2C27               	goto	u3890
 10846  1C26                     u3891:	
 10847  1C26  2C18               	goto	l2829
 10848  1C27                     u3890:	
 10849  1C27                     l2835:	
 10850  1C27  3001               	movlw	1
 10851  1C28                     u3905:	
 10852  1C28  1003               	clrc
 10853  1C29  0DA7               	rlf	___awdiv@quotient,f
 10854  1C2A  0DA8               	rlf	___awdiv@quotient+1,f
 10855  1C2B  3EFF               	addlw	-1
 10856  1C2C  1D03               	skipz
 10857  1C2D  2C28               	goto	u3905
 10858  1C2E  0821               	movf	___awdiv@divisor+1,w
 10859  1C2F  0223               	subwf	___awdiv@dividend+1,w
 10860  1C30  1D03               	skipz
 10861  1C31  2C34               	goto	u3915
 10862  1C32  0820               	movf	___awdiv@divisor,w
 10863  1C33  0222               	subwf	___awdiv@dividend,w
 10864  1C34                     u3915:	
 10865  1C34  1C03               	skipc
 10866  1C35  2C37               	goto	u3911
 10867  1C36  2C38               	goto	u3910
 10868  1C37                     u3911:	
 10869  1C37  2C3F               	goto	l2841
 10870  1C38                     u3910:	
 10871  1C38                     l2837:	
 10872  1C38  0820               	movf	___awdiv@divisor,w
 10873  1C39  02A2               	subwf	___awdiv@dividend,f
 10874  1C3A  0821               	movf	___awdiv@divisor+1,w
 10875  1C3B  1C03               	skipc
 10876  1C3C  03A3               	decf	___awdiv@dividend+1,f
 10877  1C3D  02A3               	subwf	___awdiv@dividend+1,f
 10878  1C3E                     l2839:	
 10879  1C3E  1427               	bsf	___awdiv@quotient,0
 10880  1C3F                     l2841:	
 10881  1C3F  3001               	movlw	1
 10882  1C40                     u3925:	
 10883  1C40  1003               	clrc
 10884  1C41  0CA1               	rrf	___awdiv@divisor+1,f
 10885  1C42  0CA0               	rrf	___awdiv@divisor,f
 10886  1C43  3EFF               	addlw	-1
 10887  1C44  1D03               	skipz
 10888  1C45  2C40               	goto	u3925
 10889  1C46                     l2843:	
 10890  1C46  3001               	movlw	1
 10891  1C47  02A5               	subwf	___awdiv@counter,f
 10892  1C48  1D03               	btfss	3,2
 10893  1C49  2C4B               	goto	u3931
 10894  1C4A  2C4C               	goto	u3930
 10895  1C4B                     u3931:	
 10896  1C4B  2C27               	goto	l2835
 10897  1C4C                     u3930:	
 10898  1C4C                     l2845:	
 10899  1C4C  0826               	movf	___awdiv@sign,w
 10900  1C4D  1903               	btfsc	3,2
 10901  1C4E  2C50               	goto	u3941
 10902  1C4F  2C51               	goto	u3940
 10903  1C50                     u3941:	
 10904  1C50  2C56               	goto	l2849
 10905  1C51                     u3940:	
 10906  1C51                     l2847:	
 10907  1C51  09A7               	comf	___awdiv@quotient,f
 10908  1C52  09A8               	comf	___awdiv@quotient+1,f
 10909  1C53  0AA7               	incf	___awdiv@quotient,f
 10910  1C54  1903               	skipnz
 10911  1C55  0AA8               	incf	___awdiv@quotient+1,f
 10912  1C56                     l2849:	
 10913  1C56  0828               	movf	___awdiv@quotient+1,w
 10914  1C57  00A1               	movwf	?___awdiv+1
 10915  1C58  0827               	movf	___awdiv@quotient,w
 10916  1C59  00A0               	movwf	?___awdiv
 10917  1C5A                     l409:	
 10918  1C5A  0008               	return
 10919  1C5B                     __end_of___awdiv:	
 10920                           
 10921                           	psect	text28
 10922  19C0                     __ptext28:	
 10923 ;; *************** function _ADC_Read *****************
 10924 ;; Defined at:
 10925 ;;		line 14 in file "ADC.c"
 10926 ;; Parameters:    Size  Location     Type
 10927 ;;  channel         1    wreg     unsigned char 
 10928 ;; Auto vars:     Size  Location     Type
 10929 ;;  channel         1    4[BANK0 ] unsigned char 
 10930 ;; Return value:  Size  Location     Type
 10931 ;;                  2    0[BANK0 ] unsigned int 
 10932 ;; Registers used:
 10933 ;;		wreg, status,2, status,0
 10934 ;; Tracked objects:
 10935 ;;		On entry : 0/0
 10936 ;;		On exit  : 0/0
 10937 ;;		Unchanged: 0/0
 10938 ;; Data sizes:     COMMON   BANK0   BANK1   BANK3   BANK2
 10939 ;;      Params:         0       2       0       0       0
 10940 ;;      Locals:         0       1       0       0       0
 10941 ;;      Temps:          0       2       0       0       0
 10942 ;;      Totals:         0       5       0       0       0
 10943 ;;Total ram usage:        5 bytes
 10944 ;; Hardware stack levels used:    1
 10945 ;; Hardware stack levels required when called:    2
 10946 ;; This function calls:
 10947 ;;		Nothing
 10948 ;; This function is called by:
 10949 ;;		_main
 10950 ;; This function uses a non-reentrant model
 10951 ;;
 10952                           
 10953                           
 10954                           ;psect for function _ADC_Read
 10955  19C0                     _ADC_Read:	
 10956                           
 10957                           ;incstack = 0
 10958                           ; Regs used in _ADC_Read: [wreg+status,2+status,0]
 10959                           ;ADC_Read@channel stored from wreg
 10960  19C0  1283               	bcf	3,5	;RP0=0, select bank0
 10961  19C1  1303               	bcf	3,6	;RP1=0, select bank0
 10962  19C2  00A4               	movwf	ADC_Read@channel
 10963  19C3                     l3061:	
 10964                           
 10965                           ;ADC.c: 14: unsigned int ADC_Read(unsigned char channel);ADC.c: 15: {;ADC.c: 16:   if(ch
      +                          annel > 7)
 10966  19C3  3008               	movlw	8
 10967  19C4  0224               	subwf	ADC_Read@channel,w
 10968  19C5  1C03               	skipc
 10969  19C6  29C8               	goto	u4221
 10970  19C7  29C9               	goto	u4220
 10971  19C8                     u4221:	
 10972  19C8  29CC               	goto	l3067
 10973  19C9                     u4220:	
 10974  19C9                     l3063:	
 10975                           
 10976                           ;ADC.c: 17:     return 0;
 10977  19C9  01A0               	clrf	?_ADC_Read
 10978  19CA  01A1               	clrf	?_ADC_Read+1
 10979  19CB  29F6               	goto	l138
 10980  19CC                     l3067:	
 10981                           
 10982                           ;ADC.c: 19:   ADCON0 &= 0xC5;
 10983  19CC  30C5               	movlw	197
 10984  19CD  00A2               	movwf	??_ADC_Read
 10985  19CE  0822               	movf	??_ADC_Read,w
 10986  19CF  059F               	andwf	31,f	;volatile
 10987                           
 10988                           ;ADC.c: 20:   ADCON0 |= channel<<3;
 10989  19D0  0824               	movf	ADC_Read@channel,w	;volatile
 10990  19D1  00A2               	movwf	??_ADC_Read
 10991  19D2  3002               	movlw	2
 10992  19D3                     u4235:	
 10993  19D3  1003               	clrc
 10994  19D4  0DA2               	rlf	??_ADC_Read,f
 10995  19D5  3EFF               	addlw	-1
 10996  19D6  1D03               	skipz
 10997  19D7  29D3               	goto	u4235
 10998  19D8  1003               	clrc
 10999  19D9  0D22               	rlf	??_ADC_Read,w
 11000  19DA  00A3               	movwf	??_ADC_Read+1
 11001  19DB  0823               	movf	??_ADC_Read+1,w
 11002  19DC  049F               	iorwf	31,f	;volatile
 11003  19DD                     l3069:	
 11004                           
 11005                           ;ADC.c: 21:   _delay((unsigned long)((2)*(20000000/4000.0)));
 11006  19DD  300D               	movlw	13
 11007  19DE  1283               	bcf	3,5	;RP0=0, select bank0
 11008  19DF  1303               	bcf	3,6	;RP1=0, select bank0
 11009  19E0  00A3               	movwf	??_ADC_Read+1
 11010  19E1  30FB               	movlw	251
 11011  19E2  00A2               	movwf	??_ADC_Read
 11012  19E3                     u4737:	
 11013  19E3  0BA2               	decfsz	??_ADC_Read,f
 11014  19E4  29E3               	goto	u4737
 11015  19E5  0BA3               	decfsz	??_ADC_Read+1,f
 11016  19E6  29E3               	goto	u4737
 11017  19E7                     l3071:	
 11018                           
 11019                           ;ADC.c: 22:   GO_nDONE = 1;
 11020  19E7  1283               	bcf	3,5	;RP0=0, select bank0
 11021  19E8  1303               	bcf	3,6	;RP1=0, select bank0
 11022  19E9  151F               	bsf	31,2	;volatile
 11023  19EA                     l139:	
 11024                           ;ADC.c: 23:   while(GO_nDONE);
 11025                           
 11026  19EA  191F               	btfsc	31,2	;volatile
 11027  19EB  29ED               	goto	u4241
 11028  19EC  29EE               	goto	u4240
 11029  19ED                     u4241:	
 11030  19ED  29EA               	goto	l139
 11031  19EE                     u4240:	
 11032  19EE                     l3073:	
 11033                           
 11034                           ;ADC.c: 24:   return ((ADRESH<<8)+ADRESL);
 11035  19EE  081E               	movf	30,w	;volatile
 11036  19EF  00A1               	movwf	?_ADC_Read+1
 11037  19F0  1683               	bsf	3,5	;RP0=1, select bank1
 11038  19F1  1303               	bcf	3,6	;RP1=0, select bank1
 11039  19F2  081E               	movf	30,w	;volatile
 11040  19F3  1283               	bcf	3,5	;RP0=0, select bank0
 11041  19F4  1303               	bcf	3,6	;RP1=0, select bank0
 11042  19F5  00A0               	movwf	?_ADC_Read
 11043  19F6                     l138:	
 11044  19F6  0008               	return
 11045  19F7                     __end_of_ADC_Read:	
 11046                           
 11047                           	psect	text29
 11048  1926                     __ptext29:	
 11049 ;; *************** function _ADC_Init *****************
 11050 ;; Defined at:
 11051 ;;		line 6 in file "ADC.c"
 11052 ;; Parameters:    Size  Location     Type
 11053 ;;		None
 11054 ;; Auto vars:     Size  Location     Type
 11055 ;;		None
 11056 ;; Return value:  Size  Location     Type
 11057 ;;                  1    wreg      void 
 11058 ;; Registers used:
 11059 ;;		wreg
 11060 ;; Tracked objects:
 11061 ;;		On entry : 0/0
 11062 ;;		On exit  : 0/0
 11063 ;;		Unchanged: 0/0
 11064 ;; Data sizes:     COMMON   BANK0   BANK1   BANK3   BANK2
 11065 ;;      Params:         0       0       0       0       0
 11066 ;;      Locals:         0       0       0       0       0
 11067 ;;      Temps:          0       0       0       0       0
 11068 ;;      Totals:         0       0       0       0       0
 11069 ;;Total ram usage:        0 bytes
 11070 ;; Hardware stack levels used:    1
 11071 ;; Hardware stack levels required when called:    2
 11072 ;; This function calls:
 11073 ;;		Nothing
 11074 ;; This function is called by:
 11075 ;;		_main
 11076 ;; This function uses a non-reentrant model
 11077 ;;
 11078                           
 11079                           
 11080                           ;psect for function _ADC_Init
 11081  1926                     _ADC_Init:	
 11082  1926                     l3351:	
 11083                           ;incstack = 0
 11084                           ; Regs used in _ADC_Init: [wreg]
 11085                           
 11086                           
 11087                           ;ADC.c: 8:   ADCON0 = 0x41;
 11088  1926  3041               	movlw	65
 11089  1927  1283               	bcf	3,5	;RP0=0, select bank0
 11090  1928  1303               	bcf	3,6	;RP1=0, select bank0
 11091  1929  009F               	movwf	31	;volatile
 11092                           
 11093                           ;ADC.c: 9:   ADCON1 = 0xC5;
 11094  192A  30C5               	movlw	197
 11095  192B  1683               	bsf	3,5	;RP0=1, select bank1
 11096  192C  1303               	bcf	3,6	;RP1=0, select bank1
 11097  192D  009F               	movwf	31	;volatile
 11098                           
 11099                           ;ADC.c: 11:   CMCON = 0x07;
 11100  192E  3007               	movlw	7
 11101  192F  009C               	movwf	28	;volatile
 11102  1930                     l134:	
 11103  1930  0008               	return
 11104  1931                     __end_of_ADC_Init:	
 11105                           
 11106                           	psect	text30
 11107  193E                     __ptext30:	
 11108 ;; *************** function _ISR *****************
 11109 ;; Defined at:
 11110 ;;		line 303 in file "main.c"
 11111 ;; Parameters:    Size  Location     Type
 11112 ;;		None
 11113 ;; Auto vars:     Size  Location     Type
 11114 ;;		None
 11115 ;; Return value:  Size  Location     Type
 11116 ;;                  1    wreg      void 
 11117 ;; Registers used:
 11118 ;;		wreg, status,2, status,0, pclath, cstack
 11119 ;; Tracked objects:
 11120 ;;		On entry : 0/0
 11121 ;;		On exit  : 0/0
 11122 ;;		Unchanged: 0/0
 11123 ;; Data sizes:     COMMON   BANK0   BANK1   BANK3   BANK2
 11124 ;;      Params:         0       0       0       0       0
 11125 ;;      Locals:         0       0       0       0       0
 11126 ;;      Temps:          2       0       0       0       0
 11127 ;;      Totals:         2       0       0       0       0
 11128 ;;Total ram usage:        2 bytes
 11129 ;; Hardware stack levels used:    1
 11130 ;; Hardware stack levels required when called:    1
 11131 ;; This function calls:
 11132 ;;		_pbchange
 11133 ;; This function is called by:
 11134 ;;		Interrupt level 1
 11135 ;; This function uses a non-reentrant model
 11136 ;;
 11137                           
 11138                           
 11139                           ;psect for function _ISR
 11140  193E                     _ISR:	
 11141  193E                     i1l3241:	
 11142                           
 11143                           ;main.c: 305:     if(RBIF==1)
 11144  193E  1C0B               	btfss	11,0	;volatile
 11145  193F  2941               	goto	u439_21
 11146  1940  2942               	goto	u439_20
 11147  1941                     u439_21:	
 11148  1941  2948               	goto	i1l117
 11149  1942                     u439_20:	
 11150  1942                     i1l3243:	
 11151                           
 11152                           ;main.c: 306:     {;main.c: 309:         pbchange();
 11153  1942  120A  158A  200C  160A  158A  	fcall	_pbchange
 11154  1947                     i1l3245:	
 11155                           
 11156                           ;main.c: 310:         RBIF = 0;
 11157  1947  100B               	bcf	11,0	;volatile
 11158  1948                     i1l117:	
 11159  1948  0876               	movf	??_ISR+1,w
 11160  1949  008A               	movwf	10
 11161  194A  0E75               	swapf	??_ISR^(0+4294967168),w
 11162  194B  0083               	movwf	3
 11163  194C  0EFE               	swapf	btemp,f
 11164  194D  0E7E               	swapf	btemp,w
 11165  194E  0009               	retfie
 11166  194F                     __end_of_ISR:	
 11167                           
 11168                           	psect	intentry
 11169  0004                     __pintentry:	
 11170                           ;incstack = 0
 11171                           ; Regs used in _ISR: [wreg+status,2+status,0+pclath+cstack]
 11172                           
 11173  0004                     interrupt_function:	
 11174  007E                     saved_w	set	btemp
 11175  0004  00FE               	movwf	btemp
 11176  0005  0E03               	swapf	3,w
 11177  0006  00F5               	movwf	??_ISR
 11178  0007  080A               	movf	10,w
 11179  0008  00F6               	movwf	??_ISR+1
 11180  0009  160A  158A  293E   	ljmp	_ISR
 11181                           
 11182                           	psect	text31
 11183  080C                     __ptext31:	
 11184 ;; *************** function _pbchange *****************
 11185 ;; Defined at:
 11186 ;;		line 274 in file "main.c"
 11187 ;; Parameters:    Size  Location     Type
 11188 ;;		None
 11189 ;; Auto vars:     Size  Location     Type
 11190 ;;  state           1    4[COMMON] unsigned char 
 11191 ;; Return value:  Size  Location     Type
 11192 ;;                  1    wreg      void 
 11193 ;; Registers used:
 11194 ;;		wreg, status,2, status,0
 11195 ;; Tracked objects:
 11196 ;;		On entry : 0/0
 11197 ;;		On exit  : 0/0
 11198 ;;		Unchanged: 0/0
 11199 ;; Data sizes:     COMMON   BANK0   BANK1   BANK3   BANK2
 11200 ;;      Params:         0       0       0       0       0
 11201 ;;      Locals:         1       0       0       0       0
 11202 ;;      Temps:          4       0       0       0       0
 11203 ;;      Totals:         5       0       0       0       0
 11204 ;;Total ram usage:        5 bytes
 11205 ;; Hardware stack levels used:    1
 11206 ;; This function calls:
 11207 ;;		Nothing
 11208 ;; This function is called by:
 11209 ;;		_ISR
 11210 ;; This function uses a non-reentrant model
 11211 ;;
 11212                           
 11213                           
 11214                           ;psect for function _pbchange
 11215  080C                     _pbchange:	
 11216  080C                     i1l3107:	
 11217                           ;incstack = 0
 11218                           ; Regs used in _pbchange: [wreg+status,2+status,0]
 11219                           
 11220                           
 11221                           ;main.c: 276:     unsigned char state;;main.c: 277:     static unsigned char oldstate;;m
      +                          ain.c: 278:     _delay((unsigned long)((1)*(20000000/4000.0)));
 11222  080C  3007               	movlw	7
 11223  080D  00F1               	movwf	??_pbchange+1
 11224  080E  307D               	movlw	125
 11225  080F  00F0               	movwf	??_pbchange
 11226  0810                     u474_27:	
 11227  0810  0BF0               	decfsz	??_pbchange,f
 11228  0811  2810               	goto	u474_27
 11229  0812  0BF1               	decfsz	??_pbchange+1,f
 11230  0813  2810               	goto	u474_27
 11231  0814                     i1l3109:	
 11232                           
 11233                           ;main.c: 281:     state= (PORTBbits.RB5<<1 | PORTBbits.RB4);
 11234  0814  1283               	bcf	3,5	;RP0=0, select bank0
 11235  0815  1303               	bcf	3,6	;RP1=0, select bank0
 11236  0816  0E06               	swapf	6,w	;volatile
 11237  0817  3901               	andlw	1
 11238  0818  00F0               	movwf	??_pbchange
 11239  0819  0E06               	swapf	6,w	;volatile
 11240  081A  00F1               	movwf	??_pbchange+1
 11241  081B  0C71               	rrf	??_pbchange+1,w
 11242  081C  3901               	andlw	1
 11243  081D  00F2               	movwf	??_pbchange+2
 11244  081E  0772               	addwf	??_pbchange+2,w
 11245  081F  0470               	iorwf	??_pbchange,w
 11246  0820  00F3               	movwf	??_pbchange+3
 11247  0821  0873               	movf	??_pbchange+3,w
 11248  0822  00F4               	movwf	pbchange@state
 11249  0823                     i1l3111:	
 11250                           
 11251                           ;main.c: 282:     if(oldstate==0x0)
 11252  0823  0877               	movf	pbchange@oldstate,w
 11253  0824  1D03               	btfss	3,2
 11254  0825  2827               	goto	u427_21
 11255  0826  2828               	goto	u427_20
 11256  0827                     u427_21:	
 11257  0827  2844               	goto	i1l107
 11258  0828                     u427_20:	
 11259  0828                     i1l3113:	
 11260                           
 11261                           ;main.c: 283:     {;main.c: 284:         if( state ==0x1)
 11262  0828  0374               	decf	pbchange@state,w
 11263  0829  1D03               	btfss	3,2
 11264  082A  282C               	goto	u428_21
 11265  082B  282D               	goto	u428_20
 11266  082C                     u428_21:	
 11267  082C  2836               	goto	i1l3117
 11268  082D                     u428_20:	
 11269  082D                     i1l3115:	
 11270                           
 11271                           ;main.c: 285:         {;main.c: 286:             count--;
 11272  082D  30FF               	movlw	255
 11273  082E  1683               	bsf	3,5	;RP0=1, select bank3
 11274  082F  1703               	bsf	3,6	;RP1=1, select bank3
 11275  0830  07D4               	addwf	_count^(0+384),f
 11276  0831  1803               	skipnc
 11277  0832  0AD5               	incf	(_count+1)^(0+384),f
 11278  0833  30FF               	movlw	255
 11279  0834  07D5               	addwf	(_count+1)^(0+384),f
 11280                           
 11281                           ;main.c: 288:         }
 11282  0835  2844               	goto	i1l107
 11283  0836                     i1l3117:	
 11284  0836  3002               	movlw	2
 11285  0837  0674               	xorwf	pbchange@state,w
 11286  0838  1D03               	btfss	3,2
 11287  0839  283B               	goto	u429_21
 11288  083A  283C               	goto	u429_20
 11289  083B                     u429_21:	
 11290  083B  2844               	goto	i1l107
 11291  083C                     u429_20:	
 11292  083C                     i1l3119:	
 11293                           
 11294                           ;main.c: 290:         {;main.c: 291:             count++;
 11295  083C  3001               	movlw	1
 11296  083D  1683               	bsf	3,5	;RP0=1, select bank3
 11297  083E  1703               	bsf	3,6	;RP1=1, select bank3
 11298  083F  07D4               	addwf	_count^(0+384),f
 11299  0840  1803               	skipnc
 11300  0841  0AD5               	incf	(_count+1)^(0+384),f
 11301  0842  3000               	movlw	0
 11302  0843  07D5               	addwf	(_count+1)^(0+384),f
 11303  0844                     i1l107:	
 11304                           ;main.c: 294:     }
 11305                           
 11306                           
 11307                           ;main.c: 295:     oldstate = state;
 11308  0844  0874               	movf	pbchange@state,w
 11309  0845  00F0               	movwf	??_pbchange
 11310  0846  0870               	movf	??_pbchange,w
 11311  0847  00F7               	movwf	pbchange@oldstate
 11312                           
 11313                           ;main.c: 297:     PORTB = PORTB;
 11314  0848  1283               	bcf	3,5	;RP0=0, select bank0
 11315  0849  1303               	bcf	3,6	;RP1=0, select bank0
 11316  084A  0806               	movf	6,w	;volatile
 11317  084B  0086               	movwf	6	;volatile
 11318  084C                     i1l3121:	
 11319                           
 11320                           ;main.c: 298:     INTCONbits.RBIF = 0;
 11321  084C  100B               	bcf	11,0	;volatile
 11322  084D                     i1l111:	
 11323  084D  0008               	return
 11324  084E                     __end_of_pbchange:	
 11325  007E                     btemp	set	126	;btemp
 11326  007E                     wtemp0	set	126


Data Sizes:
    Strings     26
    Constant    76
    Data        0
    BSS         21
    Persistent  0
    Stack       0

Auto Spaces:
    Space          Size  Autos    Used
    COMMON           14      7      10
    BANK0            80     80      80
    BANK1            80     79      79
    BANK3            96     66      85
    BANK2            96      0       0

Pointer List with Targets:

    eval_poly@d	PTR const  size(1) Largest target is 40
		 -> log@coeff(CODE[36]), exp@coeff(CODE[40]), 

    frexp@eptr	PTR int  size(1) Largest target is 2
		 -> log@exponent(BANK1[2]), floor@expon(BANK1[2]), 

    lcd_puts@s	PTR const unsigned char  size(2) Largest target is 15
		 -> STR_10(CODE[2]), STR_9(CODE[2]), STR_8(CODE[6]), STR_7(CODE[2]), 
		 -> STR_6(CODE[2]), STR_5(CODE[6]), temp(BANK3[15]), 

    ftoa@res	PTR unsigned char  size(1) Largest target is 15
		 -> temp(BANK3[15]), 

    intToStr@str	PTR unsigned char  size(1) Largest target is 15
		 -> temp(BANK3[15]), 

    reverse@str	PTR unsigned char  size(1) Largest target is 15
		 -> temp(BANK3[15]), 

    main@_prevCurrent	PTR unsigned char  size(1) Largest target is 5
		 -> STR_4(CODE[5]), 

    main@_prevVoltage	PTR unsigned char  size(1) Largest target is 5
		 -> STR_3(CODE[5]), 

    main@current	PTR unsigned char  size(1) Largest target is 5
		 -> STR_2(CODE[5]), 

    main@voltage	PTR unsigned char  size(1) Largest target is 5
		 -> STR_1(CODE[5]), 


Critical Paths under _main in COMMON

    None.

Critical Paths under _ISR in COMMON

    _ISR->_pbchange

Critical Paths under _main in BANK0

    _main->___fladd
    _lcd_puts->_lcd_write
    _lcd_init->_lcd_clear
    _lcd_clear->_lcd_write
    _lcd_goto->_lcd_write
    _log->___fladd
    _floor->___fladd
    _frexp->___fleq
    ___fleq->___xxtofl
    ___fltol->___fladd
    _eval_poly->___fladd
    ___flmul->_frexp
    ___flsub->___fladd
    ___fladd->___fldiv
    ___fldiv->___flmul

Critical Paths under _ISR in BANK0

    None.

Critical Paths under _main in BANK1

    _main->_ftoa
    _ftoa->_pow
    _pow->_exp
    _log->_eval_poly
    _exp->_ldexp
    _ldexp->_eval_poly
    _floor->___fltol
    ___fltol->___fladd
    _eval_poly->___fladd
    ___flsub->___fladd
    ___fladd->___fldiv
    _intToStr->___fltol

Critical Paths under _ISR in BANK1

    None.

Critical Paths under _main in BANK3

    _main->_ftoa
    _ftoa->_pow

Critical Paths under _ISR in BANK3

    None.

Critical Paths under _main in BANK2

    None.

Critical Paths under _ISR in BANK2

    None.

Call Graph Tables:

 ---------------------------------------------------------------------------------
 (Depth) Function   	        Calls       Base Space   Used Autos Params    Refs
 ---------------------------------------------------------------------------------
 (0) _main                                                45    45      0   96251
                                             29 BANK3     37    37      0
                           _ADC_Init
                           _ADC_Read
                            ___fladd
                            ___fldiv
                             ___flge
                            ___flmul
                            ___flsub
                            ___fltol
                           ___xxtofl
                               _ftoa
                          _lcd_clear
                           _lcd_goto
                           _lcd_init
                           _lcd_puts
 ---------------------------------------------------------------------------------
 (1) _lcd_puts                                             2     0      2    1009
                                              2 BANK0      2     0      2
                          _lcd_write
 ---------------------------------------------------------------------------------
 (1) _lcd_init                                             3     3      0     111
                                              4 BANK0      3     3      0
                          _lcd_clear
                          _lcd_write
 ---------------------------------------------------------------------------------
 (2) _lcd_clear                                            2     2      0      44
                                              2 BANK0      2     2      0
                          _lcd_write
 ---------------------------------------------------------------------------------
 (1) _lcd_goto                                             1     1      0      75
                                              2 BANK0      1     1      0
                          _lcd_write
 ---------------------------------------------------------------------------------
 (2) _lcd_write                                            2     2      0      44
                                              0 BANK0      2     2      0
 ---------------------------------------------------------------------------------
 (1) _ftoa                                                25    18      7   78625
                                             70 BANK1      9     2      7
                                             13 BANK3     16    16      0
                            ___flmul
                            ___flsub
                            ___fltol
                           ___xxtofl
                           _intToStr
                                _pow
 ---------------------------------------------------------------------------------
 (2) _pow                                                 22    14      8   65550
                                             61 BANK1      9     1      8
                                              0 BANK3     13    13      0
                             ___fleq
                             ___flge
                            ___flmul
                            ___flneg
                            ___fltol
                           ___xxtofl
                                _exp
                                _log
 ---------------------------------------------------------------------------------
 (3) _log                                                  7     3      4   20856
                                             41 BANK1      7     3      4
                            ___fladd
                             ___fleq
                             ___flge
                            ___flmul
                           ___xxtofl
                          _eval_poly
                              _frexp
 ---------------------------------------------------------------------------------
 (3) _exp                                                 12     8      4   34900
                                             49 BANK1     12     8      4
                            ___fldiv
                             ___fleq
                             ___flge
                            ___flmul
                            ___flneg
                            ___flsub
                            ___fltol
                           ___xxtofl
                          _eval_poly
                              _floor
                              _ldexp
                                _log (ARG)
 ---------------------------------------------------------------------------------
 (4) _ldexp                                                8     2      6    3560
                                             41 BANK1      8     2      6
                             ___fleq
                             ___flge
                          _eval_poly (ARG)
 ---------------------------------------------------------------------------------
 (4) _floor                                               11     7      4    8754
                                             36 BANK1     11     7      4
                            ___fladd
                             ___flge
                            ___fltol
                           ___xxtofl
                              _frexp
 ---------------------------------------------------------------------------------
 (4) _frexp                                                7     2      5    1834
                                             26 BANK0      7     2      5
                             ___fleq
 ---------------------------------------------------------------------------------
 (5) ___fleq                                              12     4      8    1306
                                             14 BANK0     12     4      8
                           ___xxtofl (ARG)
 ---------------------------------------------------------------------------------
 (4) ___xxtofl                                            14    10      4    1006
                                              0 BANK0     14    10      4
 ---------------------------------------------------------------------------------
 (5) ___fltol                                             11     7      4     685
                                             25 BANK1     11     7      4
                            ___fladd (ARG)
                            ___fldiv (ARG)
                            ___flmul (ARG)
                           ___xxtofl (ARG)
 ---------------------------------------------------------------------------------
 (4) ___flge                                              12     4      8    1854
                                              0 BANK0     12     4      8
 ---------------------------------------------------------------------------------
 (4) _eval_poly                                           16     9      7    7593
                                             25 BANK1     16     9      7
                            ___fladd
                            ___flmul
 ---------------------------------------------------------------------------------
 (5) ___flmul                                             26    18      8    3911
                                             33 BANK0     26    18      8
                          __Umul8_16
                           ___xxtofl (ARG)
                              _frexp (ARG)
 ---------------------------------------------------------------------------------
 (6) __Umul8_16                                            9     7      2     799
                                              0 BANK0      9     7      2
 ---------------------------------------------------------------------------------
 (4) ___flsub                                              8     0      8    3833
                                             25 BANK1      8     0      8
                            ___fladd
                           ___xxtofl (ARG)
 ---------------------------------------------------------------------------------
 (5) ___fladd                                             20    12      8    3048
                                             72 BANK0      8     0      8
                                             13 BANK1     12    12      0
                            ___fldiv (ARG)
                            ___flmul (ARG)
                           ___xxtofl (ARG)
                              _frexp (ARG)
 ---------------------------------------------------------------------------------
 (4) ___flneg                                              4     0      4     335
                                              0 BANK0      4     0      4
 ---------------------------------------------------------------------------------
 (4) ___fldiv                                             26    18      8    1425
                                             59 BANK0     13     5      8
                                              0 BANK1     13    13      0
                            ___flmul (ARG)
 ---------------------------------------------------------------------------------
 (2) _intToStr                                             9     4      5    2046
                                             36 BANK1      9     4      5
                            ___awdiv
                            ___awmod
                            ___fltol (ARG)
                            _reverse
 ---------------------------------------------------------------------------------
 (3) _reverse                                             12    10      2     378
                                              0 BANK0     12    10      2
 ---------------------------------------------------------------------------------
 (3) ___awmod                                              7     3      4     448
                                              0 BANK0      7     3      4
 ---------------------------------------------------------------------------------
 (3) ___awdiv                                              9     5      4     452
                                              0 BANK0      9     5      4
 ---------------------------------------------------------------------------------
 (1) _ADC_Read                                             5     3      2      44
                                              0 BANK0      5     3      2
 ---------------------------------------------------------------------------------
 (1) _ADC_Init                                             0     0      0       0
 ---------------------------------------------------------------------------------
 Estimated maximum stack depth 6
 ---------------------------------------------------------------------------------
 (Depth) Function   	        Calls       Base Space   Used Autos Params    Refs
 ---------------------------------------------------------------------------------
 (7) _ISR                                                  2     2      0      67
                                              5 COMMON     2     2      0
                           _pbchange
 ---------------------------------------------------------------------------------
 (8) _pbchange                                             5     5      0      67
                                              0 COMMON     5     5      0
 ---------------------------------------------------------------------------------
 Estimated maximum stack depth 8
 ---------------------------------------------------------------------------------

 Call Graph Graphs:

 _main (ROOT)
   _ADC_Init
   _ADC_Read
   ___fladd
     ___fldiv (ARG)
       ___flmul (ARG)
         __Umul8_16
         ___xxtofl (ARG)
         _frexp (ARG)
           ___fleq
             ___xxtofl (ARG)
     ___flmul (ARG)
       __Umul8_16
       ___xxtofl (ARG)
       _frexp (ARG)
         ___fleq
           ___xxtofl (ARG)
     ___xxtofl (ARG)
     _frexp (ARG)
       ___fleq
         ___xxtofl (ARG)
   ___fldiv
     ___flmul (ARG)
       __Umul8_16
       ___xxtofl (ARG)
       _frexp (ARG)
         ___fleq
           ___xxtofl (ARG)
   ___flge
   ___flmul
     __Umul8_16
     ___xxtofl (ARG)
     _frexp (ARG)
       ___fleq
         ___xxtofl (ARG)
   ___flsub
     ___fladd
       ___fldiv (ARG)
         ___flmul (ARG)
           __Umul8_16
           ___xxtofl (ARG)
           _frexp (ARG)
             ___fleq
               ___xxtofl (ARG)
       ___flmul (ARG)
         __Umul8_16
         ___xxtofl (ARG)
         _frexp (ARG)
           ___fleq
             ___xxtofl (ARG)
       ___xxtofl (ARG)
       _frexp (ARG)
         ___fleq
           ___xxtofl (ARG)
     ___xxtofl (ARG)
   ___fltol
     ___fladd (ARG)
       ___fldiv (ARG)
         ___flmul (ARG)
           __Umul8_16
           ___xxtofl (ARG)
           _frexp (ARG)
             ___fleq
               ___xxtofl (ARG)
       ___flmul (ARG)
         __Umul8_16
         ___xxtofl (ARG)
         _frexp (ARG)
           ___fleq
             ___xxtofl (ARG)
       ___xxtofl (ARG)
       _frexp (ARG)
         ___fleq
           ___xxtofl (ARG)
     ___fldiv (ARG)
       ___flmul (ARG)
         __Umul8_16
         ___xxtofl (ARG)
         _frexp (ARG)
           ___fleq
             ___xxtofl (ARG)
     ___flmul (ARG)
       __Umul8_16
       ___xxtofl (ARG)
       _frexp (ARG)
         ___fleq
           ___xxtofl (ARG)
     ___xxtofl (ARG)
   ___xxtofl
   _ftoa
     ___flmul
       __Umul8_16
       ___xxtofl (ARG)
       _frexp (ARG)
         ___fleq
           ___xxtofl (ARG)
     ___flsub
       ___fladd
         ___fldiv (ARG)
           ___flmul (ARG)
             __Umul8_16
             ___xxtofl (ARG)
             _frexp (ARG)
               ___fleq
                 ___xxtofl (ARG)
         ___flmul (ARG)
           __Umul8_16
           ___xxtofl (ARG)
           _frexp (ARG)
             ___fleq
               ___xxtofl (ARG)
         ___xxtofl (ARG)
         _frexp (ARG)
           ___fleq
             ___xxtofl (ARG)
       ___xxtofl (ARG)
     ___fltol
       ___fladd (ARG)
         ___fldiv (ARG)
           ___flmul (ARG)
             __Umul8_16
             ___xxtofl (ARG)
             _frexp (ARG)
               ___fleq
                 ___xxtofl (ARG)
         ___flmul (ARG)
           __Umul8_16
           ___xxtofl (ARG)
           _frexp (ARG)
             ___fleq
               ___xxtofl (ARG)
         ___xxtofl (ARG)
         _frexp (ARG)
           ___fleq
             ___xxtofl (ARG)
       ___fldiv (ARG)
         ___flmul (ARG)
           __Umul8_16
           ___xxtofl (ARG)
           _frexp (ARG)
             ___fleq
               ___xxtofl (ARG)
       ___flmul (ARG)
         __Umul8_16
         ___xxtofl (ARG)
         _frexp (ARG)
           ___fleq
             ___xxtofl (ARG)
       ___xxtofl (ARG)
     ___xxtofl
     _intToStr
       ___awdiv
       ___awmod
       ___fltol (ARG)
         ___fladd (ARG)
           ___fldiv (ARG)
             ___flmul (ARG)
               __Umul8_16
               ___xxtofl (ARG)
               _frexp (ARG)
                 ___fleq
                   ___xxtofl (ARG)
           ___flmul (ARG)
             __Umul8_16
             ___xxtofl (ARG)
             _frexp (ARG)
               ___fleq
                 ___xxtofl (ARG)
           ___xxtofl (ARG)
           _frexp (ARG)
             ___fleq
               ___xxtofl (ARG)
         ___fldiv (ARG)
           ___flmul (ARG)
             __Umul8_16
             ___xxtofl (ARG)
             _frexp (ARG)
               ___fleq
                 ___xxtofl (ARG)
         ___flmul (ARG)
           __Umul8_16
           ___xxtofl (ARG)
           _frexp (ARG)
             ___fleq
               ___xxtofl (ARG)
         ___xxtofl (ARG)
       _reverse (ARG)
     _pow
       ___fleq
         ___xxtofl (ARG)
       ___flge
       ___flmul
         __Umul8_16
         ___xxtofl (ARG)
         _frexp (ARG)
           ___fleq
             ___xxtofl (ARG)
       ___flneg
       ___fltol
         ___fladd (ARG)
           ___fldiv (ARG)
             ___flmul (ARG)
               __Umul8_16
               ___xxtofl (ARG)
               _frexp (ARG)
                 ___fleq
                   ___xxtofl (ARG)
           ___flmul (ARG)
             __Umul8_16
             ___xxtofl (ARG)
             _frexp (ARG)
               ___fleq
                 ___xxtofl (ARG)
           ___xxtofl (ARG)
           _frexp (ARG)
             ___fleq
               ___xxtofl (ARG)
         ___fldiv (ARG)
           ___flmul (ARG)
             __Umul8_16
             ___xxtofl (ARG)
             _frexp (ARG)
               ___fleq
                 ___xxtofl (ARG)
         ___flmul (ARG)
           __Umul8_16
           ___xxtofl (ARG)
           _frexp (ARG)
             ___fleq
               ___xxtofl (ARG)
         ___xxtofl (ARG)
       ___xxtofl
       _exp
         ___fldiv
           ___flmul (ARG)
             __Umul8_16
             ___xxtofl (ARG)
             _frexp (ARG)
               ___fleq
                 ___xxtofl (ARG)
         ___fleq
           ___xxtofl (ARG)
         ___flge
         ___flmul
           __Umul8_16
           ___xxtofl (ARG)
           _frexp (ARG)
             ___fleq
               ___xxtofl (ARG)
         ___flneg
         ___flsub
           ___fladd
             ___fldiv (ARG)
               ___flmul (ARG)
                 __Umul8_16
                 ___xxtofl (ARG)
                 _frexp (ARG)
                   ___fleq
                     ___xxtofl (ARG)
             ___flmul (ARG)
               __Umul8_16
               ___xxtofl (ARG)
               _frexp (ARG)
                 ___fleq
                   ___xxtofl (ARG)
             ___xxtofl (ARG)
             _frexp (ARG)
               ___fleq
                 ___xxtofl (ARG)
           ___xxtofl (ARG)
         ___fltol
           ___fladd (ARG)
             ___fldiv (ARG)
               ___flmul (ARG)
                 __Umul8_16
                 ___xxtofl (ARG)
                 _frexp (ARG)
                   ___fleq
                     ___xxtofl (ARG)
             ___flmul (ARG)
               __Umul8_16
               ___xxtofl (ARG)
               _frexp (ARG)
                 ___fleq
                   ___xxtofl (ARG)
             ___xxtofl (ARG)
             _frexp (ARG)
               ___fleq
                 ___xxtofl (ARG)
           ___fldiv (ARG)
             ___flmul (ARG)
               __Umul8_16
               ___xxtofl (ARG)
               _frexp (ARG)
                 ___fleq
                   ___xxtofl (ARG)
           ___flmul (ARG)
             __Umul8_16
             ___xxtofl (ARG)
             _frexp (ARG)
               ___fleq
                 ___xxtofl (ARG)
           ___xxtofl (ARG)
         ___xxtofl
         _eval_poly
           ___fladd
             ___fldiv (ARG)
               ___flmul (ARG)
                 __Umul8_16
                 ___xxtofl (ARG)
                 _frexp (ARG)
                   ___fleq
                     ___xxtofl (ARG)
             ___flmul (ARG)
               __Umul8_16
               ___xxtofl (ARG)
               _frexp (ARG)
                 ___fleq
                   ___xxtofl (ARG)
             ___xxtofl (ARG)
             _frexp (ARG)
               ___fleq
                 ___xxtofl (ARG)
           ___flmul
             __Umul8_16
             ___xxtofl (ARG)
             _frexp (ARG)
               ___fleq
                 ___xxtofl (ARG)
         _floor
           ___fladd
             ___fldiv (ARG)
               ___flmul (ARG)
                 __Umul8_16
                 ___xxtofl (ARG)
                 _frexp (ARG)
                   ___fleq
                     ___xxtofl (ARG)
             ___flmul (ARG)
               __Umul8_16
               ___xxtofl (ARG)
               _frexp (ARG)
                 ___fleq
                   ___xxtofl (ARG)
             ___xxtofl (ARG)
             _frexp (ARG)
               ___fleq
                 ___xxtofl (ARG)
           ___flge
           ___fltol
             ___fladd (ARG)
               ___fldiv (ARG)
                 ___flmul (ARG)
                   __Umul8_16
                   ___xxtofl (ARG)
                   _frexp (ARG)
                     ___fleq
                       ___xxtofl (ARG)
               ___flmul (ARG)
                 __Umul8_16
                 ___xxtofl (ARG)
                 _frexp (ARG)
                   ___fleq
                     ___xxtofl (ARG)
               ___xxtofl (ARG)
               _frexp (ARG)
                 ___fleq
                   ___xxtofl (ARG)
             ___fldiv (ARG)
               ___flmul (ARG)
                 __Umul8_16
                 ___xxtofl (ARG)
                 _frexp (ARG)
                   ___fleq
                     ___xxtofl (ARG)
             ___flmul (ARG)
               __Umul8_16
               ___xxtofl (ARG)
               _frexp (ARG)
                 ___fleq
                   ___xxtofl (ARG)
             ___xxtofl (ARG)
           ___xxtofl
           _frexp
             ___fleq
               ___xxtofl (ARG)
         _ldexp
           ___fleq
             ___xxtofl (ARG)
           ___flge
           _eval_poly (ARG)
             ___fladd
               ___fldiv (ARG)
                 ___flmul (ARG)
                   __Umul8_16
                   ___xxtofl (ARG)
                   _frexp (ARG)
                     ___fleq
                       ___xxtofl (ARG)
               ___flmul (ARG)
                 __Umul8_16
                 ___xxtofl (ARG)
                 _frexp (ARG)
                   ___fleq
                     ___xxtofl (ARG)
               ___xxtofl (ARG)
               _frexp (ARG)
                 ___fleq
                   ___xxtofl (ARG)
             ___flmul
               __Umul8_16
               ___xxtofl (ARG)
               _frexp (ARG)
                 ___fleq
                   ___xxtofl (ARG)
         _log (ARG)
           ___fladd
             ___fldiv (ARG)
               ___flmul (ARG)
                 __Umul8_16
                 ___xxtofl (ARG)
                 _frexp (ARG)
                   ___fleq
                     ___xxtofl (ARG)
             ___flmul (ARG)
               __Umul8_16
               ___xxtofl (ARG)
               _frexp (ARG)
                 ___fleq
                   ___xxtofl (ARG)
             ___xxtofl (ARG)
             _frexp (ARG)
               ___fleq
                 ___xxtofl (ARG)
           ___fleq
             ___xxtofl (ARG)
           ___flge
           ___flmul
             __Umul8_16
             ___xxtofl (ARG)
             _frexp (ARG)
               ___fleq
                 ___xxtofl (ARG)
           ___xxtofl
           _eval_poly
             ___fladd
               ___fldiv (ARG)
                 ___flmul (ARG)
                   __Umul8_16
                   ___xxtofl (ARG)
                   _frexp (ARG)
                     ___fleq
                       ___xxtofl (ARG)
               ___flmul (ARG)
                 __Umul8_16
                 ___xxtofl (ARG)
                 _frexp (ARG)
                   ___fleq
                     ___xxtofl (ARG)
               ___xxtofl (ARG)
               _frexp (ARG)
                 ___fleq
                   ___xxtofl (ARG)
             ___flmul
               __Umul8_16
               ___xxtofl (ARG)
               _frexp (ARG)
                 ___fleq
                   ___xxtofl (ARG)
           _frexp
             ___fleq
               ___xxtofl (ARG)
       _log
         ___fladd
           ___fldiv (ARG)
             ___flmul (ARG)
               __Umul8_16
               ___xxtofl (ARG)
               _frexp (ARG)
                 ___fleq
                   ___xxtofl (ARG)
           ___flmul (ARG)
             __Umul8_16
             ___xxtofl (ARG)
             _frexp (ARG)
               ___fleq
                 ___xxtofl (ARG)
           ___xxtofl (ARG)
           _frexp (ARG)
             ___fleq
               ___xxtofl (ARG)
         ___fleq
           ___xxtofl (ARG)
         ___flge
         ___flmul
           __Umul8_16
           ___xxtofl (ARG)
           _frexp (ARG)
             ___fleq
               ___xxtofl (ARG)
         ___xxtofl
         _eval_poly
           ___fladd
             ___fldiv (ARG)
               ___flmul (ARG)
                 __Umul8_16
                 ___xxtofl (ARG)
                 _frexp (ARG)
                   ___fleq
                     ___xxtofl (ARG)
             ___flmul (ARG)
               __Umul8_16
               ___xxtofl (ARG)
               _frexp (ARG)
                 ___fleq
                   ___xxtofl (ARG)
             ___xxtofl (ARG)
             _frexp (ARG)
               ___fleq
                 ___xxtofl (ARG)
           ___flmul
             __Umul8_16
             ___xxtofl (ARG)
             _frexp (ARG)
               ___fleq
                 ___xxtofl (ARG)
         _frexp
           ___fleq
             ___xxtofl (ARG)
   _lcd_clear
     _lcd_write
   _lcd_goto
     _lcd_write
   _lcd_init
     _lcd_clear
       _lcd_write
     _lcd_write
   _lcd_puts
     _lcd_write

 _ISR (ROOT)
   _pbchange

 Address spaces:
Name               Size   Autos  Total    Cost      Usage
BITCOMMON            E      0       1       0        7.1%
EEDATA             100      0       0       0        0.0%
NULL                 0      0       0       0        0.0%
CODE                 0      0       0       0        0.0%
COMMON               E      7       A       1       71.4%
BITSFR0              0      0       0       1        0.0%
SFR0                 0      0       0       1        0.0%
BITSFR1              0      0       0       2        0.0%
SFR1                 0      0       0       2        0.0%
STACK                0      0       0       2        0.0%
ABS                  0      0      FE       3        0.0%
BITBANK0            50      0       0       4        0.0%
BITSFR3              0      0       0       4        0.0%
SFR3                 0      0       0       4        0.0%
BANK0               50     50      50       5      100.0%
BITSFR2              0      0       0       5        0.0%
SFR2                 0      0       0       5        0.0%
BITBANK1            50      0       0       6        0.0%
BANK1               50     4F      4F       7       98.8%
BITBANK3            60      0       0       8        0.0%
BANK3               60     42      55       9       88.5%
BITBANK2            60      0       0      10        0.0%
BANK2               60      0       0      11        0.0%
DATA                 0      0      FE      12        0.0%


Microchip Technology PIC Macro Assembler V2.10 build 88905656 
Symbol Table                                                                                   Sun Mar 15 16:17:04 2020

           ___fldiv@aexp 00AC             ___fldiv@bexp 00AB                        _i 0078  
                      pc 0002             ___fldiv@sign 00A4              __CFG_CP$OFF 0000  
                     l73 0090                       l75 0350                       l69 0066  
                     l89 1A45                       l98 1CF7             ___awdiv@sign 0026  
                     fsr 0004      __Umul8_16@word_mpld 0026              __CFG_LVP$ON 0000  
                    l102 09DB                      l134 1930                      l152 196D  
                    l161 19BF                      l138 19F6                      l170 1B3A  
                    l139 19EA                      l155 1018                      l422 1B95  
                    l430 1D16                      l167 080B                      l409 1C5A  
                    l433 1D82                      l425 1AB4                      l434 1D9B  
                    l442 1094                      l426 1AD0                      l427 1AE5  
                    l452 1094                      l621 0BCF                      l605 0A5A  
                    l438 193D                      l607 0C7B                      l553 0DEE  
                    l449 107F                      l713 1598                      l570 0F03  
                    l562 0FFF                      l627 0C4F                      l555 0DBB  
                    l651 0761                      l580 0F5D                      l708 139B  
                    l629 0C67                      l549 0D01                      l717 1984  
                    l645 07F5                      l709 1598                      l574 0F34  
                    l591 0FEB                      l583 0FBF                      l719 1996  
                    l735 17FF                      l592 0FFF                      l657 07E9  
                    l595 1A95                      l683 1DC0                      l755 1BF1  
                    l747 11CB                      l739 17FF                      l685 1E57  
                    l759 1F25                      l696 1E21                      l697 1E2D  
                    l689 1E05                      l777 133D                      l787 1FFF  
                    _GIE 005F                      _RA2 002A                      _RA4 002C  
                    _RB4 0034                      _RB5 0035                      _RC4 003C  
                    _RC5 003D             __CFG_CPD$OFF 0000                      _ISR 193E  
                    _exp 1599                      _log 11CC                      _pow 133E  
                    fsr0 0004                      indf 0000             ___awmod@sign 0026  
            lcd_goto@pos 0022             __CFG_FOSC$HS 0000             ___flmul@aexp 0053  
           ___flmul@bexp 0054             ___flmul@sign 004E             ___flmul@temp 0059  
           ___flmul@prod 0055                     ?_ISR 0070             ___fltol@exp1 00C3  
                   l2101 1D2A                     l2111 1D98                     l2103 1D32  
                   l2201 0D11                     l2113 1D9A                     l2105 1D36  
                   l2211 0D2F                     l2203 0D15                     l2107 1D5A  
                   l2131 104F                     l2123 102F                     l2301 0F3D  
                   l2221 0D55                     l2213 0D37                     l2205 0D19  
                   l2109 1D5E                     l2133 1053                     l2141 106D  
                   l2125 1044                     l2117 1019                     l2311 0F4E  
                   l2303 0F3F                     l2223 0D5F                     l2215 0D3D  
                   l2207 0D1D                     l2231 0D7F                     l2151 1089  
                   l2127 1045                     l2119 1026                     l2071 1A96  
                   l3031 1AE6                     l2321 0F6B                     l2313 0F52  
                   l2305 0F44                     l2241 0DCA                     l2233 0D82  
                   l2225 0D67                     l2217 0D47                     l2209 0D25  
                   l2161 0C98                     l2153 0C7C                     l2401 0584  
                   l2129 104D                     l2073 1AAC                     l3041 1B08  
                   l3033 1AE9                     l2331 0FCB                     l2323 0F7B  
                   l2315 0F58                     l2307 0F46                     l2251 0DF2  
                   l2243 0DD0                     l2235 0D99                     l2227 0D6D  
                   l2219 0D4F                     l2163 0C9F                     l2171 0CB2  
                   l2155 0C85                     l2091 198D                     l2083 1971  
                   l2411 05F2                     l2403 05A0                     l2147 1074  
                   l2139 105B                     l2075 1AC8                     l3051 1B23  
                   l3043 1B11                     l3035 1AF8                     l3061 19C3  
                   l2341 0FE5                     l2333 0FD5                     l2325 0F7F  
                   l2261 0E1F                     l2309 0F4B                     l2253 0DF7  
                   l2245 0DD3                     l2237 0DBF                     l2229 0D77  
                   l2181 0CD4                     l2173 0CBC                     l2165 0CA4  
                   l2157 0C8F                     l2093 1992                     l2085 1973  
                   l2421 0682                     l2413 0602                     l2405 05BC  
                   l2149 1084                     l2501 1DD6                     l2077 1AE2  
                   l3301 178F                     l3053 1B29                     l3045 1B14  
                   l3037 1AF9                     l3029 1AE6                     l3071 19E7  
                   l3063 19C9                     l2343 0FF6                     l2335 0FDC  
                   l2327 0FBB                     l2319 0F64                     l2271 0E39  
                   l2263 0E25                     l2247 0DE2                     l2239 0DC8  
                   l2191 0CF3                     l2183 0CDA                     l2175 0CC3  
                   l2167 0CAE                     l2159 0C95                     l2087 197A  
                   l2431 0716                     l2423 0692                     l2415 061F  
                   l2407 05C5                     l2351 04A2                     l2511 1E0C  
                   l2503 1DE3                     l2079 1AE4                     l3303 17B6  
                   l3311 133E                     l3055 1B2F                     l3047 1B21  
                   l3039 1B05                     l3073 19EE                     l2601 0A4E  
                   l2345 0FFC                     l2337 0FDD                     l2329 0FC6  
                   l2281 0EDF                     l2273 0E48                     l2265 0E2E  
                   l2257 0E02                     l2249 0DE6                     l2193 0CF5  
                   l2185 0CDD                     l2177 0CC9                     l2169 0CB0  
                   l2089 197E                     l2441 073B                     l2433 0724  
                   l2425 06BF                     l2417 0638                     l2409 05D5  
                   l2361 04B9                     l2353 04A6                     l2097 1CF8  
                   l2521 1E45                     l2513 1E17                     l2505 1DEA  
                   l3321 13A6                     l3313 1341                     l3057 1B34  
                   l3049 1B22                     l3401 004F                     l3067 19CC  
                   l2603 0A50                     l3251 1931                     l2339 0FE1  
                   l2283 0EE4                     l2267 0E30                     l2259 0E1B  
                   l2275 0E4D                     l2187 0CE4                     l2195 0CF7  
                   l2179 0CCA                     l2451 075E                     l2435 072D  
                   l2443 0741                     l2427 06E5                     l2419 0655  
                   l2371 04D2                     l2363 04BB                     l2355 04A7  
                   l2347 0495                     l2099 1D0E                     l2523 1E4A  
                   l2515 1E1B                     l2507 1DEE                     l2531 1B96  
                   l3307 17C1                     l3331 1471                     l3323 13CF  
                   l3315 136A                     l3411 0060                     l3403 0050  
                   l3069 19DD                     l2701 0C61                     l2621 0AAF  
                   l2605 0A62                     l2613 0A7F                     l3253 193B  
                   l2293 0F1E                     l2277 0E65                     l2285 0EF5  
                   l2269 0E36                     l2197 0D09                     l2189 0CE9  
                   l3261 1A4A                     l2461 077D                     l2445 0745  
                   l2437 0731                     l2429 070D                     l2381 04E7  
                   l2373 04D3                     l2365 04C3                     l2357 04AC  
                   l2349 049C                     l2525 1E4E                     l2517 1E25  
                   l2509 1DFC                     l2541 1BDF                     l2533 1BB1  
                   l3341 14E9                     l3317 1395                     l3421 0082  
                   l3405 0051                     l3351 1926                     l2631 0AE2  
                   l2623 0AC7                     l2615 0A86                     l2607 0A6E  
                   l3255 193D                     l2295 0F2D                     l2287 0F0C  
                   l2279 0ED7                     l2199 0D0D                     l2471 07C3  
                   l2463 0796                     l2455 0766                     l2447 0746  
                   l2439 0732                     l2391 0502                     l2383 04EF  
                   l2375 04D8                     l2367 04C8                     l2359 04B1  
                   l2527 1E4F                     l2519 1E2F                     l2543 1BEC  
                   l2535 1BB9                     l2711 10C0                     l3271 15CD  
                   l3343 1536                     l3335 1482                     l3327 13DA  
                   l3431 00AD                     l3423 0086                     l3415 006A  
                   l3407 0056                     l2641 0B32                     l2633 0AFA  
                   l2625 0AD1                     l2609 0A76                     l2297 0F31  
                   l2289 0F13                     l2481 07E2                     l2473 07CD  
                   l2457 076B                     l2465 079C                     l2449 074A  
                   l2393 0512                     l2385 04F4                     l2377 04DD  
                   l2369 04CE                     l2545 1BF0                     l2713 10E7  
                   l2721 10FD                     l3273 15F8                     l3265 1599  
                   l3345 155B                     l3337 148D                     l3329 1403  
                   l3361 08E6                     l3353 084E                     l2801 1967  
                   l3441 0169                     l3433 00F2                     l3425 008C  
                   l3417 006E                     l3409 005B                     l2811 1BF5  
                   l2651 0B71                     l2643 0B33                     l2635 0B00  
                   l2627 0ADB                     l2619 0A91                     l2571 09F5  
                   l2299 0F3A                     l3259 1A46                     l2483 07ED  
                   l2475 07CF                     l2467 07A9                     l2459 0779  
                   l2395 051F                     l2387 04F9                     l2379 04E5  
                   l2491 1DA8                     l2547 1BF1                     l2539 1BC2  
                   l2731 11C1                     l2723 1106                     l2707 1095  
                   l3291 16EA                     l3283 1643                     l3267 15C2  
                   l3347 1562                     l3339 14C2                     l3363 08F4  
                   l3355 0869                     l2803 1968                     l3371 0803  
                   l3451 01B9                     l3443 0174                     l3435 0131  
                   l3427 0094                     l3419 0073                     l2821 1C09  
                   l2813 1BF9                     l2661 0B93                     l2653 0B73  
                   l2645 0B5B                     l2637 0B03                     l2629 0ADD  
                   l2581 0A10                     l2573 09F8                     l2565 09DC  
                   l2477 07DD                     l2469 07B4                     l2397 053C  
                   l2741 1FF7                     l2493 1DB8                     l2725 1107  
                   l2717 10F2                     l2709 10BA                     l3293 1701  
                   l3285 1673                     l3277 1609                     l3365 0921  
                   l3357 08BB                     l2805 196B                     l3373 0804  
                   l3381 19B1                     l3461 028D                     l3453 01C4  
                   l3445 019D                     l3437 0158                     l3429 009B  
                   l2831 1C1F                     l2823 1C0D                     l2815 1BFE  
                   l2671 0BCA                     l2655 0B7C                     l2663 0B9B  
                   l2639 0B11                     l2647 0B63                     l2591 0A33  
                   l2575 09FF                     l2583 0A12                     l2567 09E5  
                   l2479 07E1                     l2399 0558                     l2735 1F26  
                   l2495 1DC8                     l2487 1D9F                     l2727 1181  
                   l2751 1E8C                     l3295 1714                     l3287 1678  
                   l3279 1632                     l2903 1240                     l3367 095C  
                   l3359 08DE                     l2807 196C                     l3375 1997  
                   l3471 02D8                     l3463 0293                     l3455 01D6  
                   l3447 01A3                     l3439 015E                     l3391 0048  
                   l3383 001F                     l2841 1C3F                     l2833 1C23  
                   l2825 1C0F                     l2817 1C00                     l2809 1BF2  
                   l2681 0BEF                     l2665 0BA1                     l2657 0B82  
                   l2649 0B69                     l2593 0A36                     l2585 0A1C  
                   l2577 0A04                     l2569 09EF                     l2737 1F55  
                   l2489 1DA4                     l2761 1EBB                     l2753 1EA6  
                   l2745 1E58                     l3297 1758                     l3289 16AB  
                   l2905 12AD                     l3369 09A7                     l3377 199B  
                   l3481 0303                     l3473 02E3                     l3465 029E  
                   l3457 021B                     l3449 01AE                     l3393 0049  
                   l3385 0043                     l2843 1C46                     l2835 1C27  
                   l2827 1C15                     l2819 1C04                     l2691 0C3E  
                   l2683 0C08                     l2675 0BD4                     l2667 0BA4  
                   l2659 0B85                     l2595 0A3D                     l2587 0A23  
                   l2579 0A0E                     l2739 1FF1                     l2499 1DD1  
                   l2763 1EC8                     l2755 1EAA                     l2747 1E81  
                   l3299 178A                     l2907 12B3                     l3379 19A9  
                   l3491 0426                     l3483 0340                     l3475 02EE  
                   l3467 02A9                     l3459 0266                     l3395 004A  
                   l3387 0044                     l2837 1C38                     l2829 1C18  
                   l2845 1C4C                     l2861 1B49                     l2853 1B3B  
                   l2693 0C42                     l2677 0BDB                     l2685 0C10  
                   l2669 0BA8                     l2597 0A42                     l2589 0A2D  
                   l2773 1F02                     l2765 1ECE                     l2909 12D2  
                   l3493 044D                     l3485 0354                     l3477 02F9  
                   l3469 02D2                     l3397 004D                     l3389 0045  
                   l2847 1C51                     l2839 1C3E                     l2871 1B62  
                   l2863 1B4D                     l2855 1B3E                     l2791 1A31  
                   l2783 19FA                     l2695 0C4C                     l2687 0C1F  
                   l2679 0BEB                     l2599 0A4C                     l2767 1EF7  
                   l3495 0457                     l3479 02FD                     l3399 004E  
                   l2849 1C56                     l2881 1B81                     l2873 1B66  
                   l2865 1B52                     l2857 1B42                     l2793 1A37  
                   l2785 19FC                     l2697 0C59                     l2689 0C2F  
                   l2777 1F0D                     l2961 1008                     l3497 0482  
                   l3489 0394                     l2875 1B6A                     l2867 1B58  
                   l2883 1B87                     l2859 1B47                     l2787 1A05  
                   l2971 1C8C                     l2699 0C5D                     l2779 1F25  
                   l2891 11CC                     l2795 1952                     l2963 100E  
                   l3499 048D                     l2885 1B8C                     l2877 1B74  
                   l2869 1B5B                     l2789 1A2B                     l2981 1CD6  
                   l2973 1CAF                     l2965 1C5B                     l2893 11F5  
                   l2797 1959                     l2887 1B91                     l2879 1B7A  
                   l2983 1CEA                     l2975 1CB6                     l2967 1C60  
                   l2799 1966                     l2959 1005                     l2985 1CF3  
                   l2977 1CC2                     l2969 1C86                     l2897 1206  
                   l2979 1CC8                     l2899 122F                     ?_exp 00D1  
                   ?_log 00C9                     ?_pow 00DD                     STR_1 1868  
                   STR_2 186D                     STR_3 1868                     STR_4 186D  
                   STR_5 185C                     STR_6 1872                     STR_7 1874  
                   STR_8 1862                     STR_9 1872                     u2200 1AAC  
                   u3001 05AE                     u2201 1AAB                     u3002 05B5  
                   u2210 1AC8                     u3003 05BC                     u2211 1AC7  
                   u3100 06F3                     u2300 1D5E                     u2220 1AE2  
                   u3021 05E4                     u2301 1D5D                     u2221 1AE1  
                   u2230 197E                     u3022 05EB                     u2231 197D  
                   u3111 06FF                     u3031 0611                     u3023 05F2  
                   u3015 05BE                     u2311 1D6D                     u4000 1B74  
                   u3200 076B                     u3112 0706                     u3032 0618  
                   u2320 1D98                     u2312 1D6E                     u4001 1B73  
                   u3201 076A                     u3113 070D                     u3105 06EE  
                   u3033 061F                     u2321 1D97                     u2313 1D73  
                   u2225 1ADE                     u2250 1992                     u3210 077D  
                   u2314 1D74                     u2410 1084                     u2330 1026  
                   u2251 1991                     u3211 077C                     u3051 0647  
                   u2315 1D79                     u2411 1083                     u2331 1025  
                   u4020 1B87                     u2500 0D09                     u3220 078C  
                   u3140 0731                     u3052 064E                     u2316 1D7A  
                   u2260 1D0E                     u2420 1089                     u2340 103D  
                   u3300 1DE9                     u4021 1B86                     u4005 1B70  
                   u2501 0D08                     u2245 1985                     u3141 0730  
                   u3125 070F                     u3061 0674                     u3053 0655  
                   u3045 0621                     u2325 1D94                     u2261 1D0D  
                   u2421 1088                     u2405 1076                     u3301 1DE8  
                   u4030 1B8C                     u2510 0D0D                     u2430 0C95  
                   u3230 07A9                     u3062 067B                     u2270 1D2A  
                   u2350 1053                     u4031 1B8B                     u4015 1B7B  
                   u2511 0D0C                     u2431 0C94                     u3231 07A8  
                   u3135 0726                     u3071 06A1                     u3063 0682  
                   u2271 1D29                     u2351 1052                     u2600 0DF7  
                   u2520 0D99                     u2440 0C9F                     u3240 07C3  
                   u3160 0745                     u3080 06CB                     u3072 06A8  
                   u2280 1D36                     u2360 105A                     u3320 1E0B  
                   u3400 1BB1                     u4040 11F5                     u2601 0DF6  
                   u2521 0D98                     u2441 0C9E                     u3241 07C2  
                   u3225 0787                     u3161 0744                     u3073 06AF  
                   u2281 1D35                     u2361 1059                     u2345 1038  
                   u3321 1E0A                     u3401 1BB0                     u4041 11F4  
                   u2530 0DA4                     u2450 0CA4                     u3250 07E1  
                   u3170 074A                     u4050 122F                     u2611 0E0D  
                   u2531 0DA2                     u2451 0CA3                     u3251 07E0  
                   u3235 07A5                     u3171 0749                     u3155 0734  
                   u3091 06D7                     u2291 1D45                     u3315 1DFD  
                   u4051 122E                     u4220 19C9                     u4140 1CB5  
                   u3500 0AE2                     u3420 09F5                     u2700 0F0C  
                   u2620 0E1F                     u2612 0E14                     u2540 0DA5  
                   u2460 0CC9                     u3180 075E                     u3092 06DE  
                   u2292 1D46                     u2380 106C                     u3340 1E1B  
                   u3260 1DA4                     u4221 19C8                     u4141 1CB4  
                   u3501 0AE1                     u3421 09F4                     u2701 0F0B  
                   u2621 0E1E                     u2613 0E1B                     u2525 0D95  
                   u2461 0CC8                     u3245 07BF                     u3181 075D  
                   u3093 06E5                     u3085 06C6                     u2293 1D4B  
                   u2381 106B                     u3341 1E1A                     u3261 1DA3  
                   u4150 1CD6                     u3430 09FF                     u2710 0F13  
                   u2630 0E25                     u2550 0DBF                     u2470 0CDA  
                   u3190 0765                     u2294 1D4C                     u2390 1073  
                   u3350 1E21                     u3270 1DA8                     u4151 1CD5  
                   u3431 09FE                     u2711 0F12                     u2631 0E24  
                   u2551 0DBE                     u2471 0CD9                     u3191 0764  
                   u2295 1D51                     u2391 1072                     u2375 105C  
                   u3351 1E20                     u3335 1E10                     u3271 1DA7  
                   u4240 19EE                     u3600 0B82                     u3440 0A04  
                   u4400 193B                     u2800 0F6B                     u2640 0E36  
                   u2560 0DD0                     u2480 0CE4                     u2296 1D52  
                   u3360 1E25                     u3280 1DC8                     u4241 19ED  
                   u3601 0B81                     u3441 0A03                     u4401 193A  
                   u2801 0F6A                     u2641 0E35                     u2561 0DCF  
                   u2481 0CE3                     u3361 1E24                     u3281 1DC7  
                   u3530 0B00                     u3450 0A33                     u2810 0F7F  
                   u2730 0F31                     u2490 0CE9                     u3370 1E3A  
                   u4410 15C2                     u4235 19D3                     u4155 1CD2  
                   u3531 0AFF                     u3515 0AE6                     u3451 0A32  
                   u2811 0F7E                     u2731 0F30                     u2491 0CE8  
                   u4411 15C1                     u3700 0C3E                     u3620 0BA1  
                   u3460 0A3D                     u2820 0F9C                     u2740 0F3A  
                   u2660 0E65                     u2580 0DEE                     u2900 04AC  
                   u3380 1E4A                     u4420 15F8                     u4500 1395  
                   u3701 0C3D                     u3621 0BA0                     u3525 0AF3  
                   u3461 0A3C                     u2741 0F39                     u2725 0F22  
                   u2661 0E64                     u2581 0DED                     u2901 04AB  
                   u3381 1E49                     u4421 15F7                     u4501 1394  
                   u3710 0C5D                     u3630 0BA8                     u3550 0B32  
                   u3470 0A42                     u2830 0FBB                     u2750 0F44  
                   u2590 0DF2                     u2910 04B1                     u3390 1E4E  
                   u4430 1632                     u4510 13CF                     u3711 0C5C  
                   u3631 0BA7                     u3615 0B88                     u3551 0B31  
                   u3471 0A41                     u2831 0FBA                     u2751 0F43  
                   u2671 0E94                     u2663 0E61                     u2655 0E3D  
                   u2591 0DF1                     u2575 0DD7                     u2911 04B0  
                   u3391 1E4D                     u3375 1E35                     u3295 1DDB  
                   u4431 1631                     u4511 13CE                     u3640 0BCA  
                   u3560 0B57                     u3480 0A62                     u2840 0FC6  
                   u2760 0F4B                     u2680 0EB6                     u2672 0E97  
                   u2920 04D2                     u3720 10C0                     u3800 1EAA  
                   u4440 166D                     u4520 1403                     u4600 008C  
                   u3705 0C3A                     u3641 0BC9                     u3545 0B06  
                   u3481 0A61                     u2841 0FC5                     u2825 0F97  
                   u2761 0F4A                     u2681 0EB7                     u2673 0E9E  
                   u2921 04D1                     u3721 10BF                     u3801 1EA9  
                   u4441 166B                     u4521 1402                     u4601 008B  
                   u3650 0BD3                     u3570 0B69                     u3490 0A86  
                   u2850 0FCB                     u2770 0F52                     u2690 0EE4  
                   u2682 0EBC                     u2674 0EA1                     u2930 04D8  
                   u3730 10E7                     u3810 1EC8                     u4450 166E  
                   u4530 1471                     u4610 02FD                     u3651 0BD2  
                   u3571 0B68                     u3555 0B2E                     u3491 0A85  
                   u2851 0FCA                     u2771 0F51                     u2691 0EE3  
                   u2683 0EBD                     u2675 0EA8                     u2931 04D7  
                   u3731 10E6                     u3811 1EC7                     u4531 1470  
                   u4611 02FC                     _PEIE 005E                     u3660 0BDB  
                   u3580 0B71                     u2860 0FDC                     u2780 0F58  
                   u2676 0EAB                     u2940 04DD                     u3740 1106  
                   u3820 1EF7                     u4460 1678                     u4540 1562  
                   u4620 0303                     u3661 0BDA                     u3581 0B70  
                   u3565 0B40                     u2861 0FDB                     u2781 0F57  
                   u2941 04DC                     u3741 1105                     u3821 1EF6  
                   u4461 1677                     u4541 1561                     u4621 0302  
                   u3910 1C38                     u3830 1A45                     u3670 0BEF  
                   u3566 0B43                     u2870 0FE1                     u2790 0F63  
                   u2950 04F4                     u3750 1181                     u4470 178F  
                   u4550 08E6                     u4630 0354                     u3911 1C37  
                   u3831 1A44                     u3671 0BEE                     u3567 0B4A  
                   u2871 0FE0                     u2791 0F62                     u2951 04F3  
                   u3751 1180                     u3815 1EC4                     u4471 178E  
                   u4551 08E5                     u4631 0353                     _RBIE 005B  
                   u3680 0BFE                     u3568 0B4D                     u2880 0FFC  
                   u2960 04F9                     u4480 17B6                     u4560 19BF  
                   u4640 044D                     _RBIF 0058                     u3905 1C28  
                   u3569 0B54                     u2881 0FFB                     u2961 04F8  
                   u4481 17B5                     u4561 19BE                     u4641 044C  
                   u3930 1C4C                     u3850 1BF9                     u3690 0C1F  
                   u2890 04A6                     u4490 136A                     u4650 0482  
                   u4570 0066                     u3931 1C4B                     u3915 1C34  
                   u3851 1BF8                     u3835 1A41                     u3691 0C1E  
                   u3595 0B75                     u2971 054A                     u2891 04A5  
                   u4491 1369                     u4707 1B19                     u4651 0481  
                   u4571 0065                     u3940 1C51                     u3860 1C04  
                   u2972 0551                     u3780 1FF7                     u4580 006A  
                   u3941 1C50                     u3925 1C40                     u3861 1C03  
                   u3685 0BF9                     u2981 0566                     u2973 0558  
                   u3781 1FF6                     u3765 1F2B                     u3845 195E  
                   u4717 1014                     u4581 0069                     u3870 1C15  
                   u3950 1B42                     u2982 056D                     u3790 1E81  
                   u4590 0082                     u3871 1C14                     u3951 1B41  
                   u3695 0C1B                     u2991 0592                     u2983 0574  
                   u3775 1F5E                     u3791 1E80                     u4727 1956  
                   u4591 0081                     u3960 1B4D                     u2992 0599  
                   u4737 19E3                     u3961 1B4C                     u2993 05A0  
                   u3890 1C27                     u3970 1B58                     u3891 1C26  
                   u3971 1B57                     u4667 0348                     u4595 007E  
                   u3885 1C19                     u4677 1AF0                     u3990 1B6A  
                   u3991 1B69                     u4687 1B00                     u3985 1B5C  
                   u4697 1B0D              main@current 01B1             __CFG_WRT$OFF 0000  
                   _main 001F                     _ftoa 084E                     _temp 01D6  
                   btemp 007E                     exp@x 00D1                     log@x 00C9  
       __end_of_ADC_Init 1931         __end_of_ADC_Read 19F7            __CFG_BOREN$ON 0000  
                   pow@x 00DD                     pow@y 00E1                     start 000C  
        ___fldiv@new_exp 00A5                    ??_ISR 0075                    ??_exp 00D5  
                  ??_log 00CD                    ??_pow 00E5            ___fltol@sign1 00C2  
        __end_of___fladd 1000                    ?_main 0070                    ?_ftoa 00E6  
        __end_of___fldiv 0C7C          __end_of___awdiv 1C5B          __end_of___flneg 193E  
                  STR_10 1874            __CFG_WDTE$OFF 0000          __end_of___awmod 1B96  
        __end_of___flmul 07F6          __end_of___flsub 1A96          __end_of___fltol 1095  
                  _CMCON 009C          ___awdiv@divisor 0020                    i1l111 084D  
                  i1l107 0844                    i1l117 1948          ___awdiv@counter 0025  
                  _PORTB 0006                    _PORTC 0007                    _PORTD 0008  
                  _TRISA 0085                    _TRISB 0086                    _TRISC 0087  
                  _TRISD 0088            __CFG_PWRTE$ON 0000                    _nRBPU 040F  
                  _count 01D4                    _floor 1095                    _ldexp 1E58  
                  _frexp 1B96                    _errno 01D2                    main@a 01CA  
                  main@b 01C4                    ftoa@i 01A7                    ftoa@n 00E6  
         __pbitbssCOMMON 03C8                    pclath 000A          __end_of_reverse 1A46  
                  pow@yi 0199                    status 0003            main@adc_count 01CC  
                  wtemp0 007E              exp@exponent 00DA              ldexp@newexp 00CD  
        __initialization 000F              log@exponent 00CE             __end_of_main 0495  
           __end_of_ftoa 09DC                   ??_main 01AD                   ??_ftoa 00ED  
                 _ADCON0 001F                   _ADCON1 009F                   ?_floor 00C4  
                 ?_ldexp 00C9                   ?_frexp 003A                   _ADRESH 001E  
                 _ADRESL 009E         ___awdiv@dividend 0022                   i1l3111 0823  
                 i1l3121 084C                   i1l3113 0828                   i1l3115 082D  
                 i1l3107 080C                   i1l3117 0836                   i1l3109 0814  
                 i1l3119 083C                   i1l3241 193E                   i1l3243 1942  
                 i1l3245 1947                   u427_20 0828                   u427_21 0827  
                 u428_20 082D                   u428_21 082C                   u429_20 083C  
                 u429_21 083B                   u439_20 1942                   u439_21 1941  
                 u474_27 0810         __end_of___xxtofl 1E58              intToStr@str 00C6  
       __end_of_lcd_init 1B3B         __end_of_lcd_goto 080C                   ___flge 1CF8  
                 ___fleq 1A96         __end_of_lcd_puts 19C0                ??___fladd 00AD  
              ??___fldiv 0063                ??___awdiv 0024                ??___flneg 0024  
              ??___awmod 0024                ??___flmul 0049                ??___flsub 0070  
              ??___fltol 00BD         __end_of_pbchange 084E          ADC_Read@channel 0024  
       __end_of_intToStr 1CF8         ___awdiv@quotient 0027          ___awmod@divisor 0020  
        ___awmod@counter 0025                   floor@i 00C9                   floor@x 00C4  
     __size_of__Umul8_16 0029                ?_ADC_Init 0070                ?_ADC_Read 0020  
                 saved_w 007E                ??_reverse 0022         main@_prevCurrent 01B3  
             ___flge@ff1 0020               ___flge@ff2 0024             ___xxtofl@arg 002A  
       __end_ofexp@coeff 1838             ___xxtofl@exp 0029             ___xxtofl@val 0020  
             ___fleq@ff1 002E               ___fleq@ff2 0032         __end_oflog@coeff 185C  
__end_of__initialization 001B               ___flneg@f1 0020             eval_poly@res 00C5  
       main@_prevVoltage 01B2               ___fltol@f1 00B9           __pcstackCOMMON 0070  
          __end_of_floor 11CC            __end_of_ldexp 1F26            __end_of_frexp 1BF2  
             ??_ADC_Init 0020               ??_ADC_Read 0022       __size_of_lcd_clear 0014  
                ??_floor 00C8       __size_of_lcd_write 001F                  ??_ldexp 00CF  
                ??_frexp 003F               __pbssBANK3 01D2       __size_of_eval_poly 00DA  
      __end_of__Umul8_16 1997               __pmaintext 001F                  ?___flge 0020  
                ?___fleq 002E               __pintentry 0004                ?___xxtofl 0020  
              ?_lcd_init 0070                ?_lcd_goto 0070                ?_lcd_puts 0022  
             __stringtab 1800                ?_pbchange 0070                ?_intToStr 00C4  
      __end_of_lcd_clear 1019          __size_of___flge 00A4          __size_of___fleq 0050  
                ___fladd 0C7C                  ___fldiv 09DC                  ___awdiv 1BF2  
                ___flneg 1931                  ___awmod 1B3B                  ___flmul 0495  
                ___flsub 1A46                  ___fltol 1019        __end_of_lcd_write 196E  
                _exp$934 00D6        __end_of_eval_poly 2000                  __ptext1 1997  
                __ptext2 1AE6                  __ptext3 1005                  __ptext4 0800  
                __ptext5 194F                  __ptext6 084E                  __ptext7 133E  
                __ptext8 11CC                  __ptext9 1599                  _pow$932 0190  
                _pow$933 0194             __size_of_ISR 0011             __size_of_exp 0267  
           __size_of_log 0172             __size_of_pow 025B               ??___xxtofl 0024  
       ___awmod@dividend 0022                  _reverse 19F7                  clrloop0 07F7  
             ??_lcd_init 0024               ??_lcd_goto 0022               ??_lcd_puts 0024  
   end_of_initialization 001B                  ftoa@res 00EA                  exp@sign 00DC  
             ??_pbchange 0070               ??_intToStr 00C9              reverse@temp 0025  
                pow@sign 0198                _PORTBbits 0006              ___fladd@grs 00B8  
          ___xxtofl@sign 0028              ___fldiv@grs 00A7              ___fldiv@rem 00A0  
      __size_of_ADC_Init 000B        __size_of_ADC_Read 0037              ___flmul@grs 004F  
       main@currentLimit 01B4               lcd_write@c 0021           __end_of___flge 1D9C  
         __end_of___fleq 1AE6               floor@expon 00CD      start_initialization 000F  
             eval_poly@d 00BD               eval_poly@n 00BE               eval_poly@x 00B9  
            __end_of_ISR 194F               ldexp@value 00C9              __end_of_exp 1800  
            __end_of_log 133E              __end_of_pow 1599               frexp@value 003A  
               ??___flge 0028                 ??___fleq 0036                __Umul8_16 196E  
          pbchange@state 0074                ___fladd@a 006C                ___fladd@b 0068  
              ___fldiv@a 005B                ___fldiv@b 005F                ___flmul@a 0045  
              ___flmul@b 0041              __pbssCOMMON 0077                ___flsub@a 00B9  
              ___flsub@b 00BD                ___latbits 0002            __pcstackBANK0 0020  
          __pcstackBANK1 00A0            __pcstackBANK3 0190        __size_of___xxtofl 00BC  
      __size_of_lcd_init 0055        __size_of_lcd_goto 000C        __size_of_lcd_puts 0029  
      __size_of_pbchange 0042        __size_of_intToStr 009D                 ?___fladd 0068  
               ?___fldiv 005B                 ?___awdiv 0020                 ?___flneg 0020  
               ?___awmod 0020                 ?___flmul 0041                 ?___flsub 00B9  
               ?___fltol 00B9               ?__Umul8_16 0020                _lcd_clear 1005  
              __pstrings 1800                _lcd_write 194F                _eval_poly 1F26  
               _ADC_Init 1926                 _ADC_Read 19C0                 ?_reverse 0020  
         __size_of_floor 0137           __size_of_ldexp 00CE           __size_of_frexp 005C  
      interrupt_function 0004                clear_ram0 07F6               reverse@len 0020  
             reverse@str 002B                 _GO_nDONE 00FA               ?_lcd_clear 0070  
            __stringbase 180F               ?_lcd_write 0070          main@current_res 01C6  
             ?_eval_poly 00B9                lcd_puts@s 0022                ftoa@fpart 01A9  
              ftoa@ipart 01A5                frexp@eptr 003E                intToStr@d 00C7  
              intToStr@i 00CB                intToStr@x 00C4              ??__Umul8_16 0022  
       __size_of___fladd 0384         __size_of___fldiv 02A0         __size_of___awdiv 0069  
       __size_of___flneg 000D         __size_of___awmod 005B         __size_of___flmul 0361  
       __size_of___flsub 0050         __size_of___fltol 007C       __end_of__stringtab 1810  
               ___xxtofl 1D9C                 _main$928 01BC                 _main$929 01C0  
               __ptext10 1E58                 __ptext11 1095                 __ptext20 1A46  
               __ptext12 1B96                 __ptext21 0C7C                 __ptext13 1A96  
               __ptext30 193E                 __ptext22 1931                 __ptext14 1D9C  
               __ptext31 080C                 __ptext23 09DC                 __ptext15 1019  
               __ptext24 1C5B                 __ptext16 1CF8                 __ptext25 19F7  
               __ptext17 1F26                 __ptext26 1B3B                 __ptext18 0495  
               __ptext27 1BF2                 __ptext19 196E                 __ptext28 19C0  
               __ptext29 1926                 _ftoa$930 019D                 _ftoa$931 01A1  
       __size_of_reverse 004F                 _lcd_init 1AE6                 _lcd_goto 0800  
               _lcd_puts 1997                 _pbchange 080C                 _intToStr 1C5B  
          __size_of_main 0476            __size_of_ftoa 018E              ??_lcd_clear 0022  
            ??_lcd_write 0020                 exp@coeff 1810                 log@coeff 1838  
             _INTCONbits 000B              ??_eval_poly 00C0                 intlevel1 0000  
              stringcode 180A                 reverse@i 0027                 reverse@j 0029  
       pbchange@oldstate 0077           ftoa@afterpoint 00EB   __Umul8_16@multiplicand 0020  
               stringdir 180A                 stringtab 1800            ___fladd@signs 00B5  
          main@FOutOnOff 03C8             ___fladd@aexp 00B6             ___fladd@bexp 00B7  
   __Umul8_16@multiplier 0028         main@voltageLimit 01CE          main@voltage_res 01B8  
      __Umul8_16@product 0024  
